Archive member included to satisfy reference by file (symbol)

/work/glibc-obj/nptl/libpthread.a(pthread_create.o)
                              threads.o (pthread_create)
/work/glibc-obj/nptl/libpthread.a(pthread_join.o)
                              threads.o (pthread_join)
/work/glibc-obj/nptl/libpthread.a(pthread_join_common.o)
                              /work/glibc-obj/nptl/libpthread.a(pthread_join.o) (__pthread_timedjoin_ex)
/work/glibc-obj/nptl/libpthread.a(pthread_mutex_lock.o)
                              /work/glibc-obj/nptl/libpthread.a(pthread_create.o) (__pthread_mutex_lock)
/work/glibc-obj/nptl/libpthread.a(pthread_mutex_trylock.o)
                              /work/glibc-obj/nptl/libpthread.a(pthread_create.o) (__pthread_mutex_trylock)
/work/glibc-obj/nptl/libpthread.a(pthread_mutex_unlock.o)
                              /work/glibc-obj/nptl/libpthread.a(pthread_create.o) (__pthread_mutex_unlock)
/work/glibc-obj/nptl/libpthread.a(pthread_key_create.o)
                              /work/glibc-obj/nptl/libpthread.a(pthread_create.o) (__pthread_key_create)
/work/glibc-obj/nptl/libpthread.a(pthread_key_delete.o)
                              /work/glibc-obj/nptl/libpthread.a(pthread_create.o) (__pthread_key_delete)
/work/glibc-obj/nptl/libpthread.a(pthread_getspecific.o)
                              /work/glibc-obj/nptl/libpthread.a(pthread_create.o) (__pthread_getspecific)
/work/glibc-obj/nptl/libpthread.a(pthread_setspecific.o)
                              /work/glibc-obj/nptl/libpthread.a(pthread_create.o) (__pthread_setspecific)
/work/glibc-obj/nptl/libpthread.a(pthread_cancel.o)
                              /work/glibc-obj/nptl/libpthread.a(pthread_create.o) (__pthread_cancel)
/work/glibc-obj/nptl/libpthread.a(pthread_once.o)
                              /work/glibc-obj/nptl/libpthread.a(pthread_create.o) (__pthread_once)
/work/glibc-obj/nptl/libpthread.a(cleanup_compat.o)
                              /work/glibc-obj/nptl/libpthread.a(pthread_join_common.o) (__pthread_cleanup_push)
/work/glibc-obj/nptl/libpthread.a(cancellation.o)
                              /work/glibc-obj/nptl/libpthread.a(pthread_create.o) (__pthread_enable_asynccancel)
/work/glibc-obj/nptl/libpthread.a(lowlevellock.o)
                              /work/glibc-obj/nptl/libpthread.a(pthread_create.o) (__lll_lock_wait_private)
/work/glibc-obj/nptl/libpthread.a(pause.o)
                              /work/glibc-obj/nptl/libpthread.a(pthread_mutex_lock.o) (__pause_nocancel)
/work/glibc-obj/nptl/libpthread.a(tpp.o)
                              /work/glibc-obj/nptl/libpthread.a(pthread_mutex_lock.o) (__pthread_tpp_change_priority)
/work/glibc-obj/nptl/libpthread.a(elision-lock.o)
                              /work/glibc-obj/nptl/libpthread.a(pthread_mutex_lock.o) (__pthread_force_elision)
/work/glibc-obj/nptl/libpthread.a(elision-unlock.o)
                              /work/glibc-obj/nptl/libpthread.a(pthread_mutex_unlock.o) (__lll_unlock_elision)
/work/glibc-obj/nptl/libpthread.a(elision-trylock.o)
                              /work/glibc-obj/nptl/libpthread.a(pthread_mutex_trylock.o) (__lll_trylock_elision)
/work/glibc-obj/nptl/libpthread.a(nptl-init.o)
                              /work/glibc-obj/nptl/libpthread.a(pthread_create.o) (__xidcmd)
/work/glibc-obj/nptl/libpthread.a(vars.o)
                              /work/glibc-obj/nptl/libpthread.a(pthread_create.o) (__pthread_keys)
/work/glibc-obj/nptl/libpthread.a(events.o)
                              /work/glibc-obj/nptl/libpthread.a(pthread_create.o) (__nptl_create_event)
/work/glibc-obj/nptl/libpthread.a(unwind.o)
                              /work/glibc-obj/nptl/libpthread.a(cancellation.o) (__pthread_unwind)
/work/glibc-obj/nptl/libpthread.a(sigaction.o)
                              /work/glibc-obj/nptl/libpthread.a(nptl-init.o) (__libc_sigaction)
/usr/lib/gcc/x86_64-redhat-linux/8//libgcc_eh.a(unwind-dw2.o)
                              /work/glibc-obj/nptl/libpthread.a(unwind.o) (_Unwind_GetCFA)
/usr/lib/gcc/x86_64-redhat-linux/8//libgcc_eh.a(unwind-dw2-fde-dip.o)
                              /usr/lib/gcc/x86_64-redhat-linux/8//libgcc_eh.a(unwind-dw2.o) (_Unwind_Find_FDE)
/work/glibc-obj/libc.a(libc-start.o)
                              /work/glibc-obj/csu/crt1.o (__libc_start_main)
/work/glibc-obj/libc.a(check_fds.o)
                              /work/glibc-obj/libc.a(libc-start.o) (__libc_check_standard_fds)
/work/glibc-obj/libc.a(libc-tls.o)
                              /work/glibc-obj/libc.a(libc-start.o) (__libc_setup_tls)
/work/glibc-obj/libc.a(elf-init.o)
                              /work/glibc-obj/csu/crt1.o (__libc_csu_init)
/work/glibc-obj/libc.a(errno.o)
                              /work/glibc-obj/nptl/libpthread.a(pthread_create.o) (errno)
/work/glibc-obj/libc.a(assert.o)
                              threads.o (__assert_fail)
/work/glibc-obj/libc.a(ctype-info.o)
                              /work/glibc-obj/nptl/libpthread.a(pthread_create.o) (__ctype_init)
/work/glibc-obj/libc.a(dcgettext.o)
                              /work/glibc-obj/libc.a(assert.o) (__dcgettext)
/work/glibc-obj/libc.a(dcigettext.o)
                              /work/glibc-obj/libc.a(dcgettext.o) (__dcigettext)
/work/glibc-obj/libc.a(finddomain.o)
                              /work/glibc-obj/libc.a(dcigettext.o) (_nl_find_domain)
/work/glibc-obj/libc.a(loadmsgcat.o)
                              /work/glibc-obj/libc.a(dcigettext.o) (_nl_load_domain)
/work/glibc-obj/libc.a(localealias.o)
                              /work/glibc-obj/libc.a(finddomain.o) (_nl_expand_alias)
/work/glibc-obj/libc.a(l10nflist.o)
                              /work/glibc-obj/libc.a(finddomain.o) (_nl_make_l10nflist)
/work/glibc-obj/libc.a(explodename.o)
                              /work/glibc-obj/libc.a(finddomain.o) (_nl_explode_name)
/work/glibc-obj/libc.a(plural.o)
                              /work/glibc-obj/libc.a(loadmsgcat.o) (__gettext_free_exp)
/work/glibc-obj/libc.a(plural-exp.o)
                              /work/glibc-obj/libc.a(loadmsgcat.o) (__gettext_extract_plural)
/work/glibc-obj/libc.a(hash-string.o)
                              /work/glibc-obj/libc.a(dcigettext.o) (__hash_string)
/work/glibc-obj/libc.a(bsd-_setjmp.o)
                              /work/glibc-obj/nptl/libpthread.a(pthread_create.o) (_setjmp)
/work/glibc-obj/libc.a(longjmp.o)
                              /work/glibc-obj/nptl/libpthread.a(unwind.o) (__libc_longjmp)
/work/glibc-obj/libc.a(__longjmp.o)
                              /work/glibc-obj/libc.a(longjmp.o) (__longjmp)
/work/glibc-obj/libc.a(jmp-unwind.o)
                              /work/glibc-obj/libc.a(longjmp.o) (_longjmp_unwind)
/work/glibc-obj/libc.a(raise.o)
                              /work/glibc-obj/libc.a(dcigettext.o) (raise)
/work/glibc-obj/libc.a(sigprocmask.o)
                              /work/glibc-obj/libc.a(longjmp.o) (__sigprocmask)
/work/glibc-obj/libc.a(abort.o)
                              /work/glibc-obj/nptl/libpthread.a(pthread_create.o) (abort)
/work/glibc-obj/libc.a(msort.o)
                              /work/glibc-obj/libc.a(localealias.o) (qsort)
/work/glibc-obj/libc.a(getenv.o)
                              /work/glibc-obj/libc.a(dcigettext.o) (getenv)
/work/glibc-obj/libc.a(exit.o)
                              /work/glibc-obj/nptl/libpthread.a(pthread_create.o) (exit)
/work/glibc-obj/libc.a(cxa_atexit.o)
                              /work/glibc-obj/libc.a(exit.o) (__new_exitfn_called)
/work/glibc-obj/libc.a(strtoul.o)
                              /work/glibc-obj/libc.a(plural-exp.o) (strtoul)
/work/glibc-obj/libc.a(strtoul_l.o)
                              /work/glibc-obj/libc.a(strtoul.o) (____strtoul_l_internal)
/work/glibc-obj/libc.a(grouping.o)
                              /work/glibc-obj/libc.a(strtoul_l.o) (__correctly_grouped_prefixmb)
/work/glibc-obj/libc.a(fprintf.o)
                              threads.o (fprintf)
/work/glibc-obj/libc.a(asprintf.o)
                              /work/glibc-obj/libc.a(assert.o) (__asprintf)
/work/glibc-obj/libc.a(fxprintf.o)
                              /work/glibc-obj/libc.a(assert.o) (__fxprintf)
/work/glibc-obj/libc.a(iofclose.o)
                              /work/glibc-obj/libc.a(localealias.o) (_IO_new_fclose)
/work/glibc-obj/libc.a(iofflush.o)
                              /work/glibc-obj/libc.a(assert.o) (_IO_fflush)
/work/glibc-obj/libc.a(iofopen.o)
                              /work/glibc-obj/libc.a(localealias.o) (_IO_new_fopen)
/work/glibc-obj/libc.a(iofwrite.o)
                              threads.o (fwrite)
/work/glibc-obj/libc.a(wfileops.o)
                              /work/glibc-obj/libc.a(iofopen.o) (_IO_wfile_jumps_maybe_mmap)
/work/glibc-obj/libc.a(vasprintf.o)
                              /work/glibc-obj/libc.a(asprintf.o) (_IO_vasprintf)
/work/glibc-obj/libc.a(libc_fatal.o)
                              /work/glibc-obj/nptl/libpthread.a(pthread_create.o) (__libc_fatal)
/work/glibc-obj/libc.a(vtables.o)
                              /work/glibc-obj/libc.a(iofclose.o) (_IO_vtable_check)
/work/glibc-obj/libc.a(iofgets_u.o)
                              /work/glibc-obj/libc.a(localealias.o) (__fgets_unlocked)
/work/glibc-obj/libc.a(fileops.o)
                              /work/glibc-obj/libc.a(wfileops.o) (_IO_file_close)
/work/glibc-obj/libc.a(genops.o)
                              /work/glibc-obj/libc.a(iofclose.o) (_IO_un_link)
/work/glibc-obj/libc.a(stdfiles.o)
                              /work/glibc-obj/libc.a(genops.o) (_IO_list_all)
/work/glibc-obj/libc.a(stdio.o)
                              threads.o (stderr)
/work/glibc-obj/libc.a(strops.o)
                              /work/glibc-obj/libc.a(vasprintf.o) (_IO_str_init_static_internal)
/work/glibc-obj/libc.a(malloc.o)
                              /work/glibc-obj/nptl/libpthread.a(pthread_create.o) (ers_get_recorder)
/work/glibc-obj/libc.a(morecore.o)
                              /work/glibc-obj/libc.a(malloc.o) (__default_morecore)
/work/glibc-obj/libc.a(thread-freeres.o)
                              /work/glibc-obj/nptl/libpthread.a(pthread_create.o) (__libc_thread_freeres)
/work/glibc-obj/libc.a(strchr.o)
                              /work/glibc-obj/libc.a(dcigettext.o) (strchr)
/work/glibc-obj/libc.a(strcmp.o)
                              /work/glibc-obj/libc.a(dcigettext.o) (strcmp)
/work/glibc-obj/libc.a(strcpy.o)
                              /work/glibc-obj/libc.a(assert.o) (strcpy)
/work/glibc-obj/libc.a(strcspn.o)
                              /work/glibc-obj/libc.a(dcigettext.o) (strcspn)
/work/glibc-obj/libc.a(strdup.o)
                              /work/glibc-obj/libc.a(dcigettext.o) (__strdup)
/work/glibc-obj/libc.a(strlen.o)
                              /usr/lib/gcc/x86_64-redhat-linux/8//libgcc_eh.a(unwind-dw2.o) (strlen)
/work/glibc-obj/libc.a(strncmp.o)
                              /work/glibc-obj/libc.a(getenv.o) (strncmp)
/work/glibc-obj/libc.a(strstr.o)
                              /work/glibc-obj/libc.a(dcigettext.o) (strstr)
/work/glibc-obj/libc.a(memchr.o)
                              /work/glibc-obj/libc.a(strstr.o) (memchr)
/work/glibc-obj/libc.a(memcmp.o)
                              /work/glibc-obj/libc.a(strstr.o) (memcmp)
/work/glibc-obj/libc.a(memmove.o)
                              /work/glibc-obj/libc.a(wfileops.o) (memmove)
/work/glibc-obj/libc.a(memset.o)
                              /work/glibc-obj/nptl/libpthread.a(pthread_create.o) (memset)
/work/glibc-obj/libc.a(mempcpy.o)
                              /work/glibc-obj/nptl/libpthread.a(pthread_create.o) (__mempcpy)
/work/glibc-obj/libc.a(stpcpy.o)
                              /work/glibc-obj/libc.a(dcigettext.o) (__stpcpy)
/work/glibc-obj/libc.a(strcasecmp_l.o)
                              /work/glibc-obj/libc.a(localealias.o) (__strcasecmp_l)
/work/glibc-obj/libc.a(memcpy.o)
                              /work/glibc-obj/nptl/libpthread.a(pthread_create.o) (memcpy)
/work/glibc-obj/libc.a(rawmemchr.o)
                              /work/glibc-obj/libc.a(dcigettext.o) (__rawmemchr)
/work/glibc-obj/libc.a(strchrnul.o)
                              /work/glibc-obj/libc.a(libc_fatal.o) (__strchrnul)
/work/glibc-obj/libc.a(strcmp-sse2.o)
                              /work/glibc-obj/libc.a(strcmp.o) (__strcmp_sse2)
/work/glibc-obj/libc.a(strcmp-sse2-unaligned.o)
                              /work/glibc-obj/libc.a(strcmp.o) (__strcmp_sse2_unaligned)
/work/glibc-obj/libc.a(strcmp-ssse3.o)
                              /work/glibc-obj/libc.a(strcmp.o) (__strcmp_ssse3)
/work/glibc-obj/libc.a(strncmp-sse2.o)
                              /work/glibc-obj/libc.a(strncmp.o) (__strncmp_sse2)
/work/glibc-obj/libc.a(strncmp-ssse3.o)
                              /work/glibc-obj/libc.a(strncmp.o) (__strncmp_ssse3)
/work/glibc-obj/libc.a(strncmp-sse4_2.o)
                              /work/glibc-obj/libc.a(strncmp.o) (__strncmp_sse42)
/work/glibc-obj/libc.a(memchr-sse2.o)
                              /work/glibc-obj/libc.a(memchr.o) (__memchr_sse2)
/work/glibc-obj/libc.a(rawmemchr-sse2.o)
                              /work/glibc-obj/libc.a(rawmemchr.o) (__rawmemchr_sse2)
/work/glibc-obj/libc.a(memchr-avx2.o)
                              /work/glibc-obj/libc.a(memchr.o) (__memchr_avx2)
/work/glibc-obj/libc.a(rawmemchr-avx2.o)
                              /work/glibc-obj/libc.a(rawmemchr.o) (__rawmemchr_avx2)
/work/glibc-obj/libc.a(memcmp-sse2.o)
                              /work/glibc-obj/libc.a(memcmp.o) (__memcmp_sse2)
/work/glibc-obj/libc.a(memcmp-avx2-movbe.o)
                              /work/glibc-obj/libc.a(memcmp.o) (__memcmp_avx2_movbe)
/work/glibc-obj/libc.a(memcmp-sse4.o)
                              /work/glibc-obj/libc.a(memcmp.o) (__memcmp_sse4_1)
/work/glibc-obj/libc.a(memcpy-ssse3.o)
                              /work/glibc-obj/libc.a(mempcpy.o) (__mempcpy_ssse3)
/work/glibc-obj/libc.a(memmove-ssse3.o)
                              /work/glibc-obj/libc.a(memmove.o) (__memmove_ssse3)
/work/glibc-obj/libc.a(memcpy-ssse3-back.o)
                              /work/glibc-obj/libc.a(mempcpy.o) (__mempcpy_ssse3_back)
/work/glibc-obj/libc.a(memmove-ssse3-back.o)
                              /work/glibc-obj/libc.a(memmove.o) (__memmove_ssse3_back)
/work/glibc-obj/libc.a(memmove-avx512-no-vzeroupper.o)
                              /work/glibc-obj/libc.a(mempcpy.o) (__mempcpy_avx512_no_vzeroupper)
/work/glibc-obj/libc.a(strcasecmp_l-sse2.o)
                              /work/glibc-obj/libc.a(strcasecmp_l.o) (__strcasecmp_l_sse2)
/work/glibc-obj/libc.a(strcasecmp_l-ssse3.o)
                              /work/glibc-obj/libc.a(strcasecmp_l.o) (__strcasecmp_l_ssse3)
/work/glibc-obj/libc.a(strcasecmp_l-sse4_2.o)
                              /work/glibc-obj/libc.a(strcasecmp_l.o) (__strcasecmp_l_sse42)
/work/glibc-obj/libc.a(strcasecmp_l-avx.o)
                              /work/glibc-obj/libc.a(strcasecmp_l.o) (__strcasecmp_l_avx)
/work/glibc-obj/libc.a(strchr-sse2.o)
                              /work/glibc-obj/libc.a(strchr.o) (__strchr_sse2)
/work/glibc-obj/libc.a(strchrnul-sse2.o)
                              /work/glibc-obj/libc.a(strchrnul.o) (__strchrnul_sse2)
/work/glibc-obj/libc.a(strchr-avx2.o)
                              /work/glibc-obj/libc.a(strchr.o) (__strchr_avx2)
/work/glibc-obj/libc.a(strchrnul-avx2.o)
                              /work/glibc-obj/libc.a(strchrnul.o) (__strchrnul_avx2)
/work/glibc-obj/libc.a(strlen-sse2.o)
                              /work/glibc-obj/libc.a(strlen.o) (__strlen_sse2)
/work/glibc-obj/libc.a(strlen-avx2.o)
                              /work/glibc-obj/libc.a(strlen.o) (__strlen_avx2)
/work/glibc-obj/libc.a(strcpy-sse2.o)
                              /work/glibc-obj/libc.a(strcpy.o) (__strcpy_sse2)
/work/glibc-obj/libc.a(stpcpy-sse2.o)
                              /work/glibc-obj/libc.a(stpcpy.o) (__stpcpy_sse2)
/work/glibc-obj/libc.a(strcpy-ssse3.o)
                              /work/glibc-obj/libc.a(strcpy.o) (__strcpy_ssse3)
/work/glibc-obj/libc.a(stpcpy-ssse3.o)
                              /work/glibc-obj/libc.a(stpcpy.o) (__stpcpy_ssse3)
/work/glibc-obj/libc.a(strcpy-sse2-unaligned.o)
                              /work/glibc-obj/libc.a(strcpy.o) (__strcpy_sse2_unaligned)
/work/glibc-obj/libc.a(stpcpy-sse2-unaligned.o)
                              /work/glibc-obj/libc.a(stpcpy.o) (__stpcpy_sse2_unaligned)
/work/glibc-obj/libc.a(strchr-sse2-no-bsf.o)
                              /work/glibc-obj/libc.a(strchr.o) (__strchr_sse2_no_bsf)
/work/glibc-obj/libc.a(memcmp-ssse3.o)
                              /work/glibc-obj/libc.a(memcmp.o) (__memcmp_ssse3)
/work/glibc-obj/libc.a(strstr-sse2-unaligned.o)
                              /work/glibc-obj/libc.a(strstr.o) (__strstr_sse2_unaligned)
/work/glibc-obj/libc.a(strcspn-sse2.o)
                              /work/glibc-obj/libc.a(strcspn.o) (__strcspn_sse2)
/work/glibc-obj/libc.a(strcspn-c.o)
                              /work/glibc-obj/libc.a(strcspn.o) (__strcspn_sse42)
/work/glibc-obj/libc.a(varshift.o)
                              /work/glibc-obj/libc.a(strcspn-c.o) (___m128i_shift_right)
/work/glibc-obj/libc.a(memset-avx512-no-vzeroupper.o)
                              /work/glibc-obj/libc.a(memset.o) (__memset_avx512_no_vzeroupper)
/work/glibc-obj/libc.a(memmove-sse2-unaligned-erms.o)
                              /work/glibc-obj/libc.a(mempcpy.o) (__mempcpy_sse2_unaligned)
/work/glibc-obj/libc.a(memmove-avx-unaligned-erms.o)
                              /work/glibc-obj/libc.a(mempcpy.o) (__mempcpy_avx_unaligned)
/work/glibc-obj/libc.a(memmove-avx512-unaligned-erms.o)
                              /work/glibc-obj/libc.a(mempcpy.o) (__mempcpy_avx512_unaligned)
/work/glibc-obj/libc.a(memset-sse2-unaligned-erms.o)
                              /work/glibc-obj/libc.a(memset.o) (__memset_sse2_unaligned)
/work/glibc-obj/libc.a(memset-avx2-unaligned-erms.o)
                              /work/glibc-obj/libc.a(memset.o) (__memset_avx2_unaligned)
/work/glibc-obj/libc.a(memset-avx512-unaligned-erms.o)
                              /work/glibc-obj/libc.a(memset.o) (__memset_avx512_unaligned)
/work/glibc-obj/libc.a(cacheinfo.o)
                              /work/glibc-obj/libc.a(memcpy-ssse3-back.o) (__x86_data_cache_size)
/work/glibc-obj/libc.a(strcasecmp_l-nonascii.o)
                              /work/glibc-obj/libc.a(strcasecmp_l-sse2.o) (__strcasecmp_l_nonascii)
/work/glibc-obj/libc.a(wmempcpy.o)
                              /work/glibc-obj/libc.a(wfileops.o) (__wmempcpy)
/work/glibc-obj/libc.a(mbsrtowcs.o)
                              /work/glibc-obj/libc.a(fxprintf.o) (__mbsrtowcs)
/work/glibc-obj/libc.a(wcsmbsload.o)
                              /work/glibc-obj/libc.a(fileops.o) (__wcsmbs_named_conv)
/work/glibc-obj/libc.a(mbsrtowcs_l.o)
                              /work/glibc-obj/libc.a(mbsrtowcs.o) (__mbsrtowcs_l)
/work/glibc-obj/libc.a(gettimeofday.o)
                              /work/glibc-obj/nptl/libpthread.a(lowlevellock.o) (__gettimeofday)
/work/glibc-obj/libc.a(_exit.o)
                              /work/glibc-obj/libc.a(abort.o) (_exit)
/work/glibc-obj/libc.a(getpid.o)
                              /work/glibc-obj/nptl/libpthread.a(pthread_create.o) (__getpid)
/work/glibc-obj/libc.a(sysconf.o)
                              /work/glibc-obj/libc.a(msort.o) (__sysconf)
/work/glibc-obj/libc.a(sched_getp.o)
                              /work/glibc-obj/nptl/libpthread.a(tpp.o) (__sched_getparam)
/work/glibc-obj/libc.a(sched_sets.o)
                              /work/glibc-obj/nptl/libpthread.a(tpp.o) (__sched_setscheduler)
/work/glibc-obj/libc.a(sched_gets.o)
                              /work/glibc-obj/nptl/libpthread.a(tpp.o) (__sched_getscheduler)
/work/glibc-obj/libc.a(sched_yield.o)
                              /work/glibc-obj/libc.a(genops.o) (__sched_yield)
/work/glibc-obj/libc.a(sched_primax.o)
                              /work/glibc-obj/nptl/libpthread.a(tpp.o) (__sched_get_priority_max)
/work/glibc-obj/libc.a(sched_primin.o)
                              /work/glibc-obj/nptl/libpthread.a(tpp.o) (__sched_get_priority_min)
/work/glibc-obj/libc.a(get_child_max.o)
                              /work/glibc-obj/libc.a(sysconf.o) (__get_child_max)
/work/glibc-obj/libc.a(environ.o)
                              /work/glibc-obj/libc.a(libc-start.o) (__environ)
/work/glibc-obj/libc.a(xstat.o)
                              /work/glibc-obj/libc.a(sysconf.o) (__xstat64)
/work/glibc-obj/libc.a(fxstat.o)
                              /work/glibc-obj/libc.a(check_fds.o) (__fxstat64)
/work/glibc-obj/libc.a(open64.o)
                              /work/glibc-obj/libc.a(fileops.o) (__open)
/work/glibc-obj/libc.a(read.o)
                              /work/glibc-obj/libc.a(fileops.o) (__read)
/work/glibc-obj/libc.a(write.o)
                              /work/glibc-obj/libc.a(assert.o) (__libc_write)
/work/glibc-obj/libc.a(lseek64.o)
                              /work/glibc-obj/libc.a(fileops.o) (__lseek64)
/work/glibc-obj/libc.a(fcntl.o)
                              /work/glibc-obj/libc.a(check_fds.o) (__libc_fcntl)
/work/glibc-obj/libc.a(close.o)
                              /work/glibc-obj/libc.a(loadmsgcat.o) (__close_nocancel)
/work/glibc-obj/libc.a(getcwd.o)
                              /work/glibc-obj/libc.a(dcigettext.o) (__getcwd)
/work/glibc-obj/libc.a(getrlimit64.o)
                              /work/glibc-obj/nptl/libpthread.a(nptl-init.o) (__getrlimit)
/work/glibc-obj/libc.a(sbrk.o)
                              /work/glibc-obj/libc.a(libc-tls.o) (__sbrk)
/work/glibc-obj/libc.a(getpagesize.o)
                              /work/glibc-obj/nptl/libpthread.a(pthread_create.o) (__getpagesize)
/work/glibc-obj/libc.a(getdtsz.o)
                              /work/glibc-obj/libc.a(sysconf.o) (__getdtablesize)
/work/glibc-obj/libc.a(mmap64.o)
                              /work/glibc-obj/libc.a(fileops.o) (__mmap64)
/work/glibc-obj/libc.a(munmap.o)
                              /work/glibc-obj/nptl/libpthread.a(pthread_create.o) (__munmap)
/work/glibc-obj/libc.a(mprotect.o)
                              /work/glibc-obj/nptl/libpthread.a(pthread_create.o) (__mprotect)
/work/glibc-obj/libc.a(madvise.o)
                              /work/glibc-obj/nptl/libpthread.a(pthread_create.o) (__madvise)
/work/glibc-obj/libc.a(tsearch.o)
                              /work/glibc-obj/libc.a(dcigettext.o) (__tsearch)
/work/glibc-obj/libc.a(getsysstats.o)
                              /work/glibc-obj/libc.a(malloc.o) (__get_nprocs)
/work/glibc-obj/libc.a(getclktck.o)
                              /work/glibc-obj/libc.a(sysconf.o) (__getclktck)
/work/glibc-obj/libc.a(init-misc.o)
                              /work/glibc-obj/libc.a(assert.o) (__progname)
/work/glibc-obj/libc.a(clone.o)
                              /work/glibc-obj/nptl/libpthread.a(pthread_create.o) (__clone)
/work/glibc-obj/libc.a(mremap.o)
                              /work/glibc-obj/libc.a(fileops.o) (__mremap)
/work/glibc-obj/libc.a(sysinfo.o)
                              /work/glibc-obj/libc.a(getsysstats.o) (__sysinfo)
/work/glibc-obj/libc.a(alloca_cutoff.o)
                              /work/glibc-obj/nptl/libpthread.a(pthread_create.o) (__libc_alloca_cutoff)
/work/glibc-obj/libc.a(libc-cancellation.o)
                              /work/glibc-obj/libc.a(open64.o) (__libc_enable_asynccancel)
/work/glibc-obj/libc.a(libc_pthread_init.o)
                              /work/glibc-obj/nptl/libpthread.a(nptl-init.o) (__libc_pthread_init)
/work/glibc-obj/libc.a(libc_multiple_threads.o)
                              /work/glibc-obj/libc.a(dcigettext.o) (__libc_multiple_threads)
/work/glibc-obj/libc.a(register-atfork.o)
                              /work/glibc-obj/libc.a(libc_pthread_init.o) (__register_atfork)
/work/glibc-obj/libc.a(chk_fail.o)
                              /work/glibc-obj/libc.a(memcpy-ssse3.o) (__chk_fail)
/work/glibc-obj/libc.a(fortify_fail.o)
                              /work/glibc-obj/libc.a(chk_fail.o) (__fortify_fail)
/work/glibc-obj/libc.a(res_libc.o)
                              /work/glibc-obj/nptl/libpthread.a(pthread_create.o) (__resp)
/work/glibc-obj/libc.a(res_randomid.o)
                              /work/glibc-obj/libc.a(res_libc.o) (__res_randomid)
/work/glibc-obj/libc.a(res-close.o)
                              /work/glibc-obj/libc.a(res_libc.o) (__res_iclose)
/work/glibc-obj/libc.a(resolv_context.o)
                              /work/glibc-obj/libc.a(res-close.o) (__resolv_context_freeres)
/work/glibc-obj/libc.a(resolv_conf.o)
                              /work/glibc-obj/libc.a(resolv_context.o) (__resolv_conf_get_current)
/work/glibc-obj/libc.a(dl-debug.o)
                              /work/glibc-obj/libc.a(libc-start.o) (_dl_debug_initialize)
/work/glibc-obj/libc.a(dl-tls.o)
                              /work/glibc-obj/nptl/libpthread.a(nptl-init.o) (_dl_get_tls_static_info)
/work/glibc-obj/libc.a(dl-execstack.o)
                              /work/glibc-obj/nptl/libpthread.a(pthread_create.o) (_dl_make_stack_executable)
/work/glibc-obj/libc.a(dl-tunables.o)
                              /work/glibc-obj/libc.a(libc-start.o) (__tunables_init)
/work/glibc-obj/libc.a(dl-support.o)
                              /work/glibc-obj/libc.a(libc-start.o) (_dl_aux_init)
/work/glibc-obj/libc.a(dl-iteratephdr.o)
                              /usr/lib/gcc/x86_64-redhat-linux/8//libgcc_eh.a(unwind-dw2-fde-dip.o) (dl_iterate_phdr)
/work/glibc-obj/libc.a(enbl-secure.o)
                              /work/glibc-obj/libc.a(libc-start.o) (__libc_init_secure)
/work/glibc-obj/libc.a(dl-profstub.o)
                              /work/glibc-obj/libc.a(mbsrtowcs_l.o) (_dl_mcount_wrapper_check)
/work/glibc-obj/libc.a(dl-sysdep.o)
                              /work/glibc-obj/libc.a(libc-start.o) (_dl_tunable_set_hwcaps)
/work/glibc-obj/libc.a(dl-error.o)
                              /work/glibc-obj/libc.a(dl-tls.o) (_dl_signal_error)
/work/glibc-obj/libc.a(init-first.o)
                              /work/glibc-obj/libc.a(libc-start.o) (__libc_init_first)
/work/glibc-obj/libc.a(sysdep.o)
                              /work/glibc-obj/libc.a(sched_getp.o) (__syscall_error)
/work/glibc-obj/libc.a(gconv_open.o)
                              /work/glibc-obj/libc.a(dcigettext.o) (__gconv_open)
/work/glibc-obj/libc.a(gconv.o)
                              /work/glibc-obj/libc.a(dcigettext.o) (__gconv)
/work/glibc-obj/libc.a(gconv_close.o)
                              /work/glibc-obj/libc.a(loadmsgcat.o) (__gconv_close)
/work/glibc-obj/libc.a(gconv_db.o)
                              /work/glibc-obj/libc.a(iofclose.o) (__gconv_release_step)
/work/glibc-obj/libc.a(gconv_conf.o)
                              /work/glibc-obj/libc.a(gconv_db.o) (__gconv_read_conf)
/work/glibc-obj/libc.a(gconv_builtin.o)
                              /work/glibc-obj/libc.a(gconv_db.o) (__gconv_get_builtin_trans)
/work/glibc-obj/libc.a(gconv_simple.o)
                              /work/glibc-obj/libc.a(wcsmbsload.o) (__gconv_btwoc_ascii)
/work/glibc-obj/libc.a(gconv_trans.o)
                              /work/glibc-obj/libc.a(gconv_simple.o) (__gconv_transliterate)
/work/glibc-obj/libc.a(gconv_cache.o)
                              /work/glibc-obj/libc.a(gconv_conf.o) (__gconv_load_cache)
/work/glibc-obj/libc.a(gconv_dl.o)
                              /work/glibc-obj/libc.a(gconv_db.o) (__gconv_find_shlib)
/work/glibc-obj/libc.a(setlocale.o)
                              /work/glibc-obj/libc.a(dcigettext.o) (_nl_category_name_idxs)
/work/glibc-obj/libc.a(findlocale.o)
                              /work/glibc-obj/libc.a(setlocale.o) (_nl_find_locale)
/work/glibc-obj/libc.a(loadlocale.o)
                              /work/glibc-obj/libc.a(findlocale.o) (_nl_load_locale)
/work/glibc-obj/libc.a(loadarchive.o)
                              /work/glibc-obj/libc.a(findlocale.o) (_nl_load_locale_from_archive)
/work/glibc-obj/libc.a(lc-ctype.o)
                              /work/glibc-obj/libc.a(ctype-info.o) (_nl_current_LC_CTYPE)
/work/glibc-obj/libc.a(C-ctype.o)
                              /work/glibc-obj/libc.a(wcsmbsload.o) (_nl_C_LC_CTYPE)
/work/glibc-obj/libc.a(SYS_libc.o)
                              /work/glibc-obj/libc.a(assert.o) (_libc_intl_domainname)
/work/glibc-obj/libc.a(C_name.o)
                              /work/glibc-obj/libc.a(C-ctype.o) (_nl_C_codeset)
/work/glibc-obj/libc.a(xlocale.o)
                              /work/glibc-obj/libc.a(dcigettext.o) (_nl_C_locobj)
/work/glibc-obj/libc.a(localename.o)
                              /work/glibc-obj/libc.a(dcigettext.o) (__current_locale_name)
/work/glibc-obj/libc.a(global-locale.o)
                              /work/glibc-obj/libc.a(setlocale.o) (_nl_global_locale)
/work/glibc-obj/libc.a(setfpucw.o)
                              /work/glibc-obj/libc.a(init-first.o) (__setfpucw)
/work/glibc-obj/libc.a(fpu_control.o)
                              /work/glibc-obj/libc.a(init-first.o) (__fpu_control)
/work/glibc-obj/libc.a(setjmp.o)
                              /work/glibc-obj/libc.a(bsd-_setjmp.o) (__sigsetjmp)
/work/glibc-obj/libc.a(sigjmp.o)
                              /work/glibc-obj/libc.a(setjmp.o) (__sigjmp_save)
/work/glibc-obj/libc.a(qsort.o)
                              /work/glibc-obj/libc.a(msort.o) (_quicksort)
/work/glibc-obj/libc.a(setenv.o)
                              /work/glibc-obj/libc.a(dl-support.o) (__unsetenv)
/work/glibc-obj/libc.a(secure-getenv.o)
                              /work/glibc-obj/libc.a(libc_fatal.o) (__libc_secure_getenv)
/work/glibc-obj/libc.a(strtol.o)
                              /work/glibc-obj/libc.a(sysconf.o) (strtol)
/work/glibc-obj/libc.a(strtol_l.o)
                              /work/glibc-obj/libc.a(strtol.o) (____strtol_l_internal)
/work/glibc-obj/libc.a(vfprintf.o)
                              /work/glibc-obj/libc.a(fxprintf.o) (_IO_vfprintf)
/work/glibc-obj/libc.a(printf_fp.o)
                              /work/glibc-obj/libc.a(vfprintf.o) (__printf_fp)
/work/glibc-obj/libc.a(reg-printf.o)
                              /work/glibc-obj/libc.a(vfprintf.o) (__printf_function_table)
/work/glibc-obj/libc.a(printf_fphex.o)
                              /work/glibc-obj/libc.a(vfprintf.o) (__printf_fphex)
/work/glibc-obj/libc.a(reg-modifier.o)
                              /work/glibc-obj/libc.a(vfprintf.o) (__printf_modifier_table)
/work/glibc-obj/libc.a(reg-type.o)
                              /work/glibc-obj/libc.a(vfprintf.o) (__printf_va_arg_table)
/work/glibc-obj/libc.a(vfwprintf.o)
                              /work/glibc-obj/libc.a(fxprintf.o) (_IO_vfwprintf)
/work/glibc-obj/libc.a(funlockfile.o)
                              /work/glibc-obj/libc.a(vfprintf.o) (_IO_funlockfile)
/work/glibc-obj/libc.a(printf-parsemb.o)
                              /work/glibc-obj/libc.a(vfprintf.o) (__parse_one_specmb)
/work/glibc-obj/libc.a(printf-parsewc.o)
                              /work/glibc-obj/libc.a(vfwprintf.o) (__parse_one_specwc)
/work/glibc-obj/libc.a(filedoalloc.o)
                              /work/glibc-obj/libc.a(fileops.o) (_IO_file_doallocate)
/work/glibc-obj/libc.a(iofputs.o)
                              /work/glibc-obj/libc.a(malloc.o) (_IO_fputs)
/work/glibc-obj/libc.a(wfiledoalloc.o)
                              /work/glibc-obj/libc.a(wfileops.o) (_IO_wfile_doallocate)
/work/glibc-obj/libc.a(iogetdelim.o)
                              /work/glibc-obj/libc.a(gconv_conf.o) (_IO_getdelim)
/work/glibc-obj/libc.a(iogetline.o)
                              /work/glibc-obj/libc.a(iofgets_u.o) (_IO_getline)
/work/glibc-obj/libc.a(iopadn.o)
                              /work/glibc-obj/libc.a(vfprintf.o) (_IO_padn)
/work/glibc-obj/libc.a(iowpadn.o)
                              /work/glibc-obj/libc.a(printf_fp.o) (_IO_wpadn)
/work/glibc-obj/libc.a(wgenops.o)
                              /work/glibc-obj/libc.a(fileops.o) (_IO_wsetb)
/work/glibc-obj/libc.a(iofwide.o)
                              /work/glibc-obj/libc.a(vfwprintf.o) (_IO_fwide)
/work/glibc-obj/libc.a(scratch_buffer_grow_preserve.o)
                              /work/glibc-obj/libc.a(vfprintf.o) (__libc_scratch_buffer_grow_preserve)
/work/glibc-obj/libc.a(scratch_buffer_set_array_size.o)
                              /work/glibc-obj/libc.a(vfprintf.o) (__libc_scratch_buffer_set_array_size)
/work/glibc-obj/libc.a(dynarray_at_failure.o)
                              /work/glibc-obj/libc.a(resolv_conf.o) (__libc_dynarray_at_failure)
/work/glibc-obj/libc.a(dynarray_emplace_enlarge.o)
                              /work/glibc-obj/libc.a(resolv_conf.o) (__libc_dynarray_emplace_enlarge)
/work/glibc-obj/libc.a(alloc_buffer_alloc_array.o)
                              /work/glibc-obj/libc.a(resolv_conf.o) (__libc_alloc_buffer_alloc_array)
/work/glibc-obj/libc.a(alloc_buffer_allocate.o)
                              /work/glibc-obj/libc.a(resolv_conf.o) (__libc_alloc_buffer_allocate)
/work/glibc-obj/libc.a(alloc_buffer_copy_string.o)
                              /work/glibc-obj/libc.a(resolv_conf.o) (__libc_alloc_buffer_copy_string)
/work/glibc-obj/libc.a(alloc_buffer_create_failure.o)
                              /work/glibc-obj/libc.a(resolv_conf.o) (__libc_alloc_buffer_create_failure)
/work/glibc-obj/libc.a(strndup.o)
                              /work/glibc-obj/libc.a(findlocale.o) (__strndup)
/work/glibc-obj/libc.a(_strerror.o)
                              /work/glibc-obj/libc.a(dl-error.o) (__strerror_r)
/work/glibc-obj/libc.a(strnlen.o)
                              /work/glibc-obj/libc.a(mbsrtowcs_l.o) (__strnlen)
/work/glibc-obj/libc.a(strrchr.o)
                              /work/glibc-obj/libc.a(init-misc.o) (strrchr)
/work/glibc-obj/libc.a(strtok_r.o)
                              /work/glibc-obj/libc.a(gconv_open.o) (__strtok_r)
/work/glibc-obj/libc.a(memmem.o)
                              /work/glibc-obj/libc.a(findlocale.o) (__memmem)
/work/glibc-obj/libc.a(argz-ctsep.o)
                              /work/glibc-obj/libc.a(setlocale.o) (__argz_create_sep)
/work/glibc-obj/libc.a(argz-addsep.o)
                              /work/glibc-obj/libc.a(setlocale.o) (__argz_add_sep)
/work/glibc-obj/libc.a(strrchr-sse2.o)
                              /work/glibc-obj/libc.a(strrchr.o) (__strrchr_sse2)
/work/glibc-obj/libc.a(strrchr-avx2.o)
                              /work/glibc-obj/libc.a(strrchr.o) (__strrchr_avx2)
/work/glibc-obj/libc.a(strnlen-sse2.o)
                              /work/glibc-obj/libc.a(strnlen.o) (__strnlen_sse2)
/work/glibc-obj/libc.a(strnlen-avx2.o)
                              /work/glibc-obj/libc.a(strnlen.o) (__strnlen_avx2)
/work/glibc-obj/libc.a(wcslen.o)
                              /work/glibc-obj/libc.a(vfwprintf.o) (__wcslen)
/work/glibc-obj/libc.a(wmemcpy.o)
                              /work/glibc-obj/libc.a(printf_fp.o) (__wmemcpy)
/work/glibc-obj/libc.a(wmemmove.o)
                              /work/glibc-obj/libc.a(printf_fp.o) (__wmemmove)
/work/glibc-obj/libc.a(wmemset.o)
                              /work/glibc-obj/libc.a(printf_fp.o) (__wmemset)
/work/glibc-obj/libc.a(btowc.o)
                              /work/glibc-obj/libc.a(vfwprintf.o) (__btowc)
/work/glibc-obj/libc.a(wcrtomb.o)
                              /work/glibc-obj/libc.a(vfprintf.o) (__wcrtomb)
/work/glibc-obj/libc.a(wcsrtombs.o)
                              /work/glibc-obj/libc.a(vfprintf.o) (__wcsrtombs)
/work/glibc-obj/libc.a(wcsnlen.o)
                              /work/glibc-obj/libc.a(vfwprintf.o) (__wcsnlen)
/work/glibc-obj/libc.a(wcschrnul.o)
                              /work/glibc-obj/libc.a(vfwprintf.o) (__wcschrnul)
/work/glibc-obj/libc.a(wcsnlen-sse4_1.o)
                              /work/glibc-obj/libc.a(wcsnlen.o) (__wcsnlen_sse4_1)
/work/glibc-obj/libc.a(wcsnlen-c.o)
                              /work/glibc-obj/libc.a(wcsnlen.o) (__wcsnlen_sse2)
/work/glibc-obj/libc.a(wcslen-sse2.o)
                              /work/glibc-obj/libc.a(wcslen.o) (__wcslen_sse2)
/work/glibc-obj/libc.a(wcslen-avx2.o)
                              /work/glibc-obj/libc.a(wcslen.o) (__wcslen_avx2)
/work/glibc-obj/libc.a(wcsnlen-avx2.o)
                              /work/glibc-obj/libc.a(wcsnlen.o) (__wcsnlen_avx2)
/work/glibc-obj/libc.a(time.o)
                              /work/glibc-obj/libc.a(getsysstats.o) (time)
/work/glibc-obj/libc.a(opendir.o)
                              /work/glibc-obj/libc.a(getsysstats.o) (__opendir)
/work/glibc-obj/libc.a(closedir.o)
                              /work/glibc-obj/libc.a(getcwd.o) (__closedir)
/work/glibc-obj/libc.a(readdir.o)
                              /work/glibc-obj/libc.a(getcwd.o) (__readdir)
/work/glibc-obj/libc.a(rewinddir.o)
                              /work/glibc-obj/libc.a(getcwd.o) (__rewinddir)
/work/glibc-obj/libc.a(getdents.o)
                              /work/glibc-obj/libc.a(readdir.o) (__getdents)
/work/glibc-obj/libc.a(fdopendir.o)
                              /work/glibc-obj/libc.a(getcwd.o) (__fdopendir)
/work/glibc-obj/libc.a(uname.o)
                              /work/glibc-obj/libc.a(dl-sysdep.o) (__uname)
/work/glibc-obj/libc.a(getuid.o)
                              /work/glibc-obj/libc.a(enbl-secure.o) (__getuid)
/work/glibc-obj/libc.a(geteuid.o)
                              /work/glibc-obj/libc.a(enbl-secure.o) (__geteuid)
/work/glibc-obj/libc.a(getgid.o)
                              /work/glibc-obj/libc.a(enbl-secure.o) (__getgid)
/work/glibc-obj/libc.a(getegid.o)
                              /work/glibc-obj/libc.a(enbl-secure.o) (__getegid)
/work/glibc-obj/libc.a(lxstat.o)
                              /work/glibc-obj/libc.a(getcwd.o) (__lxstat64)
/work/glibc-obj/libc.a(fxstatat.o)
                              /work/glibc-obj/libc.a(getcwd.o) (__fxstatat64)
/work/glibc-obj/libc.a(openat64.o)
                              /work/glibc-obj/libc.a(getcwd.o) (__openat64_nocancel)
/work/glibc-obj/libc.a(isatty.o)
                              /work/glibc-obj/libc.a(filedoalloc.o) (__isatty)
/work/glibc-obj/libc.a(tcgetattr.o)
                              /work/glibc-obj/libc.a(isatty.o) (__tcgetattr)
/work/glibc-obj/libc.a(brk.o)
                              /work/glibc-obj/libc.a(sbrk.o) (__brk)
/work/glibc-obj/libc.a(wctrans.o)
                              /work/glibc-obj/libc.a(vfprintf.o) (__wctrans)
/work/glibc-obj/libc.a(towctrans.o)
                              /work/glibc-obj/libc.a(vfprintf.o) (__towctrans)
/work/glibc-obj/libc.a(readonly-area.o)
                              /work/glibc-obj/libc.a(vfprintf.o) (__readonly_area)
/work/glibc-obj/libc.a(res_init.o)
                              /work/glibc-obj/libc.a(resolv_conf.o) (__resolv_conf_load)
/work/glibc-obj/libc.a(res_hconf.o)
                              /work/glibc-obj/libc.a(res_init.o) (_res_hconf_init)
/work/glibc-obj/libc.a(dl-load.o)
                              /work/glibc-obj/libc.a(dl-execstack.o) (__stack_prot)
/work/glibc-obj/libc.a(dl-lookup.o)
                              /work/glibc-obj/libc.a(dl-support.o) (_dl_setup_hash)
/work/glibc-obj/libc.a(dl-object.o)
                              /work/glibc-obj/libc.a(dl-support.o) (_dl_add_to_namespace_list)
/work/glibc-obj/libc.a(dl-reloc.o)
                              /work/glibc-obj/libc.a(dl-support.o) (_dl_nothread_init_static_tls)
/work/glibc-obj/libc.a(dl-hwcaps.o)
                              /work/glibc-obj/libc.a(dl-load.o) (_dl_important_hwcaps)
/work/glibc-obj/libc.a(dl-misc.o)
                              /work/glibc-obj/libc.a(dl-support.o) (_dl_debug_printf)
/work/glibc-obj/libc.a(dl-profile.o)
                              /work/glibc-obj/libc.a(dl-profstub.o) (_dl_mcount)
/work/glibc-obj/libc.a(dl-origin.o)
                              /work/glibc-obj/libc.a(dl-support.o) (_dl_get_origin)
/work/glibc-obj/libc.a(dl-scope.o)
                              /work/glibc-obj/libc.a(dl-lookup.o) (_dl_scope_free)
/work/glibc-obj/libc.a(dl-trampoline.o)
                              /work/glibc-obj/libc.a(dl-reloc.o) (_dl_runtime_profile_avx512)
/work/glibc-obj/libc.a(dl-exception.o)
                              /work/glibc-obj/libc.a(dl-error.o) (_dl_exception_create)
/work/glibc-obj/libc.a(dl-cache.o)
                              /work/glibc-obj/libc.a(dl-load.o) (_dl_load_cache_lookup)
/work/glibc-obj/libc.a(dl-tlsdesc.o)
                              /work/glibc-obj/libc.a(dl-reloc.o) (_dl_tlsdesc_return)
/work/glibc-obj/libc.a(dl-libc.o)
                              /work/glibc-obj/libc.a(gconv_dl.o) (__libc_dlsym)
/work/glibc-obj/libc.a(lc-monetary.o)
                              /work/glibc-obj/libc.a(printf_fphex.o) (_nl_current_LC_MONETARY)
/work/glibc-obj/libc.a(lc-numeric.o)
                              /work/glibc-obj/libc.a(vfprintf.o) (_nl_current_LC_NUMERIC)
/work/glibc-obj/libc.a(C-messages.o)
                              /work/glibc-obj/libc.a(xlocale.o) (_nl_C_LC_MESSAGES)
/work/glibc-obj/libc.a(C-monetary.o)
                              /work/glibc-obj/libc.a(xlocale.o) (_nl_C_LC_MONETARY)
/work/glibc-obj/libc.a(C-numeric.o)
                              /work/glibc-obj/libc.a(xlocale.o) (_nl_C_LC_NUMERIC)
/work/glibc-obj/libc.a(C-time.o)
                              /work/glibc-obj/libc.a(xlocale.o) (_nl_C_LC_TIME)
/work/glibc-obj/libc.a(C-paper.o)
                              /work/glibc-obj/libc.a(xlocale.o) (_nl_C_LC_PAPER)
/work/glibc-obj/libc.a(C-name.o)
                              /work/glibc-obj/libc.a(xlocale.o) (_nl_C_LC_NAME)
/work/glibc-obj/libc.a(C-address.o)
                              /work/glibc-obj/libc.a(xlocale.o) (_nl_C_LC_ADDRESS)
/work/glibc-obj/libc.a(C-telephone.o)
                              /work/glibc-obj/libc.a(xlocale.o) (_nl_C_LC_TELEPHONE)
/work/glibc-obj/libc.a(C-measurement.o)
                              /work/glibc-obj/libc.a(xlocale.o) (_nl_C_LC_MEASUREMENT)
/work/glibc-obj/libc.a(C-identification.o)
                              /work/glibc-obj/libc.a(xlocale.o) (_nl_C_LC_IDENTIFICATION)
/work/glibc-obj/libc.a(C-collate.o)
                              /work/glibc-obj/libc.a(xlocale.o) (_nl_C_LC_COLLATE)
/work/glibc-obj/libc.a(cmp.o)
                              /work/glibc-obj/libc.a(printf_fp.o) (__mpn_cmp)
/work/glibc-obj/libc.a(divrem.o)
                              /work/glibc-obj/libc.a(printf_fp.o) (__mpn_divrem)
/work/glibc-obj/libc.a(lshift.o)
                              /work/glibc-obj/libc.a(printf_fp.o) (__mpn_lshift)
/work/glibc-obj/libc.a(rshift.o)
                              /work/glibc-obj/libc.a(printf_fp.o) (__mpn_rshift)
/work/glibc-obj/libc.a(mul.o)
                              /work/glibc-obj/libc.a(printf_fp.o) (__mpn_mul)
/work/glibc-obj/libc.a(mul_1.o)
                              /work/glibc-obj/libc.a(printf_fp.o) (__mpn_mul_1)
/work/glibc-obj/libc.a(mul_n.o)
                              /work/glibc-obj/libc.a(mul.o) (__mpn_impn_mul_n)
/work/glibc-obj/libc.a(sub_n.o)
                              /work/glibc-obj/libc.a(divrem.o) (__mpn_sub_n)
/work/glibc-obj/libc.a(submul_1.o)
                              /work/glibc-obj/libc.a(divrem.o) (__mpn_submul_1)
/work/glibc-obj/libc.a(dbl2mpn.o)
                              /work/glibc-obj/libc.a(printf_fp.o) (__mpn_extract_double)
/work/glibc-obj/libc.a(ldbl2mpn.o)
                              /work/glibc-obj/libc.a(printf_fp.o) (__mpn_extract_long_double)
/work/glibc-obj/libc.a(float1282mpn.o)
                              /work/glibc-obj/libc.a(printf_fp.o) (__mpn_extract_float128)
/work/glibc-obj/libc.a(fpioconst.o)
                              /work/glibc-obj/libc.a(printf_fp.o) (_fpioconst_pow10)
/work/glibc-obj/libc.a(_itoa.o)
                              /work/glibc-obj/libc.a(vfprintf.o) (_itoa_word)
/work/glibc-obj/libc.a(itoa-digits.o)
                              /work/glibc-obj/libc.a(dl-reloc.o) (_itoa_lower_digits)
/work/glibc-obj/libc.a(itoa-udigits.o)
                              /work/glibc-obj/libc.a(_itoa.o) (_itoa_upper_digits)
/work/glibc-obj/libc.a(itowa-digits.o)
                              /work/glibc-obj/libc.a(printf_fphex.o) (_itowa_upper_digits)
/work/glibc-obj/libc.a(snprintf.o)
                              /work/glibc-obj/libc.a(dynarray_at_failure.o) (__snprintf)
/work/glibc-obj/libc.a(getline.o)
                              /work/glibc-obj/libc.a(res_init.o) (__getline)
/work/glibc-obj/libc.a(errlist.o)
                              /work/glibc-obj/libc.a(_strerror.o) (_sys_errlist_internal)
/work/glibc-obj/libc.a(vsnprintf.o)
                              /work/glibc-obj/libc.a(snprintf.o) (_IO_vsnprintf)
/work/glibc-obj/libc.a(sdlerror.o)
                              /work/glibc-obj/libc.a(dl-libc.o) (__libc_register_dlfcn_hook)
/work/glibc-obj/libc.a(sdladdr.o)
                              /work/glibc-obj/libc.a(sdlerror.o) (__dladdr)
/work/glibc-obj/libc.a(sdladdr1.o)
                              /work/glibc-obj/libc.a(sdlerror.o) (__dladdr1)
/work/glibc-obj/libc.a(sdlinfo.o)
                              /work/glibc-obj/libc.a(sdlerror.o) (__dlinfo)
/work/glibc-obj/libc.a(sdlmopen.o)
                              /work/glibc-obj/libc.a(sdlerror.o) (__dlmopen)
/work/glibc-obj/libc.a(alloc_buffer_copy_bytes.o)
                              /work/glibc-obj/libc.a(alloc_buffer_copy_string.o) (__libc_alloc_buffer_copy_bytes)
/work/glibc-obj/libc.a(strerror.o)
                              /work/glibc-obj/libc.a(sdlerror.o) (strerror)
/work/glibc-obj/libc.a(strpbrk.o)
                              /work/glibc-obj/libc.a(res_init.o) (strpbrk)
/work/glibc-obj/libc.a(strspn.o)
                              /work/glibc-obj/libc.a(strtok_r.o) (strspn)
/work/glibc-obj/libc.a(strcasecmp.o)
                              /work/glibc-obj/libc.a(res_hconf.o) (__strcasecmp)
/work/glibc-obj/libc.a(strncase.o)
                              /work/glibc-obj/libc.a(res_hconf.o) (__strncasecmp)
/work/glibc-obj/libc.a(strsep.o)
                              /work/glibc-obj/libc.a(dl-load.o) (__strsep)
/work/glibc-obj/libc.a(strncase_l-sse2.o)
                              /work/glibc-obj/libc.a(strncase.o) (__strncasecmp_sse2)
/work/glibc-obj/libc.a(strncase_l-ssse3.o)
                              /work/glibc-obj/libc.a(strncase.o) (__strncasecmp_ssse3)
/work/glibc-obj/libc.a(strncase_l-sse4_2.o)
                              /work/glibc-obj/libc.a(strncase.o) (__strncasecmp_sse42)
/work/glibc-obj/libc.a(strncase_l-avx.o)
                              /work/glibc-obj/libc.a(strncase.o) (__strncasecmp_avx)
/work/glibc-obj/libc.a(strpbrk-sse2.o)
                              /work/glibc-obj/libc.a(strpbrk.o) (__strpbrk_sse2)
/work/glibc-obj/libc.a(strspn-sse2.o)
                              /work/glibc-obj/libc.a(strspn.o) (__strspn_sse2)
/work/glibc-obj/libc.a(strpbrk-c.o)
                              /work/glibc-obj/libc.a(strpbrk.o) (__strpbrk_sse42)
/work/glibc-obj/libc.a(strspn-c.o)
                              /work/glibc-obj/libc.a(strspn.o) (__strspn_sse42)
/work/glibc-obj/libc.a(strncase_l-nonascii.o)
                              /work/glibc-obj/libc.a(strncase_l-sse2.o) (__strncasecmp_l_nonascii)
/work/glibc-obj/libc.a(ioctl.o)
                              /work/glibc-obj/libc.a(res_hconf.o) (__ioctl)
/work/glibc-obj/libc.a(gethostname.o)
                              /work/glibc-obj/libc.a(res_init.o) (__gethostname)
/work/glibc-obj/libc.a(socket.o)
                              /work/glibc-obj/libc.a(res_hconf.o) (__socket)
/work/glibc-obj/libc.a(profil.o)
                              /work/glibc-obj/libc.a(dl-profile.o) (__profil)
/work/glibc-obj/libc.a(prof-freq.o)
                              /work/glibc-obj/libc.a(dl-profile.o) (__profile_frequency)
/work/glibc-obj/libc.a(inet_mkadr.o)
                              /work/glibc-obj/libc.a(res_init.o) (__inet_makeaddr)
/work/glibc-obj/libc.a(inet6_scopeid_pton.o)
                              /work/glibc-obj/libc.a(res_init.o) (__inet6_scopeid_pton)
/work/glibc-obj/libc.a(ifreq.o)
                              /work/glibc-obj/libc.a(res_hconf.o) (__ifreq)
/work/glibc-obj/libc.a(inet_addr.o)
                              /work/glibc-obj/libc.a(res_init.o) (__inet_aton)
/work/glibc-obj/libc.a(inet_pton.o)
                              /work/glibc-obj/libc.a(res_init.o) (__inet_pton)
/work/glibc-obj/libc.a(dl-runtime.o)
                              /work/glibc-obj/libc.a(dl-trampoline.o) (_dl_fixup)
/work/glibc-obj/libc.a(dl-open.o)
                              /work/glibc-obj/libc.a(dl-libc.o) (_dl_open)
/work/glibc-obj/libc.a(dl-close.o)
                              /work/glibc-obj/libc.a(dl-open.o) (_dl_close_worker)
/work/glibc-obj/libc.a(dl-sort-maps.o)
                              /work/glibc-obj/libc.a(dl-open.o) (_dl_sort_maps)
/work/glibc-obj/libc.a(tlsdesc.o)
                              /work/glibc-obj/libc.a(dl-tlsdesc.o) (_dl_tlsdesc_resolve_rela_fixup)
/work/glibc-obj/libc.a(dl-addr.o)
                              /work/glibc-obj/libc.a(sdladdr.o) (_dl_addr)
/work/glibc-obj/libc.a(dl-addr-obj.o)
                              /work/glibc-obj/libc.a(dl-open.o) (_dl_addr_inside_object)
/work/glibc-obj/libc.a(add_n.o)
                              /work/glibc-obj/libc.a(divrem.o) (__mpn_add_n)
/work/glibc-obj/libc.a(addmul_1.o)
                              /work/glibc-obj/libc.a(mul.o) (__mpn_addmul_1)
/work/glibc-obj/libc.a(sdlopen.o)
                              /work/glibc-obj/libc.a(sdlerror.o) (__dlopen)
/work/glibc-obj/libc.a(sdlclose.o)
                              /work/glibc-obj/libc.a(sdlerror.o) (__dlclose)
/work/glibc-obj/libc.a(sdlsym.o)
                              /work/glibc-obj/libc.a(sdlerror.o) (__dlsym)
/work/glibc-obj/libc.a(sdlvsym.o)
                              /work/glibc-obj/libc.a(sdlerror.o) (__dlvsym)
/work/glibc-obj/libc.a(setitimer.o)
                              /work/glibc-obj/libc.a(profil.o) (__setitimer)
/work/glibc-obj/libc.a(opensock.o)
                              /work/glibc-obj/libc.a(ifreq.o) (__opensock)
/work/glibc-obj/libc.a(if_index.o)
                              /work/glibc-obj/libc.a(inet6_scopeid_pton.o) (__if_nametoindex)
/work/glibc-obj/libc.a(ifaddrs.o)
                              /work/glibc-obj/libc.a(if_index.o) (__netlink_free_handle)
/work/glibc-obj/libc.a(netlink_assert_response.o)
                              /work/glibc-obj/libc.a(ifaddrs.o) (__netlink_assert_response)
/work/glibc-obj/libc.a(dl-deps.o)
                              /work/glibc-obj/libc.a(dl-open.o) (_dl_map_object_deps)
/work/glibc-obj/libc.a(dl-init.o)
                              /work/glibc-obj/libc.a(dl-open.o) (_dl_init)
/work/glibc-obj/libc.a(dl-version.o)
                              /work/glibc-obj/libc.a(dl-open.o) (_dl_check_map_versions)
/work/glibc-obj/libc.a(dl-sym.o)
                              /work/glibc-obj/libc.a(sdlvsym.o) (_dl_vsym)
/work/glibc-obj/libc.a(strncpy.o)
                              /work/glibc-obj/libc.a(if_index.o) (strncpy)
/work/glibc-obj/libc.a(strncpy-c.o)
                              /work/glibc-obj/libc.a(strncpy.o) (__strncpy_sse2)
/work/glibc-obj/libc.a(strncpy-ssse3.o)
                              /work/glibc-obj/libc.a(strncpy.o) (__strncpy_ssse3)
/work/glibc-obj/libc.a(strncpy-sse2-unaligned.o)
                              /work/glibc-obj/libc.a(strncpy.o) (__strncpy_sse2_unaligned)
/work/glibc-obj/libc.a(access.o)
                              /work/glibc-obj/libc.a(opensock.o) (__access)
/work/glibc-obj/libc.a(bind.o)
                              /work/glibc-obj/libc.a(ifaddrs.o) (__bind)
/work/glibc-obj/libc.a(getsockname.o)
                              /work/glibc-obj/libc.a(ifaddrs.o) (__getsockname)
/work/glibc-obj/libc.a(recvmsg.o)
                              /work/glibc-obj/libc.a(ifaddrs.o) (__recvmsg)
/work/glibc-obj/libc.a(sendto.o)
                              /work/glibc-obj/libc.a(ifaddrs.o) (__sendto)
/usr/lib/gcc/x86_64-redhat-linux/8//libgcc.a(unordtf2.o)
                              /work/glibc-obj/libc.a(printf_fp.o) (__unordtf2)
/usr/lib/gcc/x86_64-redhat-linux/8//libgcc.a(letf2.o)
                              /work/glibc-obj/libc.a(printf_fp.o) (__letf2)
/usr/lib/gcc/x86_64-redhat-linux/8//libgcc.a(sfp-exceptions.o)
                              /usr/lib/gcc/x86_64-redhat-linux/8//libgcc.a(unordtf2.o) (__sfp_handle_exceptions)
/usr/lib/gcc/x86_64-redhat-linux/8//libgcc_eh.a(unwind-c.o)
                              /work/glibc-obj/libc.a(iofclose.o) (__gcc_personality_v0)

Allocating common symbols
Common symbol       size              file

__x86_shared_non_temporal_threshold
                    0x8               /work/glibc-obj/libc.a(cacheinfo.o)
__is_smp            0x4               /work/glibc-obj/nptl/libpthread.a(vars.o)
__libc_argc         0x4               /work/glibc-obj/libc.a(init-first.o)
__static_tls_align_m1
                    0x8               /work/glibc-obj/nptl/libpthread.a(nptl-init.o)
_dl_profile_output  0x8               /work/glibc-obj/libc.a(dl-support.o)
__static_tls_size   0x8               /work/glibc-obj/nptl/libpthread.a(nptl-init.o)
__printf_modifier_table
                    0x8               /work/glibc-obj/libc.a(reg-modifier.o)
__pthread_debug     0x4               /work/glibc-obj/nptl/libpthread.a(pthread_create.o)
__pthread_multiple_threads
                    0x4               /work/glibc-obj/nptl/libpthread.a(vars.o)
_nl_domain_bindings
                    0x8               /work/glibc-obj/libc.a(dcigettext.o)
__gconv_path_envvar
                    0x8               /work/glibc-obj/libc.a(gconv_conf.o)
__libc_multiple_threads_ptr
                    0x8               /work/glibc-obj/nptl/libpthread.a(nptl-init.o)
__gconv_modules_db  0x8               /work/glibc-obj/libc.a(gconv_db.o)
_dl_platformlen     0x8               /work/glibc-obj/libc.a(dl-support.o)
_dl_tls_static_used
                    0x8               /work/glibc-obj/libc.a(libc-tls.o)
_dl_debug_mask      0x4               /work/glibc-obj/libc.a(dl-support.o)
_nl_msg_cat_cntr    0x4               /work/glibc-obj/libc.a(loadmsgcat.o)
__xidcmd            0x8               /work/glibc-obj/nptl/libpthread.a(nptl-init.o)
_dl_wait_lookup_done
                    0x8               /work/glibc-obj/libc.a(dl-support.o)
_dl_profile         0x8               /work/glibc-obj/libc.a(dl-support.o)
__exit_funcs_lock   0x4               /work/glibc-obj/libc.a(cxa_atexit.o)
_dl_cpuclock_offset
                    0x8               /work/glibc-obj/libc.a(dl-support.o)
_dl_tls_static_align
                    0x8               /work/glibc-obj/libc.a(libc-tls.o)
_dl_tls_max_dtv_idx
                    0x8               /work/glibc-obj/libc.a(libc-tls.o)
_dl_static_dtv      0x400             /work/glibc-obj/libc.a(libc-tls.o)
_dl_bind_not        0x4               /work/glibc-obj/libc.a(dl-support.o)
_dl_auxv            0x8               /work/glibc-obj/libc.a(dl-support.o)
__gconv_max_path_elem_len
                    0x8               /work/glibc-obj/libc.a(gconv_conf.o)
__default_pthread_attr
                    0x38              /work/glibc-obj/nptl/libpthread.a(vars.o)
_dl_platform        0x8               /work/glibc-obj/libc.a(dl-support.o)
__libc_enable_secure_decided
                    0x4               /work/glibc-obj/libc.a(enbl-secure.o)
__fork_generation_pointer
                    0x8               /work/glibc-obj/libc.a(libc_pthread_init.o)
_dl_lazy            0x4               /work/glibc-obj/libc.a(dl-support.o)
_res_hconf          0x48              /work/glibc-obj/libc.a(res_hconf.o)
_dl_tls_dtv_slotinfo_list
                    0x8               /work/glibc-obj/libc.a(libc-tls.o)
_dl_sysinfo_map     0x8               /work/glibc-obj/libc.a(dl-support.o)
_dl_inhibit_cache   0x4               /work/glibc-obj/libc.a(dl-support.o)
_dl_tls_dtv_gaps    0x1               /work/glibc-obj/libc.a(libc-tls.o)
_dl_phdr            0x8               /work/glibc-obj/libc.a(dl-support.o)
_dl_scope_free_list
                    0x8               /work/glibc-obj/libc.a(dl-support.o)
_dl_origin_path     0x8               /work/glibc-obj/libc.a(dl-support.o)
_dl_tls_generation  0x8               /work/glibc-obj/libc.a(libc-tls.o)
__gconv_lock        0x4               /work/glibc-obj/libc.a(gconv_db.o)
_dl_clktck          0x4               /work/glibc-obj/libc.a(dl-support.o)
_dl_dynamic_weak    0x4               /work/glibc-obj/libc.a(dl-support.o)
__fork_handlers     0x8               /work/glibc-obj/libc.a(register-atfork.o)
__printf_function_table
                    0x8               /work/glibc-obj/libc.a(reg-printf.o)
_dl_sysinfo_dso     0x8               /work/glibc-obj/libc.a(dl-support.o)
__gconv_path_elem   0x8               /work/glibc-obj/libc.a(gconv_conf.o)
__libc_multiple_threads
                    0x4               /work/glibc-obj/libc.a(libc_multiple_threads.o)
__x86_prefetchw     0x4               /work/glibc-obj/libc.a(cacheinfo.o)
__new_exitfn_called
                    0x8               /work/glibc-obj/libc.a(cxa_atexit.o)
_dl_init_all_dirs   0x8               /work/glibc-obj/libc.a(dl-support.o)
_dl_tls_static_nelem
                    0x8               /work/glibc-obj/libc.a(libc-tls.o)
__fork_generation   0x8               /work/glibc-obj/nptl/libpthread.a(pthread_once.o)
_nl_locale_file_list
                    0x68              /work/glibc-obj/libc.a(findlocale.o)
_dl_verbose         0x4               /work/glibc-obj/libc.a(dl-support.o)
_dl_phnum           0x8               /work/glibc-obj/libc.a(dl-support.o)
_dl_profile_map     0x8               /work/glibc-obj/libc.a(dl-support.o)
_dl_initfirst       0x8               /work/glibc-obj/libc.a(dl-support.o)
__libc_argv         0x8               /work/glibc-obj/libc.a(init-first.o)
_dl_all_dirs        0x8               /work/glibc-obj/libc.a(dl-support.o)
__gconv_alias_db    0x8               /work/glibc-obj/libc.a(gconv_db.o)
_r_debug            0x28              /work/glibc-obj/libc.a(dl-debug.o)
_dl_osversion       0x4               /work/glibc-obj/libc.a(dl-support.o)
_dl_inhibit_rpath   0x8               /work/glibc-obj/libc.a(dl-support.o)
discarding zero address range FDE in /work/glibc-obj/libc.a(clone.o)(.eh_frame).
Local IFUNC function `strcpy' in /work/glibc-obj/libc.a(strcpy.o)
Local IFUNC function `__strnlen' in /work/glibc-obj/libc.a(strnlen.o)
Local IFUNC function `memmove' in /work/glibc-obj/libc.a(memmove.o)
Local IFUNC function `__rawmemchr' in /work/glibc-obj/libc.a(rawmemchr.o)
Local IFUNC function `memcpy' in /work/glibc-obj/libc.a(memcpy.o)
Local IFUNC function `__strncasecmp' in /work/glibc-obj/libc.a(strncase.o)
Local IFUNC function `__wcslen' in /work/glibc-obj/libc.a(wcslen.o)
Local IFUNC function `strrchr' in /work/glibc-obj/libc.a(strrchr.o)
Local IFUNC function `__stpcpy' in /work/glibc-obj/libc.a(stpcpy.o)
Local IFUNC function `__strchrnul' in /work/glibc-obj/libc.a(strchrnul.o)
Local IFUNC function `memchr' in /work/glibc-obj/libc.a(memchr.o)
Local IFUNC function `strstr' in /work/glibc-obj/libc.a(strstr.o)
Local IFUNC function `strncmp' in /work/glibc-obj/libc.a(strncmp.o)
Local IFUNC function `strncpy' in /work/glibc-obj/libc.a(strncpy.o)
Local IFUNC function `memcmp' in /work/glibc-obj/libc.a(memcmp.o)
Local IFUNC function `__strcasecmp_l' in /work/glibc-obj/libc.a(strcasecmp_l.o)
Local IFUNC function `memset' in /work/glibc-obj/libc.a(memset.o)
Local IFUNC function `__wcsnlen' in /work/glibc-obj/libc.a(wcsnlen.o)
Local IFUNC function `strcmp' in /work/glibc-obj/libc.a(strcmp.o)
Local IFUNC function `__wmemset' in /work/glibc-obj/libc.a(wmemset.o)
Local IFUNC function `__mempcpy' in /work/glibc-obj/libc.a(mempcpy.o)
Local IFUNC function `strcspn' in /work/glibc-obj/libc.a(strcspn.o)
Local IFUNC function `__strcasecmp' in /work/glibc-obj/libc.a(strcasecmp.o)
Local IFUNC function `strspn' in /work/glibc-obj/libc.a(strspn.o)
Local IFUNC function `strlen' in /work/glibc-obj/libc.a(strlen.o)
Local IFUNC function `strchr' in /work/glibc-obj/libc.a(strchr.o)
Local IFUNC function `strpbrk' in /work/glibc-obj/libc.a(strpbrk.o)

Discarded input sections

 .note.GNU-stack
                0x0000000000000000        0x0 /work/glibc-obj/csu/crt1.o
 .note.GNU-stack
                0x0000000000000000        0x0 /work/glibc-obj/csu/crti.o
 .note.GNU-stack
                0x0000000000000000        0x0 /usr/lib/gcc/x86_64-redhat-linux/8/crtbeginT.o
 .note.gnu.property
                0x0000000000000000       0x20 /usr/lib/gcc/x86_64-redhat-linux/8/crtbeginT.o
 .group         0x0000000000000000        0x8 threads.o
 .group         0x0000000000000000        0x8 threads.o
 .group         0x0000000000000000        0x8 threads.o
 .group         0x0000000000000000        0x8 threads.o
 .group         0x0000000000000000        0x8 threads.o
 .group         0x0000000000000000        0x8 threads.o
 .group         0x0000000000000000        0x8 threads.o
 .group         0x0000000000000000        0x8 threads.o
 .group         0x0000000000000000        0x8 threads.o
 .group         0x0000000000000000        0x8 threads.o
 .group         0x0000000000000000        0x8 threads.o
 .group         0x0000000000000000        0x8 threads.o
 .group         0x0000000000000000        0x8 threads.o
 .group         0x0000000000000000        0x8 threads.o
 .group         0x0000000000000000        0x8 threads.o
 .group         0x0000000000000000        0x8 threads.o
 .group         0x0000000000000000        0x8 threads.o
 .group         0x0000000000000000        0x8 threads.o
 .group         0x0000000000000000        0x8 threads.o
 .group         0x0000000000000000        0x8 threads.o
 .group         0x0000000000000000        0x8 threads.o
 .group         0x0000000000000000        0x8 threads.o
 .group         0x0000000000000000        0x8 threads.o
 .group         0x0000000000000000        0x8 threads.o
 .group         0x0000000000000000        0x8 threads.o
 .group         0x0000000000000000        0x8 threads.o
 .group         0x0000000000000000        0x8 threads.o
 .group         0x0000000000000000        0x8 threads.o
 .group         0x0000000000000000        0x8 threads.o
 .group         0x0000000000000000        0x8 threads.o
 .group         0x0000000000000000        0x8 threads.o
 .group         0x0000000000000000        0x8 threads.o
 .group         0x0000000000000000        0x8 threads.o
 .group         0x0000000000000000        0x8 threads.o
 .group         0x0000000000000000        0x8 threads.o
 .group         0x0000000000000000        0x8 threads.o
 .group         0x0000000000000000        0x8 threads.o
 .group         0x0000000000000000        0x8 threads.o
 .group         0x0000000000000000        0x8 threads.o
 .group         0x0000000000000000        0x8 threads.o
 .group         0x0000000000000000        0x8 threads.o
 .group         0x0000000000000000        0x8 threads.o
 .group         0x0000000000000000        0x8 threads.o
 .group         0x0000000000000000        0x8 threads.o
 .group         0x0000000000000000        0x8 threads.o
 .group         0x0000000000000000        0x8 threads.o
 .group         0x0000000000000000        0x8 threads.o
 .group         0x0000000000000000        0x8 threads.o
 .group         0x0000000000000000        0x8 threads.o
 .group         0x0000000000000000        0x8 threads.o
 .group         0x0000000000000000        0x8 threads.o
 .group         0x0000000000000000        0x8 threads.o
 .group         0x0000000000000000        0x8 threads.o
 .group         0x0000000000000000        0x8 threads.o
 .group         0x0000000000000000        0x8 threads.o
 .group         0x0000000000000000        0x8 threads.o
 .group         0x0000000000000000        0x8 threads.o
 .group         0x0000000000000000        0x8 threads.o
 .note.GNU-stack
                0x0000000000000000        0x0 threads.o
 .note.GNU-stack
                0x0000000000000000        0x0 /work/glibc-obj/nptl/libpthread.a(pthread_create.o)
 .note.GNU-stack
                0x0000000000000000        0x0 /work/glibc-obj/nptl/libpthread.a(pthread_join.o)
 .note.GNU-stack
                0x0000000000000000        0x0 /work/glibc-obj/nptl/libpthread.a(pthread_join_common.o)
 .note.GNU-stack
                0x0000000000000000        0x0 /work/glibc-obj/nptl/libpthread.a(pthread_mutex_lock.o)
 .note.GNU-stack
                0x0000000000000000        0x0 /work/glibc-obj/nptl/libpthread.a(pthread_mutex_trylock.o)
 .note.GNU-stack
                0x0000000000000000        0x0 /work/glibc-obj/nptl/libpthread.a(pthread_mutex_unlock.o)
 .note.GNU-stack
                0x0000000000000000        0x0 /work/glibc-obj/nptl/libpthread.a(pthread_key_create.o)
 .note.GNU-stack
                0x0000000000000000        0x0 /work/glibc-obj/nptl/libpthread.a(pthread_key_delete.o)
 .note.GNU-stack
                0x0000000000000000        0x0 /work/glibc-obj/nptl/libpthread.a(pthread_getspecific.o)
 .note.GNU-stack
                0x0000000000000000        0x0 /work/glibc-obj/nptl/libpthread.a(pthread_setspecific.o)
 .note.GNU-stack
                0x0000000000000000        0x0 /work/glibc-obj/nptl/libpthread.a(pthread_cancel.o)
 .note.GNU-stack
                0x0000000000000000        0x0 /work/glibc-obj/nptl/libpthread.a(pthread_once.o)
 .note.GNU-stack
                0x0000000000000000        0x0 /work/glibc-obj/nptl/libpthread.a(cleanup_compat.o)
 .note.GNU-stack
                0x0000000000000000        0x0 /work/glibc-obj/nptl/libpthread.a(cancellation.o)
 .note.GNU-stack
                0x0000000000000000        0x0 /work/glibc-obj/nptl/libpthread.a(lowlevellock.o)
 .note.GNU-stack
                0x0000000000000000        0x0 /work/glibc-obj/nptl/libpthread.a(pause.o)
 .note.GNU-stack
                0x0000000000000000        0x0 /work/glibc-obj/nptl/libpthread.a(tpp.o)
 .note.GNU-stack
                0x0000000000000000        0x0 /work/glibc-obj/nptl/libpthread.a(elision-lock.o)
 .note.GNU-stack
                0x0000000000000000        0x0 /work/glibc-obj/nptl/libpthread.a(elision-unlock.o)
 .note.GNU-stack
                0x0000000000000000        0x0 /work/glibc-obj/nptl/libpthread.a(elision-trylock.o)
 .note.GNU-stack
                0x0000000000000000        0x0 /work/glibc-obj/nptl/libpthread.a(nptl-init.o)
 .note.GNU-stack
                0x0000000000000000        0x0 /work/glibc-obj/nptl/libpthread.a(vars.o)
 .note.GNU-stack
                0x0000000000000000        0x0 /work/glibc-obj/nptl/libpthread.a(events.o)
 .note.GNU-stack
                0x0000000000000000        0x0 /work/glibc-obj/nptl/libpthread.a(unwind.o)
 .note.GNU-stack
                0x0000000000000000        0x0 /work/glibc-obj/nptl/libpthread.a(sigaction.o)
 .group         0x0000000000000000        0x8 /usr/lib/gcc/x86_64-redhat-linux/8//libgcc_eh.a(unwind-dw2.o)
 .note.GNU-stack
                0x0000000000000000        0x0 /usr/lib/gcc/x86_64-redhat-linux/8//libgcc_eh.a(unwind-dw2.o)
 .note.gnu.property
                0x0000000000000000       0x20 /usr/lib/gcc/x86_64-redhat-linux/8//libgcc_eh.a(unwind-dw2.o)
 .note.GNU-stack
                0x0000000000000000        0x0 /usr/lib/gcc/x86_64-redhat-linux/8//libgcc_eh.a(unwind-dw2-fde-dip.o)
 .note.gnu.property
                0x0000000000000000       0x20 /usr/lib/gcc/x86_64-redhat-linux/8//libgcc_eh.a(unwind-dw2-fde-dip.o)
 .note.GNU-stack
                0x0000000000000000        0x0 /work/glibc-obj/libc.a(libc-start.o)
 .note.GNU-stack
                0x0000000000000000        0x0 /work/glibc-obj/libc.a(check_fds.o)
 .note.GNU-stack
                0x0000000000000000        0x0 /work/glibc-obj/libc.a(libc-tls.o)
 .note.GNU-stack
                0x0000000000000000        0x0 /work/glibc-obj/libc.a(elf-init.o)
 .note.GNU-stack
                0x0000000000000000        0x0 /work/glibc-obj/libc.a(errno.o)
 .note.GNU-stack
                0x0000000000000000        0x0 /work/glibc-obj/libc.a(assert.o)
 .note.GNU-stack
                0x0000000000000000        0x0 /work/glibc-obj/libc.a(ctype-info.o)
 .note.GNU-stack
                0x0000000000000000        0x0 /work/glibc-obj/libc.a(dcgettext.o)
 .note.GNU-stack
                0x0000000000000000        0x0 /work/glibc-obj/libc.a(dcigettext.o)
 .note.GNU-stack
                0x0000000000000000        0x0 /work/glibc-obj/libc.a(finddomain.o)
 .note.GNU-stack
                0x0000000000000000        0x0 /work/glibc-obj/libc.a(loadmsgcat.o)
 .note.GNU-stack
                0x0000000000000000        0x0 /work/glibc-obj/libc.a(localealias.o)
 .note.GNU-stack
                0x0000000000000000        0x0 /work/glibc-obj/libc.a(l10nflist.o)
 .note.GNU-stack
                0x0000000000000000        0x0 /work/glibc-obj/libc.a(explodename.o)
 .note.GNU-stack
                0x0000000000000000        0x0 /work/glibc-obj/libc.a(plural.o)
 .note.GNU-stack
                0x0000000000000000        0x0 /work/glibc-obj/libc.a(plural-exp.o)
 .note.GNU-stack
                0x0000000000000000        0x0 /work/glibc-obj/libc.a(hash-string.o)
 .note.GNU-stack
                0x0000000000000000        0x0 /work/glibc-obj/libc.a(bsd-_setjmp.o)
 .note.GNU-stack
                0x0000000000000000        0x0 /work/glibc-obj/libc.a(longjmp.o)
 .note.GNU-stack
                0x0000000000000000        0x0 /work/glibc-obj/libc.a(__longjmp.o)
 .note.GNU-stack
                0x0000000000000000        0x0 /work/glibc-obj/libc.a(jmp-unwind.o)
 .note.GNU-stack
                0x0000000000000000        0x0 /work/glibc-obj/libc.a(raise.o)
 .note.GNU-stack
                0x0000000000000000        0x0 /work/glibc-obj/libc.a(sigprocmask.o)
 .note.GNU-stack
                0x0000000000000000        0x0 /work/glibc-obj/libc.a(abort.o)
 .note.GNU-stack
                0x0000000000000000        0x0 /work/glibc-obj/libc.a(msort.o)
 .note.GNU-stack
                0x0000000000000000        0x0 /work/glibc-obj/libc.a(getenv.o)
 .note.GNU-stack
                0x0000000000000000        0x0 /work/glibc-obj/libc.a(exit.o)
 .note.GNU-stack
                0x0000000000000000        0x0 /work/glibc-obj/libc.a(cxa_atexit.o)
 .note.GNU-stack
                0x0000000000000000        0x0 /work/glibc-obj/libc.a(strtoul.o)
 .note.GNU-stack
                0x0000000000000000        0x0 /work/glibc-obj/libc.a(strtoul_l.o)
 .note.GNU-stack
                0x0000000000000000        0x0 /work/glibc-obj/libc.a(grouping.o)
 .note.GNU-stack
                0x0000000000000000        0x0 /work/glibc-obj/libc.a(fprintf.o)
 .note.GNU-stack
                0x0000000000000000        0x0 /work/glibc-obj/libc.a(asprintf.o)
 .note.GNU-stack
                0x0000000000000000        0x0 /work/glibc-obj/libc.a(fxprintf.o)
 .note.GNU-stack
                0x0000000000000000        0x0 /work/glibc-obj/libc.a(iofclose.o)
 .note.GNU-stack
                0x0000000000000000        0x0 /work/glibc-obj/libc.a(iofflush.o)
 .note.GNU-stack
                0x0000000000000000        0x0 /work/glibc-obj/libc.a(iofopen.o)
 .note.GNU-stack
                0x0000000000000000        0x0 /work/glibc-obj/libc.a(iofwrite.o)
 .note.GNU-stack
                0x0000000000000000        0x0 /work/glibc-obj/libc.a(wfileops.o)
 .note.GNU-stack
                0x0000000000000000        0x0 /work/glibc-obj/libc.a(vasprintf.o)
 .note.GNU-stack
                0x0000000000000000        0x0 /work/glibc-obj/libc.a(libc_fatal.o)
 .note.GNU-stack
                0x0000000000000000        0x0 /work/glibc-obj/libc.a(vtables.o)
 .note.GNU-stack
                0x0000000000000000        0x0 /work/glibc-obj/libc.a(iofgets_u.o)
 .note.GNU-stack
                0x0000000000000000        0x0 /work/glibc-obj/libc.a(fileops.o)
 .note.GNU-stack
                0x0000000000000000        0x0 /work/glibc-obj/libc.a(genops.o)
 .note.GNU-stack
                0x0000000000000000        0x0 /work/glibc-obj/libc.a(stdfiles.o)
 .note.GNU-stack
                0x0000000000000000        0x0 /work/glibc-obj/libc.a(stdio.o)
 .note.GNU-stack
                0x0000000000000000        0x0 /work/glibc-obj/libc.a(strops.o)
 .note.GNU-stack
                0x0000000000000000        0x0 /work/glibc-obj/libc.a(malloc.o)
 .note.GNU-stack
                0x0000000000000000        0x0 /work/glibc-obj/libc.a(morecore.o)
 .note.GNU-stack
                0x0000000000000000        0x0 /work/glibc-obj/libc.a(thread-freeres.o)
 .note.GNU-stack
                0x0000000000000000        0x0 /work/glibc-obj/libc.a(strchr.o)
 .note.GNU-stack
                0x0000000000000000        0x0 /work/glibc-obj/libc.a(strcmp.o)
 .note.GNU-stack
                0x0000000000000000        0x0 /work/glibc-obj/libc.a(strcpy.o)
 .note.GNU-stack
                0x0000000000000000        0x0 /work/glibc-obj/libc.a(strcspn.o)
 .note.GNU-stack
                0x0000000000000000        0x0 /work/glibc-obj/libc.a(strdup.o)
 .note.GNU-stack
                0x0000000000000000        0x0 /work/glibc-obj/libc.a(strlen.o)
 .note.GNU-stack
                0x0000000000000000        0x0 /work/glibc-obj/libc.a(strncmp.o)
 .note.GNU-stack
                0x0000000000000000        0x0 /work/glibc-obj/libc.a(strstr.o)
 .note.GNU-stack
                0x0000000000000000        0x0 /work/glibc-obj/libc.a(memchr.o)
 .note.GNU-stack
                0x0000000000000000        0x0 /work/glibc-obj/libc.a(memcmp.o)
 .note.GNU-stack
                0x0000000000000000        0x0 /work/glibc-obj/libc.a(memmove.o)
 .note.GNU-stack
                0x0000000000000000        0x0 /work/glibc-obj/libc.a(memset.o)
 .note.GNU-stack
                0x0000000000000000        0x0 /work/glibc-obj/libc.a(mempcpy.o)
 .note.GNU-stack
                0x0000000000000000        0x0 /work/glibc-obj/libc.a(stpcpy.o)
 .note.GNU-stack
                0x0000000000000000        0x0 /work/glibc-obj/libc.a(strcasecmp_l.o)
 .note.GNU-stack
                0x0000000000000000        0x0 /work/glibc-obj/libc.a(memcpy.o)
 .note.GNU-stack
                0x0000000000000000        0x0 /work/glibc-obj/libc.a(rawmemchr.o)
 .note.GNU-stack
                0x0000000000000000        0x0 /work/glibc-obj/libc.a(strchrnul.o)
 .note.GNU-stack
                0x0000000000000000        0x0 /work/glibc-obj/libc.a(strcmp-sse2.o)
 .note.GNU-stack
                0x0000000000000000        0x0 /work/glibc-obj/libc.a(strcmp-sse2-unaligned.o)
 .note.GNU-stack
                0x0000000000000000        0x0 /work/glibc-obj/libc.a(strcmp-ssse3.o)
 .note.GNU-stack
                0x0000000000000000        0x0 /work/glibc-obj/libc.a(strncmp-sse2.o)
 .note.GNU-stack
                0x0000000000000000        0x0 /work/glibc-obj/libc.a(strncmp-ssse3.o)
 .note.GNU-stack
                0x0000000000000000        0x0 /work/glibc-obj/libc.a(strncmp-sse4_2.o)
 .note.GNU-stack
                0x0000000000000000        0x0 /work/glibc-obj/libc.a(memchr-sse2.o)
 .note.GNU-stack
                0x0000000000000000        0x0 /work/glibc-obj/libc.a(rawmemchr-sse2.o)
 .note.GNU-stack
                0x0000000000000000        0x0 /work/glibc-obj/libc.a(memchr-avx2.o)
 .note.GNU-stack
                0x0000000000000000        0x0 /work/glibc-obj/libc.a(rawmemchr-avx2.o)
 .note.GNU-stack
                0x0000000000000000        0x0 /work/glibc-obj/libc.a(memcmp-sse2.o)
 .note.GNU-stack
                0x0000000000000000        0x0 /work/glibc-obj/libc.a(memcmp-avx2-movbe.o)
 .note.GNU-stack
                0x0000000000000000        0x0 /work/glibc-obj/libc.a(memcmp-sse4.o)
 .note.GNU-stack
                0x0000000000000000        0x0 /work/glibc-obj/libc.a(memcpy-ssse3.o)
 .note.GNU-stack
                0x0000000000000000        0x0 /work/glibc-obj/libc.a(memmove-ssse3.o)
 .note.GNU-stack
                0x0000000000000000        0x0 /work/glibc-obj/libc.a(memcpy-ssse3-back.o)
 .note.GNU-stack
                0x0000000000000000        0x0 /work/glibc-obj/libc.a(memmove-ssse3-back.o)
 .note.GNU-stack
                0x0000000000000000        0x0 /work/glibc-obj/libc.a(memmove-avx512-no-vzeroupper.o)
 .note.GNU-stack
                0x0000000000000000        0x0 /work/glibc-obj/libc.a(strcasecmp_l-sse2.o)
 .note.GNU-stack
                0x0000000000000000        0x0 /work/glibc-obj/libc.a(strcasecmp_l-ssse3.o)
 .note.GNU-stack
                0x0000000000000000        0x0 /work/glibc-obj/libc.a(strcasecmp_l-sse4_2.o)
 .note.GNU-stack
                0x0000000000000000        0x0 /work/glibc-obj/libc.a(strcasecmp_l-avx.o)
 .note.GNU-stack
                0x0000000000000000        0x0 /work/glibc-obj/libc.a(strchr-sse2.o)
 .note.GNU-stack
                0x0000000000000000        0x0 /work/glibc-obj/libc.a(strchrnul-sse2.o)
 .note.GNU-stack
                0x0000000000000000        0x0 /work/glibc-obj/libc.a(strchr-avx2.o)
 .note.GNU-stack
                0x0000000000000000        0x0 /work/glibc-obj/libc.a(strchrnul-avx2.o)
 .note.GNU-stack
                0x0000000000000000        0x0 /work/glibc-obj/libc.a(strlen-sse2.o)
 .note.GNU-stack
                0x0000000000000000        0x0 /work/glibc-obj/libc.a(strlen-avx2.o)
 .note.GNU-stack
                0x0000000000000000        0x0 /work/glibc-obj/libc.a(strcpy-sse2.o)
 .note.GNU-stack
                0x0000000000000000        0x0 /work/glibc-obj/libc.a(stpcpy-sse2.o)
 .note.GNU-stack
                0x0000000000000000        0x0 /work/glibc-obj/libc.a(strcpy-ssse3.o)
 .note.GNU-stack
                0x0000000000000000        0x0 /work/glibc-obj/libc.a(stpcpy-ssse3.o)
 .note.GNU-stack
                0x0000000000000000        0x0 /work/glibc-obj/libc.a(strcpy-sse2-unaligned.o)
 .note.GNU-stack
                0x0000000000000000        0x0 /work/glibc-obj/libc.a(stpcpy-sse2-unaligned.o)
 .note.GNU-stack
                0x0000000000000000        0x0 /work/glibc-obj/libc.a(strchr-sse2-no-bsf.o)
 .note.GNU-stack
                0x0000000000000000        0x0 /work/glibc-obj/libc.a(memcmp-ssse3.o)
 .note.GNU-stack
                0x0000000000000000        0x0 /work/glibc-obj/libc.a(strstr-sse2-unaligned.o)
 .note.GNU-stack
                0x0000000000000000        0x0 /work/glibc-obj/libc.a(strcspn-sse2.o)
 .note.GNU-stack
                0x0000000000000000        0x0 /work/glibc-obj/libc.a(strcspn-c.o)
 .note.GNU-stack
                0x0000000000000000        0x0 /work/glibc-obj/libc.a(varshift.o)
 .note.GNU-stack
                0x0000000000000000        0x0 /work/glibc-obj/libc.a(memset-avx512-no-vzeroupper.o)
 .note.GNU-stack
                0x0000000000000000        0x0 /work/glibc-obj/libc.a(memmove-sse2-unaligned-erms.o)
 .note.GNU-stack
                0x0000000000000000        0x0 /work/glibc-obj/libc.a(memmove-avx-unaligned-erms.o)
 .note.GNU-stack
                0x0000000000000000        0x0 /work/glibc-obj/libc.a(memmove-avx512-unaligned-erms.o)
 .note.GNU-stack
                0x0000000000000000        0x0 /work/glibc-obj/libc.a(memset-sse2-unaligned-erms.o)
 .note.GNU-stack
                0x0000000000000000        0x0 /work/glibc-obj/libc.a(memset-avx2-unaligned-erms.o)
 .note.GNU-stack
                0x0000000000000000        0x0 /work/glibc-obj/libc.a(memset-avx512-unaligned-erms.o)
 .note.GNU-stack
                0x0000000000000000        0x0 /work/glibc-obj/libc.a(cacheinfo.o)
 .note.GNU-stack
                0x0000000000000000        0x0 /work/glibc-obj/libc.a(strcasecmp_l-nonascii.o)
 .note.GNU-stack
                0x0000000000000000        0x0 /work/glibc-obj/libc.a(wmempcpy.o)
 .note.GNU-stack
                0x0000000000000000        0x0 /work/glibc-obj/libc.a(mbsrtowcs.o)
 .note.GNU-stack
                0x0000000000000000        0x0 /work/glibc-obj/libc.a(wcsmbsload.o)
 .note.GNU-stack
                0x0000000000000000        0x0 /work/glibc-obj/libc.a(mbsrtowcs_l.o)
 .note.GNU-stack
                0x0000000000000000        0x0 /work/glibc-obj/libc.a(gettimeofday.o)
 .note.GNU-stack
                0x0000000000000000        0x0 /work/glibc-obj/libc.a(_exit.o)
 .note.GNU-stack
                0x0000000000000000        0x0 /work/glibc-obj/libc.a(getpid.o)
 .note.GNU-stack
                0x0000000000000000        0x0 /work/glibc-obj/libc.a(sysconf.o)
 .note.GNU-stack
                0x0000000000000000        0x0 /work/glibc-obj/libc.a(sched_getp.o)
 .note.GNU-stack
                0x0000000000000000        0x0 /work/glibc-obj/libc.a(sched_sets.o)
 .note.GNU-stack
                0x0000000000000000        0x0 /work/glibc-obj/libc.a(sched_gets.o)
 .note.GNU-stack
                0x0000000000000000        0x0 /work/glibc-obj/libc.a(sched_yield.o)
 .note.GNU-stack
                0x0000000000000000        0x0 /work/glibc-obj/libc.a(sched_primax.o)
 .note.GNU-stack
                0x0000000000000000        0x0 /work/glibc-obj/libc.a(sched_primin.o)
 .note.GNU-stack
                0x0000000000000000        0x0 /work/glibc-obj/libc.a(get_child_max.o)
 .note.GNU-stack
                0x0000000000000000        0x0 /work/glibc-obj/libc.a(environ.o)
 .note.GNU-stack
                0x0000000000000000        0x0 /work/glibc-obj/libc.a(xstat.o)
 .note.GNU-stack
                0x0000000000000000        0x0 /work/glibc-obj/libc.a(fxstat.o)
 .note.GNU-stack
                0x0000000000000000        0x0 /work/glibc-obj/libc.a(open64.o)
 .note.GNU-stack
                0x0000000000000000        0x0 /work/glibc-obj/libc.a(read.o)
 .note.GNU-stack
                0x0000000000000000        0x0 /work/glibc-obj/libc.a(write.o)
 .gnu.warning.llseek
                0x0000000000000000        0x0 /work/glibc-obj/libc.a(lseek64.o)
 .note.GNU-stack
                0x0000000000000000        0x0 /work/glibc-obj/libc.a(lseek64.o)
 .note.GNU-stack
                0x0000000000000000        0x0 /work/glibc-obj/libc.a(fcntl.o)
 .note.GNU-stack
                0x0000000000000000        0x0 /work/glibc-obj/libc.a(close.o)
 .note.GNU-stack
                0x0000000000000000        0x0 /work/glibc-obj/libc.a(getcwd.o)
 .note.GNU-stack
                0x0000000000000000        0x0 /work/glibc-obj/libc.a(getrlimit64.o)
 .note.GNU-stack
                0x0000000000000000        0x0 /work/glibc-obj/libc.a(sbrk.o)
 .note.GNU-stack
                0x0000000000000000        0x0 /work/glibc-obj/libc.a(getpagesize.o)
 .note.GNU-stack
                0x0000000000000000        0x0 /work/glibc-obj/libc.a(getdtsz.o)
 .note.GNU-stack
                0x0000000000000000        0x0 /work/glibc-obj/libc.a(mmap64.o)
 .note.GNU-stack
                0x0000000000000000        0x0 /work/glibc-obj/libc.a(munmap.o)
 .note.GNU-stack
                0x0000000000000000        0x0 /work/glibc-obj/libc.a(mprotect.o)
 .note.GNU-stack
                0x0000000000000000        0x0 /work/glibc-obj/libc.a(madvise.o)
 .note.GNU-stack
                0x0000000000000000        0x0 /work/glibc-obj/libc.a(tsearch.o)
 .note.GNU-stack
                0x0000000000000000        0x0 /work/glibc-obj/libc.a(getsysstats.o)
 .note.GNU-stack
                0x0000000000000000        0x0 /work/glibc-obj/libc.a(getclktck.o)
 .note.GNU-stack
                0x0000000000000000        0x0 /work/glibc-obj/libc.a(init-misc.o)
 .note.GNU-stack
                0x0000000000000000        0x0 /work/glibc-obj/libc.a(clone.o)
 .note.GNU-stack
                0x0000000000000000        0x0 /work/glibc-obj/libc.a(mremap.o)
 .note.GNU-stack
                0x0000000000000000        0x0 /work/glibc-obj/libc.a(sysinfo.o)
 .note.GNU-stack
                0x0000000000000000        0x0 /work/glibc-obj/libc.a(alloca_cutoff.o)
 .note.GNU-stack
                0x0000000000000000        0x0 /work/glibc-obj/libc.a(libc-cancellation.o)
 .note.GNU-stack
                0x0000000000000000        0x0 /work/glibc-obj/libc.a(libc_pthread_init.o)
 .note.GNU-stack
                0x0000000000000000        0x0 /work/glibc-obj/libc.a(libc_multiple_threads.o)
 .note.GNU-stack
                0x0000000000000000        0x0 /work/glibc-obj/libc.a(register-atfork.o)
 .note.GNU-stack
                0x0000000000000000        0x0 /work/glibc-obj/libc.a(chk_fail.o)
 .note.GNU-stack
                0x0000000000000000        0x0 /work/glibc-obj/libc.a(fortify_fail.o)
 .note.GNU-stack
                0x0000000000000000        0x0 /work/glibc-obj/libc.a(res_libc.o)
 .note.GNU-stack
                0x0000000000000000        0x0 /work/glibc-obj/libc.a(res_randomid.o)
 .note.GNU-stack
                0x0000000000000000        0x0 /work/glibc-obj/libc.a(res-close.o)
 .note.GNU-stack
                0x0000000000000000        0x0 /work/glibc-obj/libc.a(resolv_context.o)
 .note.GNU-stack
                0x0000000000000000        0x0 /work/glibc-obj/libc.a(resolv_conf.o)
 .note.GNU-stack
                0x0000000000000000        0x0 /work/glibc-obj/libc.a(dl-debug.o)
 .note.GNU-stack
                0x0000000000000000        0x0 /work/glibc-obj/libc.a(dl-tls.o)
 .note.GNU-stack
                0x0000000000000000        0x0 /work/glibc-obj/libc.a(dl-execstack.o)
 .note.GNU-stack
                0x0000000000000000        0x0 /work/glibc-obj/libc.a(dl-tunables.o)
 .note.GNU-stack
                0x0000000000000000        0x0 /work/glibc-obj/libc.a(dl-support.o)
 .note.GNU-stack
                0x0000000000000000        0x0 /work/glibc-obj/libc.a(dl-iteratephdr.o)
 .note.GNU-stack
                0x0000000000000000        0x0 /work/glibc-obj/libc.a(enbl-secure.o)
 .note.GNU-stack
                0x0000000000000000        0x0 /work/glibc-obj/libc.a(dl-profstub.o)
 .note.GNU-stack
                0x0000000000000000        0x0 /work/glibc-obj/libc.a(dl-sysdep.o)
 .note.GNU-stack
                0x0000000000000000        0x0 /work/glibc-obj/libc.a(dl-error.o)
 .note.GNU-stack
                0x0000000000000000        0x0 /work/glibc-obj/libc.a(init-first.o)
 .note.GNU-stack
                0x0000000000000000        0x0 /work/glibc-obj/libc.a(sysdep.o)
 .note.GNU-stack
                0x0000000000000000        0x0 /work/glibc-obj/libc.a(gconv_open.o)
 .note.GNU-stack
                0x0000000000000000        0x0 /work/glibc-obj/libc.a(gconv.o)
 .note.GNU-stack
                0x0000000000000000        0x0 /work/glibc-obj/libc.a(gconv_close.o)
 .note.GNU-stack
                0x0000000000000000        0x0 /work/glibc-obj/libc.a(gconv_db.o)
 .note.GNU-stack
                0x0000000000000000        0x0 /work/glibc-obj/libc.a(gconv_conf.o)
 .note.GNU-stack
                0x0000000000000000        0x0 /work/glibc-obj/libc.a(gconv_builtin.o)
 .note.GNU-stack
                0x0000000000000000        0x0 /work/glibc-obj/libc.a(gconv_simple.o)
 .note.GNU-stack
                0x0000000000000000        0x0 /work/glibc-obj/libc.a(gconv_trans.o)
 .note.GNU-stack
                0x0000000000000000        0x0 /work/glibc-obj/libc.a(gconv_cache.o)
 .note.GNU-stack
                0x0000000000000000        0x0 /work/glibc-obj/libc.a(gconv_dl.o)
 .note.GNU-stack
                0x0000000000000000        0x0 /work/glibc-obj/libc.a(setlocale.o)
 .note.GNU-stack
                0x0000000000000000        0x0 /work/glibc-obj/libc.a(findlocale.o)
 .note.GNU-stack
                0x0000000000000000        0x0 /work/glibc-obj/libc.a(loadlocale.o)
 .note.GNU-stack
                0x0000000000000000        0x0 /work/glibc-obj/libc.a(loadarchive.o)
 .note.GNU-stack
                0x0000000000000000        0x0 /work/glibc-obj/libc.a(lc-ctype.o)
 .note.GNU-stack
                0x0000000000000000        0x0 /work/glibc-obj/libc.a(C-ctype.o)
 .note.GNU-stack
                0x0000000000000000        0x0 /work/glibc-obj/libc.a(SYS_libc.o)
 .note.GNU-stack
                0x0000000000000000        0x0 /work/glibc-obj/libc.a(C_name.o)
 .note.GNU-stack
                0x0000000000000000        0x0 /work/glibc-obj/libc.a(xlocale.o)
 .note.GNU-stack
                0x0000000000000000        0x0 /work/glibc-obj/libc.a(localename.o)
 .note.GNU-stack
                0x0000000000000000        0x0 /work/glibc-obj/libc.a(global-locale.o)
 .note.GNU-stack
                0x0000000000000000        0x0 /work/glibc-obj/libc.a(setfpucw.o)
 .note.GNU-stack
                0x0000000000000000        0x0 /work/glibc-obj/libc.a(fpu_control.o)
 .note.GNU-stack
                0x0000000000000000        0x0 /work/glibc-obj/libc.a(setjmp.o)
 .note.GNU-stack
                0x0000000000000000        0x0 /work/glibc-obj/libc.a(sigjmp.o)
 .note.GNU-stack
                0x0000000000000000        0x0 /work/glibc-obj/libc.a(qsort.o)
 .note.GNU-stack
                0x0000000000000000        0x0 /work/glibc-obj/libc.a(setenv.o)
 .note.GNU-stack
                0x0000000000000000        0x0 /work/glibc-obj/libc.a(secure-getenv.o)
 .note.GNU-stack
                0x0000000000000000        0x0 /work/glibc-obj/libc.a(strtol.o)
 .note.GNU-stack
                0x0000000000000000        0x0 /work/glibc-obj/libc.a(strtol_l.o)
 .note.GNU-stack
                0x0000000000000000        0x0 /work/glibc-obj/libc.a(vfprintf.o)
 .note.GNU-stack
                0x0000000000000000        0x0 /work/glibc-obj/libc.a(printf_fp.o)
 .note.GNU-stack
                0x0000000000000000        0x0 /work/glibc-obj/libc.a(reg-printf.o)
 .note.GNU-stack
                0x0000000000000000        0x0 /work/glibc-obj/libc.a(printf_fphex.o)
 .note.GNU-stack
                0x0000000000000000        0x0 /work/glibc-obj/libc.a(reg-modifier.o)
 .note.GNU-stack
                0x0000000000000000        0x0 /work/glibc-obj/libc.a(reg-type.o)
 .note.GNU-stack
                0x0000000000000000        0x0 /work/glibc-obj/libc.a(vfwprintf.o)
 .note.GNU-stack
                0x0000000000000000        0x0 /work/glibc-obj/libc.a(funlockfile.o)
 .note.GNU-stack
                0x0000000000000000        0x0 /work/glibc-obj/libc.a(printf-parsemb.o)
 .note.GNU-stack
                0x0000000000000000        0x0 /work/glibc-obj/libc.a(printf-parsewc.o)
 .note.GNU-stack
                0x0000000000000000        0x0 /work/glibc-obj/libc.a(filedoalloc.o)
 .note.GNU-stack
                0x0000000000000000        0x0 /work/glibc-obj/libc.a(iofputs.o)
 .note.GNU-stack
                0x0000000000000000        0x0 /work/glibc-obj/libc.a(wfiledoalloc.o)
 .note.GNU-stack
                0x0000000000000000        0x0 /work/glibc-obj/libc.a(iogetdelim.o)
 .note.GNU-stack
                0x0000000000000000        0x0 /work/glibc-obj/libc.a(iogetline.o)
 .note.GNU-stack
                0x0000000000000000        0x0 /work/glibc-obj/libc.a(iopadn.o)
 .note.GNU-stack
                0x0000000000000000        0x0 /work/glibc-obj/libc.a(iowpadn.o)
 .note.GNU-stack
                0x0000000000000000        0x0 /work/glibc-obj/libc.a(wgenops.o)
 .note.GNU-stack
                0x0000000000000000        0x0 /work/glibc-obj/libc.a(iofwide.o)
 .note.GNU-stack
                0x0000000000000000        0x0 /work/glibc-obj/libc.a(scratch_buffer_grow_preserve.o)
 .note.GNU-stack
                0x0000000000000000        0x0 /work/glibc-obj/libc.a(scratch_buffer_set_array_size.o)
 .note.GNU-stack
                0x0000000000000000        0x0 /work/glibc-obj/libc.a(dynarray_at_failure.o)
 .note.GNU-stack
                0x0000000000000000        0x0 /work/glibc-obj/libc.a(dynarray_emplace_enlarge.o)
 .note.GNU-stack
                0x0000000000000000        0x0 /work/glibc-obj/libc.a(alloc_buffer_alloc_array.o)
 .note.GNU-stack
                0x0000000000000000        0x0 /work/glibc-obj/libc.a(alloc_buffer_allocate.o)
 .note.GNU-stack
                0x0000000000000000        0x0 /work/glibc-obj/libc.a(alloc_buffer_copy_string.o)
 .note.GNU-stack
                0x0000000000000000        0x0 /work/glibc-obj/libc.a(alloc_buffer_create_failure.o)
 .note.GNU-stack
                0x0000000000000000        0x0 /work/glibc-obj/libc.a(strndup.o)
 .note.GNU-stack
                0x0000000000000000        0x0 /work/glibc-obj/libc.a(_strerror.o)
 .note.GNU-stack
                0x0000000000000000        0x0 /work/glibc-obj/libc.a(strnlen.o)
 .note.GNU-stack
                0x0000000000000000        0x0 /work/glibc-obj/libc.a(strrchr.o)
 .note.GNU-stack
                0x0000000000000000        0x0 /work/glibc-obj/libc.a(strtok_r.o)
 .note.GNU-stack
                0x0000000000000000        0x0 /work/glibc-obj/libc.a(memmem.o)
 .note.GNU-stack
                0x0000000000000000        0x0 /work/glibc-obj/libc.a(argz-ctsep.o)
 .note.GNU-stack
                0x0000000000000000        0x0 /work/glibc-obj/libc.a(argz-addsep.o)
 .note.GNU-stack
                0x0000000000000000        0x0 /work/glibc-obj/libc.a(strrchr-sse2.o)
 .note.GNU-stack
                0x0000000000000000        0x0 /work/glibc-obj/libc.a(strrchr-avx2.o)
 .note.GNU-stack
                0x0000000000000000        0x0 /work/glibc-obj/libc.a(strnlen-sse2.o)
 .note.GNU-stack
                0x0000000000000000        0x0 /work/glibc-obj/libc.a(strnlen-avx2.o)
 .note.GNU-stack
                0x0000000000000000        0x0 /work/glibc-obj/libc.a(wcslen.o)
 .note.GNU-stack
                0x0000000000000000        0x0 /work/glibc-obj/libc.a(wmemcpy.o)
 .note.GNU-stack
                0x0000000000000000        0x0 /work/glibc-obj/libc.a(wmemmove.o)
 .note.GNU-stack
                0x0000000000000000        0x0 /work/glibc-obj/libc.a(wmemset.o)
 .note.GNU-stack
                0x0000000000000000        0x0 /work/glibc-obj/libc.a(btowc.o)
 .note.GNU-stack
                0x0000000000000000        0x0 /work/glibc-obj/libc.a(wcrtomb.o)
 .note.GNU-stack
                0x0000000000000000        0x0 /work/glibc-obj/libc.a(wcsrtombs.o)
 .note.GNU-stack
                0x0000000000000000        0x0 /work/glibc-obj/libc.a(wcsnlen.o)
 .note.GNU-stack
                0x0000000000000000        0x0 /work/glibc-obj/libc.a(wcschrnul.o)
 .note.GNU-stack
                0x0000000000000000        0x0 /work/glibc-obj/libc.a(wcsnlen-sse4_1.o)
 .note.GNU-stack
                0x0000000000000000        0x0 /work/glibc-obj/libc.a(wcsnlen-c.o)
 .note.GNU-stack
                0x0000000000000000        0x0 /work/glibc-obj/libc.a(wcslen-sse2.o)
 .note.GNU-stack
                0x0000000000000000        0x0 /work/glibc-obj/libc.a(wcslen-avx2.o)
 .note.GNU-stack
                0x0000000000000000        0x0 /work/glibc-obj/libc.a(wcsnlen-avx2.o)
 .note.GNU-stack
                0x0000000000000000        0x0 /work/glibc-obj/libc.a(time.o)
 .note.GNU-stack
                0x0000000000000000        0x0 /work/glibc-obj/libc.a(opendir.o)
 .note.GNU-stack
                0x0000000000000000        0x0 /work/glibc-obj/libc.a(closedir.o)
 .note.GNU-stack
                0x0000000000000000        0x0 /work/glibc-obj/libc.a(readdir.o)
 .note.GNU-stack
                0x0000000000000000        0x0 /work/glibc-obj/libc.a(rewinddir.o)
 .note.GNU-stack
                0x0000000000000000        0x0 /work/glibc-obj/libc.a(getdents.o)
 .note.GNU-stack
                0x0000000000000000        0x0 /work/glibc-obj/libc.a(fdopendir.o)
 .note.GNU-stack
                0x0000000000000000        0x0 /work/glibc-obj/libc.a(uname.o)
 .note.GNU-stack
                0x0000000000000000        0x0 /work/glibc-obj/libc.a(getuid.o)
 .note.GNU-stack
                0x0000000000000000        0x0 /work/glibc-obj/libc.a(geteuid.o)
 .note.GNU-stack
                0x0000000000000000        0x0 /work/glibc-obj/libc.a(getgid.o)
 .note.GNU-stack
                0x0000000000000000        0x0 /work/glibc-obj/libc.a(getegid.o)
 .note.GNU-stack
                0x0000000000000000        0x0 /work/glibc-obj/libc.a(lxstat.o)
 .note.GNU-stack
                0x0000000000000000        0x0 /work/glibc-obj/libc.a(fxstatat.o)
 .note.GNU-stack
                0x0000000000000000        0x0 /work/glibc-obj/libc.a(openat64.o)
 .note.GNU-stack
                0x0000000000000000        0x0 /work/glibc-obj/libc.a(isatty.o)
 .note.GNU-stack
                0x0000000000000000        0x0 /work/glibc-obj/libc.a(tcgetattr.o)
 .note.GNU-stack
                0x0000000000000000        0x0 /work/glibc-obj/libc.a(brk.o)
 .note.GNU-stack
                0x0000000000000000        0x0 /work/glibc-obj/libc.a(wctrans.o)
 .note.GNU-stack
                0x0000000000000000        0x0 /work/glibc-obj/libc.a(towctrans.o)
 .note.GNU-stack
                0x0000000000000000        0x0 /work/glibc-obj/libc.a(readonly-area.o)
 .note.GNU-stack
                0x0000000000000000        0x0 /work/glibc-obj/libc.a(res_init.o)
 .note.GNU-stack
                0x0000000000000000        0x0 /work/glibc-obj/libc.a(res_hconf.o)
 .note.GNU-stack
                0x0000000000000000        0x0 /work/glibc-obj/libc.a(dl-load.o)
 .note.GNU-stack
                0x0000000000000000        0x0 /work/glibc-obj/libc.a(dl-lookup.o)
 .note.GNU-stack
                0x0000000000000000        0x0 /work/glibc-obj/libc.a(dl-object.o)
 .note.GNU-stack
                0x0000000000000000        0x0 /work/glibc-obj/libc.a(dl-reloc.o)
 .note.GNU-stack
                0x0000000000000000        0x0 /work/glibc-obj/libc.a(dl-hwcaps.o)
 .note.GNU-stack
                0x0000000000000000        0x0 /work/glibc-obj/libc.a(dl-misc.o)
 .note.GNU-stack
                0x0000000000000000        0x0 /work/glibc-obj/libc.a(dl-profile.o)
 .note.GNU-stack
                0x0000000000000000        0x0 /work/glibc-obj/libc.a(dl-origin.o)
 .note.GNU-stack
                0x0000000000000000        0x0 /work/glibc-obj/libc.a(dl-scope.o)
 .note.GNU-stack
                0x0000000000000000        0x0 /work/glibc-obj/libc.a(dl-trampoline.o)
 .note.GNU-stack
                0x0000000000000000        0x0 /work/glibc-obj/libc.a(dl-exception.o)
 .note.GNU-stack
                0x0000000000000000        0x0 /work/glibc-obj/libc.a(dl-cache.o)
 .note.GNU-stack
                0x0000000000000000        0x0 /work/glibc-obj/libc.a(dl-tlsdesc.o)
 .note.GNU-stack
                0x0000000000000000        0x0 /work/glibc-obj/libc.a(dl-libc.o)
 .note.GNU-stack
                0x0000000000000000        0x0 /work/glibc-obj/libc.a(lc-monetary.o)
 .note.GNU-stack
                0x0000000000000000        0x0 /work/glibc-obj/libc.a(lc-numeric.o)
 .note.GNU-stack
                0x0000000000000000        0x0 /work/glibc-obj/libc.a(C-messages.o)
 .note.GNU-stack
                0x0000000000000000        0x0 /work/glibc-obj/libc.a(C-monetary.o)
 .note.GNU-stack
                0x0000000000000000        0x0 /work/glibc-obj/libc.a(C-numeric.o)
 .note.GNU-stack
                0x0000000000000000        0x0 /work/glibc-obj/libc.a(C-time.o)
 .note.GNU-stack
                0x0000000000000000        0x0 /work/glibc-obj/libc.a(C-paper.o)
 .note.GNU-stack
                0x0000000000000000        0x0 /work/glibc-obj/libc.a(C-name.o)
 .note.GNU-stack
                0x0000000000000000        0x0 /work/glibc-obj/libc.a(C-address.o)
 .note.GNU-stack
                0x0000000000000000        0x0 /work/glibc-obj/libc.a(C-telephone.o)
 .note.GNU-stack
                0x0000000000000000        0x0 /work/glibc-obj/libc.a(C-measurement.o)
 .note.GNU-stack
                0x0000000000000000        0x0 /work/glibc-obj/libc.a(C-identification.o)
 .note.GNU-stack
                0x0000000000000000        0x0 /work/glibc-obj/libc.a(C-collate.o)
 .note.GNU-stack
                0x0000000000000000        0x0 /work/glibc-obj/libc.a(cmp.o)
 .note.GNU-stack
                0x0000000000000000        0x0 /work/glibc-obj/libc.a(divrem.o)
 .note.GNU-stack
                0x0000000000000000        0x0 /work/glibc-obj/libc.a(lshift.o)
 .note.GNU-stack
                0x0000000000000000        0x0 /work/glibc-obj/libc.a(rshift.o)
 .note.GNU-stack
                0x0000000000000000        0x0 /work/glibc-obj/libc.a(mul.o)
 .note.GNU-stack
                0x0000000000000000        0x0 /work/glibc-obj/libc.a(mul_1.o)
 .note.GNU-stack
                0x0000000000000000        0x0 /work/glibc-obj/libc.a(mul_n.o)
 .note.GNU-stack
                0x0000000000000000        0x0 /work/glibc-obj/libc.a(sub_n.o)
 .note.GNU-stack
                0x0000000000000000        0x0 /work/glibc-obj/libc.a(submul_1.o)
 .note.GNU-stack
                0x0000000000000000        0x0 /work/glibc-obj/libc.a(dbl2mpn.o)
 .note.GNU-stack
                0x0000000000000000        0x0 /work/glibc-obj/libc.a(ldbl2mpn.o)
 .note.GNU-stack
                0x0000000000000000        0x0 /work/glibc-obj/libc.a(float1282mpn.o)
 .note.GNU-stack
                0x0000000000000000        0x0 /work/glibc-obj/libc.a(fpioconst.o)
 .note.GNU-stack
                0x0000000000000000        0x0 /work/glibc-obj/libc.a(_itoa.o)
 .note.GNU-stack
                0x0000000000000000        0x0 /work/glibc-obj/libc.a(itoa-digits.o)
 .note.GNU-stack
                0x0000000000000000        0x0 /work/glibc-obj/libc.a(itoa-udigits.o)
 .note.GNU-stack
                0x0000000000000000        0x0 /work/glibc-obj/libc.a(itowa-digits.o)
 .note.GNU-stack
                0x0000000000000000        0x0 /work/glibc-obj/libc.a(snprintf.o)
 .note.GNU-stack
                0x0000000000000000        0x0 /work/glibc-obj/libc.a(getline.o)
 .gnu.warning.sys_errlist
                0x0000000000000000        0x0 /work/glibc-obj/libc.a(errlist.o)
 .gnu.warning.sys_nerr
                0x0000000000000000        0x0 /work/glibc-obj/libc.a(errlist.o)
 .note.GNU-stack
                0x0000000000000000        0x0 /work/glibc-obj/libc.a(errlist.o)
 .note.GNU-stack
                0x0000000000000000        0x0 /work/glibc-obj/libc.a(vsnprintf.o)
 .note.GNU-stack
                0x0000000000000000        0x0 /work/glibc-obj/libc.a(sdlerror.o)
 .note.GNU-stack
                0x0000000000000000        0x0 /work/glibc-obj/libc.a(sdladdr.o)
 .note.GNU-stack
                0x0000000000000000        0x0 /work/glibc-obj/libc.a(sdladdr1.o)
 .note.GNU-stack
                0x0000000000000000        0x0 /work/glibc-obj/libc.a(sdlinfo.o)
 .note.GNU-stack
                0x0000000000000000        0x0 /work/glibc-obj/libc.a(sdlmopen.o)
 .note.GNU-stack
                0x0000000000000000        0x0 /work/glibc-obj/libc.a(alloc_buffer_copy_bytes.o)
 .note.GNU-stack
                0x0000000000000000        0x0 /work/glibc-obj/libc.a(strerror.o)
 .note.GNU-stack
                0x0000000000000000        0x0 /work/glibc-obj/libc.a(strpbrk.o)
 .note.GNU-stack
                0x0000000000000000        0x0 /work/glibc-obj/libc.a(strspn.o)
 .note.GNU-stack
                0x0000000000000000        0x0 /work/glibc-obj/libc.a(strcasecmp.o)
 .note.GNU-stack
                0x0000000000000000        0x0 /work/glibc-obj/libc.a(strncase.o)
 .note.GNU-stack
                0x0000000000000000        0x0 /work/glibc-obj/libc.a(strsep.o)
 .note.GNU-stack
                0x0000000000000000        0x0 /work/glibc-obj/libc.a(strncase_l-sse2.o)
 .note.GNU-stack
                0x0000000000000000        0x0 /work/glibc-obj/libc.a(strncase_l-ssse3.o)
 .note.GNU-stack
                0x0000000000000000        0x0 /work/glibc-obj/libc.a(strncase_l-sse4_2.o)
 .note.GNU-stack
                0x0000000000000000        0x0 /work/glibc-obj/libc.a(strncase_l-avx.o)
 .note.GNU-stack
                0x0000000000000000        0x0 /work/glibc-obj/libc.a(strpbrk-sse2.o)
 .note.GNU-stack
                0x0000000000000000        0x0 /work/glibc-obj/libc.a(strspn-sse2.o)
 .note.GNU-stack
                0x0000000000000000        0x0 /work/glibc-obj/libc.a(strpbrk-c.o)
 .note.GNU-stack
                0x0000000000000000        0x0 /work/glibc-obj/libc.a(strspn-c.o)
 .note.GNU-stack
                0x0000000000000000        0x0 /work/glibc-obj/libc.a(strncase_l-nonascii.o)
 .note.GNU-stack
                0x0000000000000000        0x0 /work/glibc-obj/libc.a(ioctl.o)
 .note.GNU-stack
                0x0000000000000000        0x0 /work/glibc-obj/libc.a(gethostname.o)
 .note.GNU-stack
                0x0000000000000000        0x0 /work/glibc-obj/libc.a(socket.o)
 .note.GNU-stack
                0x0000000000000000        0x0 /work/glibc-obj/libc.a(profil.o)
 .note.GNU-stack
                0x0000000000000000        0x0 /work/glibc-obj/libc.a(prof-freq.o)
 .note.GNU-stack
                0x0000000000000000        0x0 /work/glibc-obj/libc.a(inet_mkadr.o)
 .note.GNU-stack
                0x0000000000000000        0x0 /work/glibc-obj/libc.a(inet6_scopeid_pton.o)
 .note.GNU-stack
                0x0000000000000000        0x0 /work/glibc-obj/libc.a(ifreq.o)
 .note.GNU-stack
                0x0000000000000000        0x0 /work/glibc-obj/libc.a(inet_addr.o)
 .note.GNU-stack
                0x0000000000000000        0x0 /work/glibc-obj/libc.a(inet_pton.o)
 .note.GNU-stack
                0x0000000000000000        0x0 /work/glibc-obj/libc.a(dl-runtime.o)
 .note.GNU-stack
                0x0000000000000000        0x0 /work/glibc-obj/libc.a(dl-open.o)
 .note.GNU-stack
                0x0000000000000000        0x0 /work/glibc-obj/libc.a(dl-close.o)
 .note.GNU-stack
                0x0000000000000000        0x0 /work/glibc-obj/libc.a(dl-sort-maps.o)
 .note.GNU-stack
                0x0000000000000000        0x0 /work/glibc-obj/libc.a(tlsdesc.o)
 .note.GNU-stack
                0x0000000000000000        0x0 /work/glibc-obj/libc.a(dl-addr.o)
 .note.GNU-stack
                0x0000000000000000        0x0 /work/glibc-obj/libc.a(dl-addr-obj.o)
 .note.GNU-stack
                0x0000000000000000        0x0 /work/glibc-obj/libc.a(add_n.o)
 .note.GNU-stack
                0x0000000000000000        0x0 /work/glibc-obj/libc.a(addmul_1.o)
 .note.GNU-stack
                0x0000000000000000        0x0 /work/glibc-obj/libc.a(sdlopen.o)
 .note.GNU-stack
                0x0000000000000000        0x0 /work/glibc-obj/libc.a(sdlclose.o)
 .note.GNU-stack
                0x0000000000000000        0x0 /work/glibc-obj/libc.a(sdlsym.o)
 .note.GNU-stack
                0x0000000000000000        0x0 /work/glibc-obj/libc.a(sdlvsym.o)
 .note.GNU-stack
                0x0000000000000000        0x0 /work/glibc-obj/libc.a(setitimer.o)
 .note.GNU-stack
                0x0000000000000000        0x0 /work/glibc-obj/libc.a(opensock.o)
 .note.GNU-stack
                0x0000000000000000        0x0 /work/glibc-obj/libc.a(if_index.o)
 .note.GNU-stack
                0x0000000000000000        0x0 /work/glibc-obj/libc.a(ifaddrs.o)
 .note.GNU-stack
                0x0000000000000000        0x0 /work/glibc-obj/libc.a(netlink_assert_response.o)
 .note.GNU-stack
                0x0000000000000000        0x0 /work/glibc-obj/libc.a(dl-deps.o)
 .note.GNU-stack
                0x0000000000000000        0x0 /work/glibc-obj/libc.a(dl-init.o)
 .note.GNU-stack
                0x0000000000000000        0x0 /work/glibc-obj/libc.a(dl-version.o)
 .note.GNU-stack
                0x0000000000000000        0x0 /work/glibc-obj/libc.a(dl-sym.o)
 .note.GNU-stack
                0x0000000000000000        0x0 /work/glibc-obj/libc.a(strncpy.o)
 .note.GNU-stack
                0x0000000000000000        0x0 /work/glibc-obj/libc.a(strncpy-c.o)
 .note.GNU-stack
                0x0000000000000000        0x0 /work/glibc-obj/libc.a(strncpy-ssse3.o)
 .note.GNU-stack
                0x0000000000000000        0x0 /work/glibc-obj/libc.a(strncpy-sse2-unaligned.o)
 .note.GNU-stack
                0x0000000000000000        0x0 /work/glibc-obj/libc.a(access.o)
 .note.GNU-stack
                0x0000000000000000        0x0 /work/glibc-obj/libc.a(bind.o)
 .note.GNU-stack
                0x0000000000000000        0x0 /work/glibc-obj/libc.a(getsockname.o)
 .note.GNU-stack
                0x0000000000000000        0x0 /work/glibc-obj/libc.a(recvmsg.o)
 .note.GNU-stack
                0x0000000000000000        0x0 /work/glibc-obj/libc.a(sendto.o)
 .note.GNU-stack
                0x0000000000000000        0x0 /usr/lib/gcc/x86_64-redhat-linux/8//libgcc.a(unordtf2.o)
 .note.gnu.property
                0x0000000000000000       0x20 /usr/lib/gcc/x86_64-redhat-linux/8//libgcc.a(unordtf2.o)
 .note.GNU-stack
                0x0000000000000000        0x0 /usr/lib/gcc/x86_64-redhat-linux/8//libgcc.a(letf2.o)
 .note.gnu.property
                0x0000000000000000       0x20 /usr/lib/gcc/x86_64-redhat-linux/8//libgcc.a(letf2.o)
 .note.GNU-stack
                0x0000000000000000        0x0 /usr/lib/gcc/x86_64-redhat-linux/8//libgcc.a(sfp-exceptions.o)
 .note.gnu.property
                0x0000000000000000       0x20 /usr/lib/gcc/x86_64-redhat-linux/8//libgcc.a(sfp-exceptions.o)
 .note.GNU-stack
                0x0000000000000000        0x0 /usr/lib/gcc/x86_64-redhat-linux/8//libgcc_eh.a(unwind-c.o)
 .note.gnu.property
                0x0000000000000000       0x20 /usr/lib/gcc/x86_64-redhat-linux/8//libgcc_eh.a(unwind-c.o)
 .note.GNU-stack
                0x0000000000000000        0x0 /usr/lib/gcc/x86_64-redhat-linux/8/crtend.o
 .note.gnu.property
                0x0000000000000000       0x20 /usr/lib/gcc/x86_64-redhat-linux/8/crtend.o
 .note.GNU-stack
                0x0000000000000000        0x0 /work/glibc-obj/csu/crtn.o

Memory Configuration

Name             Origin             Length             Attributes
*default*        0x0000000000000000 0xffffffffffffffff

Linker script and memory map

LOAD /work/glibc-obj/csu/crt1.o
LOAD /work/glibc-obj/csu/crti.o
LOAD /usr/lib/gcc/x86_64-redhat-linux/8/crtbeginT.o
LOAD threads.o
LOAD /work/glibc-obj/nptl/libpthread.a
START GROUP
LOAD /usr/lib/gcc/x86_64-redhat-linux/8//libgcc.a
LOAD /usr/lib/gcc/x86_64-redhat-linux/8//libgcc_eh.a
LOAD /work/glibc-obj/libc.a
END GROUP
LOAD /usr/lib/gcc/x86_64-redhat-linux/8/crtend.o
LOAD /work/glibc-obj/csu/crtn.o
                [!provide]                        PROVIDE (__executable_start, SEGMENT_START ("text-segment", 0x400000))
                0x0000000000400190                . = (SEGMENT_START ("text-segment", 0x400000) + SIZEOF_HEADERS)

.interp
 *(.interp)

.note.ABI-tag   0x0000000000400190       0x20
 .note.ABI-tag  0x0000000000400190       0x20 /work/glibc-obj/csu/crt1.o

.note.gnu.build-id
                0x00000000004001b0       0x24
 *(.note.gnu.build-id)
 .note.gnu.build-id
                0x00000000004001b0       0x24 /work/glibc-obj/csu/crt1.o

.hash
 *(.hash)

.gnu.hash
 *(.gnu.hash)

.dynsym
 *(.dynsym)

.dynstr
 *(.dynstr)

.gnu.version
 *(.gnu.version)

.gnu.version_d
 *(.gnu.version_d)

.gnu.version_r
 *(.gnu.version_r)

.rela.dyn       0x00000000004001d8        0x0
 *(.rela.init)
 *(.rela.text .rela.text.* .rela.gnu.linkonce.t.*)
 .rela.text     0x00000000004001d8        0x0 /work/glibc-obj/csu/crt1.o
 .rela.text.unlikely
                0x00000000004001d8        0x0 /work/glibc-obj/csu/crt1.o
 .rela.text.avx
                0x00000000004001d8        0x0 /work/glibc-obj/csu/crt1.o
 .rela.text.avx512
                0x00000000004001d8        0x0 /work/glibc-obj/csu/crt1.o
 .rela.text.startup
                0x00000000004001d8        0x0 /work/glibc-obj/csu/crt1.o
 *(.rela.fini)
 *(.rela.rodata .rela.rodata.* .rela.gnu.linkonce.r.*)
 .rela.rodata   0x00000000004001d8        0x0 /work/glibc-obj/csu/crt1.o
 *(.rela.data .rela.data.* .rela.gnu.linkonce.d.*)
 *(.rela.tdata .rela.tdata.* .rela.gnu.linkonce.td.*)
 *(.rela.tbss .rela.tbss.* .rela.gnu.linkonce.tb.*)
 *(.rela.ctors)
 *(.rela.dtors)
 *(.rela.got)
 .rela.got      0x00000000004001d8        0x0 /work/glibc-obj/csu/crt1.o
 *(.rela.bss .rela.bss.* .rela.gnu.linkonce.b.*)
 *(.rela.ldata .rela.ldata.* .rela.gnu.linkonce.l.*)
 *(.rela.lbss .rela.lbss.* .rela.gnu.linkonce.lb.*)
 *(.rela.lrodata .rela.lrodata.* .rela.gnu.linkonce.lr.*)
 *(.rela.ifunc)
 .rela__libc_freeres_fn
                0x00000000004001d8        0x0 /work/glibc-obj/csu/crt1.o
 .rela__libc_IO_vtables
                0x00000000004001d8        0x0 /work/glibc-obj/csu/crt1.o
 .rela__libc_thread_freeres_fn
                0x00000000004001d8        0x0 /work/glibc-obj/csu/crt1.o

.rela.plt       0x00000000004001d8      0x288
 *(.rela.plt)
                0x00000000004001d8                PROVIDE (__rela_iplt_start, .)
 *(.rela.iplt)
 .rela.iplt     0x00000000004001d8      0x288 /work/glibc-obj/csu/crt1.o
                0x0000000000400460                PROVIDE (__rela_iplt_end, .)

.init           0x0000000000400460       0x17
 *(SORT(.init))
 .init          0x0000000000400460       0x12 /work/glibc-obj/csu/crti.o
                0x0000000000400460                _init
 .init          0x0000000000400472        0x5 /work/glibc-obj/csu/crtn.o

.plt            0x0000000000400478       0xd8
 *(.plt)
 *(.iplt)
 .iplt          0x0000000000400478       0xd8 /work/glibc-obj/csu/crt1.o

.plt.got
 *(.plt.got)

.plt.sec
 *(.plt.sec)

.text           0x0000000000400550    0x8ecab
 *(.text.unlikely .text.*_unlikely .text.unlikely.*)
 .text.unlikely
                0x0000000000400550       0x1c /work/glibc-obj/nptl/libpthread.a(pthread_create.o)
 .text.unlikely
                0x000000000040056c       0x3c /usr/lib/gcc/x86_64-redhat-linux/8//libgcc_eh.a(unwind-dw2.o)
 .text.unlikely
                0x00000000004005a8        0x5 /usr/lib/gcc/x86_64-redhat-linux/8//libgcc_eh.a(unwind-dw2-fde-dip.o)
 .text.unlikely
                0x00000000004005ad        0xf /work/glibc-obj/libc.a(assert.o)
 .text.unlikely
                0x00000000004005bc        0x5 /work/glibc-obj/libc.a(loadmsgcat.o)
 .text.unlikely
                0x00000000004005c1      0x21d /work/glibc-obj/libc.a(abort.o)
                0x00000000004005c1                abort
 .text.unlikely
                0x00000000004007de       0x4f /work/glibc-obj/libc.a(iofclose.o)
 .text.unlikely
                0x000000000040082d       0x4f /work/glibc-obj/libc.a(iofflush.o)
 .text.unlikely
                0x000000000040087c       0x4f /work/glibc-obj/libc.a(iofwrite.o)
 .text.unlikely
                0x00000000004008cb       0x50 /work/glibc-obj/libc.a(wfileops.o)
 .text.unlikely
                0x000000000040091b       0x52 /work/glibc-obj/libc.a(fileops.o)
 .text.unlikely
                0x000000000040096d       0x1c /work/glibc-obj/libc.a(resolv_conf.o)
 .text.unlikely
                0x0000000000400989        0x6 /work/glibc-obj/libc.a(init-first.o)
                0x0000000000400989                _dl_start
 .text.unlikely
                0x000000000040098f       0x4f /work/glibc-obj/libc.a(iofputs.o)
 .text.unlikely
                0x00000000004009de       0x4f /work/glibc-obj/libc.a(iogetdelim.o)
 .text.unlikely
                0x0000000000400a2d        0x5 /work/glibc-obj/libc.a(ifaddrs.o)
 .text.unlikely
                0x0000000000400a32        0x5 /usr/lib/gcc/x86_64-redhat-linux/8//libgcc_eh.a(unwind-c.o)
 *(.text.exit .text.exit.*)
 *fill*         0x0000000000400a37        0x9 
 .text.exit     0x0000000000400a40        0xc /work/glibc-obj/libc.a(sdlerror.o)
 *(.text.startup .text.startup.*)
 *fill*         0x0000000000400a4c        0x4 
 .text.startup  0x0000000000400a50      0x491 /work/glibc-obj/libc.a(cacheinfo.o)
 *(.text.hot .text.hot.*)
 *(.text .stub .text.* .gnu.linkonce.t.*)
 *fill*         0x0000000000400ee1        0xf 
 .text          0x0000000000400ef0       0x2b /work/glibc-obj/csu/crt1.o
                0x0000000000400ef0                _start
 .text          0x0000000000400f1b        0x0 /work/glibc-obj/csu/crti.o
 *fill*         0x0000000000400f1b        0x5 
 .text          0x0000000000400f20       0xe5 /usr/lib/gcc/x86_64-redhat-linux/8/crtbeginT.o
 .text          0x0000000000401005      0x110 threads.o
                0x0000000000401064                main
 *fill*         0x0000000000401115        0xb 
 .text          0x0000000000401120     0x27e2 /work/glibc-obj/nptl/libpthread.a(pthread_create.o)
                0x0000000000401850                __free_stacks
                0x00000000004018e0                __deallocate_stack
                0x00000000004019a0                __make_stacks_executable
                0x0000000000401a80                __reclaim_stacks
                0x0000000000401d50                __find_thread_by_id
                0x0000000000401e10                __nptl_setxid_error
                0x0000000000401e20                __nptl_setxid
                0x00000000004020b0                __pthread_init_static_tls
                0x00000000004021e0                __wait_lookup_done
                0x0000000000402420                __find_in_stack_list
                0x00000000004024e0                __nptl_deallocate_tsd
                0x0000000000402500                __free_tcb
                0x00000000004029d0                pthread_create
                0x00000000004029d0                __pthread_create_2_1
 *fill*         0x0000000000403902        0xe 
 .text          0x0000000000403910        0xc /work/glibc-obj/nptl/libpthread.a(pthread_join.o)
                0x0000000000403910                __pthread_join
                0x0000000000403910                pthread_join
 *fill*         0x000000000040391c        0x4 
 .text          0x0000000000403920      0x23e /work/glibc-obj/nptl/libpthread.a(pthread_join_common.o)
                0x0000000000403960                __pthread_timedjoin_ex
 *fill*         0x0000000000403b5e        0x2 
 .text          0x0000000000403b60      0xa26 /work/glibc-obj/nptl/libpthread.a(pthread_mutex_lock.o)
                0x0000000000404320                __pthread_mutex_lock
                0x0000000000404320                pthread_mutex_lock
 *fill*         0x0000000000404586        0xa 
 .text          0x0000000000404590      0x7c6 /work/glibc-obj/nptl/libpthread.a(pthread_mutex_trylock.o)
                0x0000000000404590                __pthread_mutex_trylock
                0x0000000000404590                pthread_mutex_trylock
 *fill*         0x0000000000404d56        0xa 
 .text          0x0000000000404d60      0x5ea /work/glibc-obj/nptl/libpthread.a(pthread_mutex_unlock.o)
                0x0000000000405240                __pthread_mutex_unlock_usercnt
                0x0000000000405340                __pthread_mutex_unlock
                0x0000000000405340                pthread_mutex_unlock
 *fill*         0x000000000040534a        0x6 
 .text          0x0000000000405350       0xa5 /work/glibc-obj/nptl/libpthread.a(pthread_key_create.o)
                0x0000000000405350                __pthread_key_create
                0x0000000000405350                pthread_key_create
 *fill*         0x00000000004053f5        0xb 
 .text          0x0000000000405400       0x7e /work/glibc-obj/nptl/libpthread.a(pthread_key_delete.o)
                0x0000000000405400                pthread_key_delete
                0x0000000000405400                __pthread_key_delete
 *fill*         0x000000000040547e        0x2 
 .text          0x0000000000405480       0x83 /work/glibc-obj/nptl/libpthread.a(pthread_getspecific.o)
                0x0000000000405480                pthread_getspecific
                0x0000000000405480                __pthread_getspecific
 *fill*         0x0000000000405503        0xd 
 .text          0x0000000000405510       0xee /work/glibc-obj/nptl/libpthread.a(pthread_setspecific.o)
                0x0000000000405510                __pthread_setspecific
                0x0000000000405510                pthread_setspecific
 *fill*         0x00000000004055fe        0x2 
 .text          0x0000000000405600      0x106 /work/glibc-obj/nptl/libpthread.a(pthread_cancel.o)
                0x0000000000405600                pthread_cancel
                0x0000000000405600                __pthread_cancel
 *fill*         0x0000000000405706        0xa 
 .text          0x0000000000405710      0x23e /work/glibc-obj/nptl/libpthread.a(pthread_once.o)
                0x0000000000405900                __pthread_once
                0x0000000000405900                pthread_once
 *fill*         0x000000000040594e        0x2 
 .text          0x0000000000405950       0x41 /work/glibc-obj/nptl/libpthread.a(cleanup_compat.o)
                0x0000000000405950                __pthread_cleanup_push
                0x0000000000405950                _pthread_cleanup_push
                0x0000000000405970                __pthread_cleanup_pop
                0x0000000000405970                _pthread_cleanup_pop
 *fill*         0x0000000000405991        0xf 
 .text          0x00000000004059a0       0xb9 /work/glibc-obj/nptl/libpthread.a(cancellation.o)
                0x00000000004059a0                __pthread_enable_asynccancel
                0x0000000000405a00                __pthread_disable_asynccancel
 *fill*         0x0000000000405a59        0x7 
 .text          0x0000000000405a60      0x172 /work/glibc-obj/nptl/libpthread.a(lowlevellock.o)
                0x0000000000405a60                __lll_lock_wait_private
                0x0000000000405a90                __lll_lock_wait
                0x0000000000405ac0                __lll_timedlock_wait
                0x0000000000405b10                __lll_unlock_wake_private
                0x0000000000405b30                __lll_unlock_wake
                0x0000000000405b50                __lll_timedwait_tid
 *fill*         0x0000000000405bd2        0xe 
 .text          0x0000000000405be0       0xa2 /work/glibc-obj/nptl/libpthread.a(pause.o)
                0x0000000000405be0                pause
                0x0000000000405be0                __libc_pause
                0x0000000000405c60                __pause_nocancel
 *fill*         0x0000000000405c82        0xe 
 .text          0x0000000000405c90      0x634 /work/glibc-obj/nptl/libpthread.a(tpp.o)
                0x0000000000405c90                __init_sched_fifo_prio
                0x0000000000405d10                __pthread_tpp_change_priority
                0x00000000004061a0                __pthread_current_priority
 *fill*         0x00000000004062c4        0xc 
 .text          0x00000000004062d0      0x318 /work/glibc-obj/nptl/libpthread.a(elision-lock.o)
                0x00000000004062d0                _dl_tunable_set_elision_skip_lock_busy
                0x00000000004062e0                _dl_tunable_set_elision_skip_lock_internal_abort
                0x00000000004062f0                _dl_tunable_set_elision_retry_try_xbegin
                0x0000000000406300                _dl_tunable_set_elision_skip_trylock_internal_abort
                0x00000000004063a0                _dl_tunable_set_elision_enable
                0x00000000004063d0                __lll_lock_elision
 *fill*         0x00000000004065e8        0x8 
 .text          0x00000000004065f0       0x36 /work/glibc-obj/nptl/libpthread.a(elision-unlock.o)
                0x00000000004065f0                __lll_unlock_elision
 *fill*         0x0000000000406626        0xa 
 .text          0x0000000000406630      0x170 /work/glibc-obj/nptl/libpthread.a(elision-trylock.o)
                0x0000000000406630                __lll_trylock_elision
 .text          0x00000000004067a0      0x4e5 /work/glibc-obj/nptl/libpthread.a(nptl-init.o)
                0x0000000000406970                __nptl_set_robust
                0x0000000000406990                __pthread_initialize_minimal
                0x0000000000406990                __pthread_initialize_minimal_internal
                0x0000000000406c70                __pthread_get_minstack
 .text          0x0000000000406c85        0x0 /work/glibc-obj/nptl/libpthread.a(vars.o)
 *fill*         0x0000000000406c85        0xb 
 .text          0x0000000000406c90       0x11 /work/glibc-obj/nptl/libpthread.a(events.o)
                0x0000000000406c90                __nptl_create_event
                0x0000000000406ca0                __nptl_death_event
 *fill*         0x0000000000406ca1        0xf 
 .text          0x0000000000406cb0      0x17d /work/glibc-obj/nptl/libpthread.a(unwind.o)
                0x0000000000406de0                __pthread_unwind
                0x0000000000406e20                __pthread_unwind_next
 *fill*         0x0000000000406e2d        0x3 
 .text          0x0000000000406e30      0x1e4 /work/glibc-obj/nptl/libpthread.a(sigaction.o)
                0x0000000000406e50                __libc_sigaction
                0x0000000000406ff0                sigaction
                0x0000000000406ff0                __sigaction
 *fill*         0x0000000000407014        0xc 
 .text          0x0000000000407020     0x2fcc /usr/lib/gcc/x86_64-redhat-linux/8//libgcc_eh.a(unwind-dw2.o)
                0x0000000000409390                _Unwind_GetGR
                0x00000000004093e0                _Unwind_GetCFA
                0x00000000004093f0                _Unwind_SetGR
                0x0000000000409450                _Unwind_GetIP
                0x0000000000409460                _Unwind_GetIPInfo
                0x0000000000409480                _Unwind_SetIP
                0x0000000000409490                _Unwind_GetLanguageSpecificData
                0x00000000004094a0                _Unwind_GetRegionStart
                0x00000000004094b0                _Unwind_FindEnclosingFunction
                0x00000000004094e0                _Unwind_GetDataRelBase
                0x00000000004094f0                _Unwind_GetTextRelBase
                0x0000000000409500                __frame_state_for
                0x0000000000409630                _Unwind_RaiseException
                0x0000000000409980                _Unwind_ForcedUnwind
                0x0000000000409b60                _Unwind_Resume
                0x0000000000409d40                _Unwind_Resume_or_Rethrow
                0x0000000000409f30                _Unwind_DeleteException
                0x0000000000409f60                _Unwind_Backtrace
 *fill*         0x0000000000409fec        0x4 
 .text          0x0000000000409ff0     0x1bf2 /usr/lib/gcc/x86_64-redhat-linux/8//libgcc_eh.a(unwind-dw2-fde-dip.o)
                0x000000000040b6f0                __register_frame_info_bases
                0x000000000040b710                __register_frame_info
                0x000000000040b740                __register_frame
                0x000000000040b770                __register_frame_info_table_bases
                0x000000000040b800                __register_frame_info_table
                0x000000000040b810                __register_frame_table
                0x000000000040b840                __deregister_frame_info_bases
                0x000000000040b960                __deregister_frame_info
                0x000000000040b970                __deregister_frame
                0x000000000040b9a0                _Unwind_Find_FDE
 *fill*         0x000000000040bbe2        0xe 
 .text          0x000000000040bbf0      0x87e /work/glibc-obj/libc.a(libc-start.o)
                0x000000000040be50                __libc_start_main
 *fill*         0x000000000040c46e        0x2 
 .text          0x000000000040c470       0xd2 /work/glibc-obj/libc.a(check_fds.o)
                0x000000000040c510                __libc_check_standard_fds
 *fill*         0x000000000040c542        0xe 
 .text          0x000000000040c550      0x229 /work/glibc-obj/libc.a(libc-tls.o)
                0x000000000040c550                __libc_setup_tls
 *fill*         0x000000000040c779        0x7 
 .text          0x000000000040c780       0xd5 /work/glibc-obj/libc.a(elf-init.o)
                0x000000000040c780                __libc_csu_init
                0x000000000040c810                __libc_csu_fini
 .text          0x000000000040c855        0x0 /work/glibc-obj/libc.a(errno.o)
 *fill*         0x000000000040c855        0xb 
 .text          0x000000000040c860      0x19e /work/glibc-obj/libc.a(assert.o)
                0x000000000040c860                __assert_fail_base
                0x000000000040c9c0                __assert_fail
 *fill*         0x000000000040c9fe        0x2 
 .text          0x000000000040ca00       0xb0 /work/glibc-obj/libc.a(ctype-info.o)
                0x000000000040ca00                __ctype_b_loc
                0x000000000040ca20                __ctype_toupper_loc
                0x000000000040ca40                __ctype_tolower_loc
                0x000000000040ca60                __ctype_init
 .text          0x000000000040cab0        0xf /work/glibc-obj/libc.a(dcgettext.o)
                0x000000000040cab0                __dcgettext
                0x000000000040cab0                dcgettext
 *fill*         0x000000000040cabf        0x1 
 .text          0x000000000040cac0     0x15f1 /work/glibc-obj/libc.a(dcigettext.o)
                0x000000000040cd80                _nl_find_msg
                0x000000000040d910                __dcigettext
 *fill*         0x000000000040e0b1        0xf 
 .text          0x000000000040e0c0      0x260 /work/glibc-obj/libc.a(finddomain.o)
                0x000000000040e0c0                _nl_find_domain
 .text          0x000000000040e320     0x15b8 /work/glibc-obj/libc.a(loadmsgcat.o)
                0x000000000040e320                _nl_load_domain
 *fill*         0x000000000040f8d8        0x8 
 .text          0x000000000040f8e0      0x675 /work/glibc-obj/libc.a(localealias.o)
                0x000000000040fd90                _nl_expand_alias
 *fill*         0x000000000040ff55        0xb 
 .text          0x000000000040ff60      0x623 /work/glibc-obj/libc.a(l10nflist.o)
                0x000000000040ff60                _nl_make_l10nflist
                0x0000000000410480                _nl_normalize_codeset
 *fill*         0x0000000000410583        0xd 
 .text          0x0000000000410590      0x215 /work/glibc-obj/libc.a(explodename.o)
                0x0000000000410590                _nl_explode_name
 *fill*         0x00000000004107a5        0xb 
 .text          0x00000000004107b0      0x8f6 /work/glibc-obj/libc.a(plural.o)
                0x00000000004107b0                __gettext_free_exp
                0x0000000000410900                __gettextparse
 *fill*         0x00000000004110a6        0xa 
 .text          0x00000000004110b0       0xea /work/glibc-obj/libc.a(plural-exp.o)
                0x00000000004110b0                __gettext_extract_plural
 *fill*         0x000000000041119a        0x6 
 .text          0x00000000004111a0       0x3f /work/glibc-obj/libc.a(hash-string.o)
                0x00000000004111a0                __hash_string
 *fill*         0x00000000004111df        0x1 
 .text          0x00000000004111e0        0x7 /work/glibc-obj/libc.a(bsd-_setjmp.o)
                0x00000000004111e0                _setjmp
 *fill*         0x00000000004111e7        0x9 
 .text          0x00000000004111f0       0x3d /work/glibc-obj/libc.a(longjmp.o)
                0x00000000004111f0                longjmp
                0x00000000004111f0                _longjmp
                0x00000000004111f0                siglongjmp
                0x00000000004111f0                __libc_longjmp
                0x00000000004111f0                __libc_siglongjmp
 *fill*         0x000000000041122d        0x3 
 .text          0x0000000000411230       0x50 /work/glibc-obj/libc.a(__longjmp.o)
                0x0000000000411230                __longjmp
 .text          0x0000000000411280       0x19 /work/glibc-obj/libc.a(jmp-unwind.o)
                0x0000000000411280                _longjmp_unwind
 *fill*         0x0000000000411299        0x7 
 .text          0x00000000004112a0       0xe6 /work/glibc-obj/libc.a(raise.o)
                0x00000000004112a0                gsignal
                0x00000000004112a0                raise
 *fill*         0x0000000000411386        0xa 
 .text          0x0000000000411390       0x32 /work/glibc-obj/libc.a(sigprocmask.o)
                0x0000000000411390                __sigprocmask
                0x0000000000411390                sigprocmask
 .text          0x00000000004113c2        0x0 /work/glibc-obj/libc.a(abort.o)
 *fill*         0x00000000004113c2        0xe 
 .text          0x00000000004113d0      0x658 /work/glibc-obj/libc.a(msort.o)
                0x00000000004116d0                __qsort_r
                0x00000000004116d0                qsort_r
                0x0000000000411a20                qsort
 *fill*         0x0000000000411a28        0x8 
 .text          0x0000000000411a30       0xcc /work/glibc-obj/libc.a(getenv.o)
                0x0000000000411a30                getenv
 *fill*         0x0000000000411afc        0x4 
 .text          0x0000000000411b00      0x278 /work/glibc-obj/libc.a(exit.o)
                0x0000000000411b00                __run_exit_handlers
                0x0000000000411d60                exit
 *fill*         0x0000000000411d78        0x8 
 .text          0x0000000000411d80      0x22a /work/glibc-obj/libc.a(cxa_atexit.o)
                0x0000000000411d80                __new_exitfn
                0x0000000000411ea0                __internal_atexit
                0x0000000000411fa0                __cxa_atexit
 *fill*         0x0000000000411faa        0x6 
 .text          0x0000000000411fb0       0x22 /work/glibc-obj/libc.a(strtoul.o)
                0x0000000000411fb0                __strtoull_internal
                0x0000000000411fb0                __strtoul_internal
                0x0000000000411fc0                strtoul
                0x0000000000411fc0                strtoull
                0x0000000000411fc0                strtouq
                0x0000000000411fc0                __strtoul
 *fill*         0x0000000000411fd2        0xe 
 .text          0x0000000000411fe0      0x4ba /work/glibc-obj/libc.a(strtoul_l.o)
                0x0000000000411fe0                ____strtoul_l_internal
                0x0000000000411fe0                ____strtoull_l_internal
                0x0000000000412490                __strtoull_l
                0x0000000000412490                strtoull_l
                0x0000000000412490                strtoul_l
                0x0000000000412490                __strtoul_l
 *fill*         0x000000000041249a        0x6 
 .text          0x00000000004124a0      0x22e /work/glibc-obj/libc.a(grouping.o)
                0x00000000004124a0                __correctly_grouped_prefixmb
 *fill*         0x00000000004126ce        0x2 
 .text          0x00000000004126d0       0x8f /work/glibc-obj/libc.a(fprintf.o)
                0x00000000004126d0                fprintf
                0x00000000004126d0                _IO_fprintf
                0x00000000004126d0                __fprintf
 *fill*         0x000000000041275f        0x1 
 .text          0x0000000000412760       0x8f /work/glibc-obj/libc.a(asprintf.o)
                0x0000000000412760                __asprintf
                0x0000000000412760                asprintf
                0x0000000000412760                ___asprintf
 *fill*         0x00000000004127ef        0x1 
 .text          0x00000000004127f0      0x422 /work/glibc-obj/libc.a(fxprintf.o)
                0x0000000000412950                __fxprintf
                0x0000000000412ab0                __fxprintf_nocancel
 *fill*         0x0000000000412c12        0xe 
 .text          0x0000000000412c20      0x242 /work/glibc-obj/libc.a(iofclose.o)
                0x0000000000412c20                _IO_fclose
                0x0000000000412c20                _IO_new_fclose
                0x0000000000412c20                fclose
                0x0000000000412c20                __new_fclose
 *fill*         0x0000000000412e62        0xe 
 .text          0x0000000000412e70      0x10f /work/glibc-obj/libc.a(iofflush.o)
                0x0000000000412e70                _IO_fflush
                0x0000000000412e70                fflush
 *fill*         0x0000000000412f7f        0x1 
 .text          0x0000000000412f80      0x13a /work/glibc-obj/libc.a(iofopen.o)
                0x0000000000412f80                __fopen_maybe_mmap
                0x0000000000412fc0                __fopen_internal
                0x00000000004130b0                _IO_fopen64
                0x00000000004130b0                _IO_new_fopen
                0x00000000004130b0                fopen
                0x00000000004130b0                _IO_fopen
                0x00000000004130b0                __new_fopen
                0x00000000004130b0                fopen64
 *fill*         0x00000000004130ba        0x6 
 .text          0x00000000004130c0      0x1a2 /work/glibc-obj/libc.a(iofwrite.o)
                0x00000000004130c0                _IO_fwrite
                0x00000000004130c0                fwrite
 *fill*         0x0000000000413262        0xe 
 .text          0x0000000000413270     0x1876 /work/glibc-obj/libc.a(wfileops.o)
                0x0000000000413340                _IO_wfile_underflow
                0x0000000000413950                _IO_wfile_seekoff
                0x0000000000414340                _IO_wdo_write
                0x00000000004144f0                _IO_wfile_overflow
                0x00000000004147b0                _IO_wfile_sync
                0x0000000000414950                _IO_wfile_xsputn
 *fill*         0x0000000000414ae6        0xa 
 .text          0x0000000000414af0      0x154 /work/glibc-obj/libc.a(vasprintf.o)
                0x0000000000414af0                _IO_vasprintf
                0x0000000000414af0                vasprintf
 *fill*         0x0000000000414c44        0xc 
 .text          0x0000000000414c50      0x2fe /work/glibc-obj/libc.a(libc_fatal.o)
                0x0000000000414c60                __libc_message
                0x0000000000414f30                __libc_fatal
 *fill*         0x0000000000414f4e        0x2 
 .text          0x0000000000414f50       0x16 /work/glibc-obj/libc.a(vtables.o)
                0x0000000000414f50                _IO_vtable_check
 *fill*         0x0000000000414f66        0xa 
 .text          0x0000000000414f70       0xa5 /work/glibc-obj/libc.a(iofgets_u.o)
                0x0000000000414f70                __fgets_unlocked
                0x0000000000414f70                fgets_unlocked
 *fill*         0x0000000000415015        0xb 
 .text          0x0000000000415020     0x2369 /work/glibc-obj/libc.a(fileops.o)
                0x0000000000415090                _IO_file_close
                0x00000000004150a0                _IO_file_setbuf
                0x00000000004150a0                _IO_new_file_setbuf
                0x00000000004150d0                _IO_file_setbuf_mmap
                0x0000000000415290                _IO_file_underflow
                0x0000000000415290                _IO_new_file_underflow
                0x0000000000415540                _IO_file_close_mmap
                0x0000000000415790                _IO_file_seek
                0x0000000000415980                _IO_file_underflow_maybe_mmap
                0x0000000000415a30                _IO_file_seekoff
                0x0000000000415a30                _IO_new_file_seekoff
                0x0000000000415f90                _IO_file_stat
                0x0000000000415fa0                _IO_file_write
                0x0000000000415fa0                _IO_new_file_write
                0x0000000000416140                _IO_file_xsgetn
                0x0000000000416380                _IO_file_seekoff_mmap
                0x00000000004164a0                _IO_file_underflow_mmap
                0x0000000000416530                _IO_file_read
                0x0000000000416550                _IO_new_file_xsputn
                0x0000000000416550                _IO_file_xsputn
                0x0000000000416730                _IO_new_file_init_internal
                0x0000000000416760                _IO_new_file_init
                0x0000000000416760                _IO_file_init
                0x0000000000416790                _IO_file_open
                0x0000000000416880                _IO_new_file_attach
                0x0000000000416880                _IO_file_attach
                0x0000000000416930                _IO_new_do_write
                0x0000000000416930                _IO_do_write
                0x0000000000416960                _IO_new_file_close_it
                0x0000000000416960                _IO_file_close_it
                0x0000000000416b00                _IO_new_file_fopen
                0x0000000000416b00                _IO_file_fopen
                0x0000000000416ff0                _IO_file_finish
                0x0000000000416ff0                _IO_new_file_finish
                0x0000000000417090                _IO_file_overflow
                0x0000000000417090                _IO_new_file_overflow
                0x00000000004172a0                _IO_file_sync
                0x00000000004172a0                _IO_new_file_sync
 *fill*         0x0000000000417389        0x7 
 .text          0x0000000000417390     0x21e7 /work/glibc-obj/libc.a(genops.o)
                0x00000000004178a0                _IO_un_link
                0x00000000004178c0                _IO_link_in
                0x0000000000417b00                _IO_least_marker
                0x0000000000417b30                _IO_switch_to_main_get_area
                0x0000000000417b60                _IO_switch_to_backup_area
                0x0000000000417b90                _IO_switch_to_get_mode
                0x0000000000417c30                _IO_free_backup_area
                0x0000000000417c80                __overflow
                0x0000000000417ce0                __underflow
                0x0000000000417e00                __uflow
                0x0000000000417f20                _IO_setb
                0x0000000000417f80                _IO_doallocbuf
                0x0000000000418040                _IO_default_underflow
                0x0000000000418050                _IO_default_uflow
                0x00000000004180b0                _IO_default_xsputn
                0x00000000004181d0                _IO_sgetn
                0x0000000000418230                _IO_default_xsgetn
                0x00000000004182f0                _IO_default_setbuf
                0x0000000000418420                _IO_default_seekpos
                0x0000000000418480                _IO_default_doallocate
                0x00000000004184e0                _IO_enable_locks
                0x0000000000418520                _IO_old_init
                0x00000000004185d0                _IO_init_internal
                0x0000000000418600                _IO_init
                0x0000000000418610                _IO_no_init
                0x00000000004186c0                _IO_default_sync
                0x00000000004186d0                _IO_default_finish
                0x0000000000418750                _IO_default_seekoff
                0x0000000000418760                _IO_sputbackc
                0x00000000004187d0                _IO_sungetc
                0x0000000000418850                _IO_adjust_column
                0x00000000004188a0                _IO_flush_all_lockp
                0x0000000000418b50                _IO_cleanup
                0x0000000000418e60                _IO_flush_all
                0x0000000000418e70                _IO_flush_all_linebuffered
                0x0000000000418e70                _flushlbf
                0x00000000004190e0                _IO_init_marker
                0x0000000000419140                _IO_remove_marker
                0x0000000000419180                _IO_marker_difference
                0x0000000000419190                _IO_marker_delta
                0x00000000004191c0                _IO_seekmark
                0x0000000000419260                _IO_unsave_markers
                0x0000000000419290                _IO_default_pbackfail
                0x0000000000419410                _IO_default_seek
                0x0000000000419420                _IO_default_stat
                0x0000000000419430                _IO_default_read
                0x0000000000419440                _IO_default_write
                0x0000000000419450                _IO_default_showmanyc
                0x0000000000419460                _IO_default_imbue
                0x0000000000419470                _IO_iter_begin
                0x0000000000419480                _IO_iter_end
                0x0000000000419490                _IO_iter_next
                0x00000000004194a0                _IO_iter_file
                0x00000000004194b0                _IO_list_lock
                0x0000000000419510                _IO_list_unlock
                0x0000000000419560                _IO_list_resetlock
 .text          0x0000000000419577        0x0 /work/glibc-obj/libc.a(stdfiles.o)
 .text          0x0000000000419577        0x0 /work/glibc-obj/libc.a(stdio.o)
 *fill*         0x0000000000419577        0x9 
 .text          0x0000000000419580      0x7a2 /work/glibc-obj/libc.a(strops.o)
                0x0000000000419580                _IO_str_underflow
                0x00000000004195e0                _IO_str_overflow
                0x0000000000419920                _IO_str_seekoff
                0x0000000000419be0                _IO_str_pbackfail
                0x0000000000419c00                _IO_str_finish
                0x0000000000419c30                _IO_str_init_static_internal
                0x0000000000419cd0                _IO_str_init_static
                0x0000000000419cf0                _IO_str_init_readonly
                0x0000000000419d10                _IO_str_count
 *fill*         0x0000000000419d22        0xe 
 .text          0x0000000000419d30     0x6387 /work/glibc-obj/libc.a(malloc.o)
                0x0000000000419d30                _dl_tunable_set_mmap_threshold
                0x0000000000419d60                _dl_tunable_set_mmaps_max
                0x0000000000419d80                _dl_tunable_set_top_pad
                0x0000000000419da0                _dl_tunable_set_perturb_byte
                0x0000000000419db0                _dl_tunable_set_trim_threshold
                0x0000000000419dd0                _dl_tunable_set_arena_max
                0x0000000000419de0                _dl_tunable_set_arena_test
                0x0000000000419df0                _dl_tunable_set_tcache_max
                0x0000000000419e30                _dl_tunable_set_tcache_count
                0x0000000000419e40                _dl_tunable_set_tcache_unsorted_limit
                0x000000000041e5e0                _dl_tunable_set_mallopt_check
                0x000000000041e640                ers_get_recorder
                0x000000000041e650                __malloc_fork_lock_parent
                0x000000000041e700                __malloc_fork_unlock_parent
                0x000000000041e790                __malloc_fork_unlock_child
                0x000000000041e830                __malloc_check_init
                0x000000000041e890                malloc
                0x000000000041e890                __malloc
                0x000000000041e890                __libc_malloc
                0x000000000041eeb0                __free
                0x000000000041eeb0                __libc_free
                0x000000000041eeb0                free
                0x000000000041efa0                __libc_realloc
                0x000000000041efa0                realloc
                0x000000000041efa0                __realloc
                0x000000000041f370                __libc_memalign
                0x000000000041f370                __memalign
                0x000000000041f370                memalign
                0x000000000041f370                aligned_alloc
                0x000000000041f380                __libc_valloc
                0x000000000041f380                valloc
                0x000000000041f380                __valloc
                0x000000000041f3b0                pvalloc
                0x000000000041f3b0                __libc_pvalloc
                0x000000000041f3b0                __pvalloc
                0x000000000041f420                __calloc
                0x000000000041f420                calloc
                0x000000000041f420                __libc_calloc
                0x000000000041f7f0                __malloc_trim
                0x000000000041f7f0                malloc_trim
                0x000000000041faa0                malloc_usable_size
                0x000000000041faa0                __malloc_usable_size
                0x000000000041fb60                __mallinfo
                0x000000000041fb60                __libc_mallinfo
                0x000000000041fb60                mallinfo
                0x000000000041fc60                malloc_stats
                0x000000000041fc60                __malloc_stats
                0x000000000041fe40                __libc_mallopt
                0x000000000041fe40                mallopt
                0x000000000041fe40                __mallopt
                0x0000000000420010                __posix_memalign
                0x0000000000420010                posix_memalign
                0x0000000000420070                __malloc_info
                0x0000000000420070                malloc_info
 *fill*         0x00000000004200b7        0x9 
 .text          0x00000000004200c0       0x1b /work/glibc-obj/libc.a(morecore.o)
                0x00000000004200c0                __default_morecore
 .text          0x00000000004200db        0x0 /work/glibc-obj/libc.a(thread-freeres.o)
 *fill*         0x00000000004200db        0x5 
 .text          0x00000000004200e0       0x2d /work/glibc-obj/libc.a(strchr.o)
                0x00000000004200e0                index
                0x00000000004200e0                strchr
 *fill*         0x000000000042010d        0x3 
 .text          0x0000000000420110       0x24 /work/glibc-obj/libc.a(strcmp.o)
                0x0000000000420110                strcmp
 *fill*         0x0000000000420134        0xc 
 .text          0x0000000000420140       0x24 /work/glibc-obj/libc.a(strcpy.o)
                0x0000000000420140                strcpy
 *fill*         0x0000000000420164        0xc 
 .text          0x0000000000420170       0x16 /work/glibc-obj/libc.a(strcspn.o)
                0x0000000000420170                strcspn
 *fill*         0x0000000000420186        0xa 
 .text          0x0000000000420190       0x41 /work/glibc-obj/libc.a(strdup.o)
                0x0000000000420190                __strdup
                0x0000000000420190                strdup
 *fill*         0x00000000004201d1        0xf 
 .text          0x00000000004201e0       0x1f /work/glibc-obj/libc.a(strlen.o)
                0x00000000004201e0                strlen
 *fill*         0x00000000004201ff        0x1 
 .text          0x0000000000420200       0x2e /work/glibc-obj/libc.a(strncmp.o)
                0x0000000000420200                strncmp
 *fill*         0x000000000042022e        0x2 
 .text          0x0000000000420230      0x956 /work/glibc-obj/libc.a(strstr.o)
                0x00000000004206f0                __strstr_sse2
                0x0000000000420b70                strstr
                0x0000000000420b70                __libc_strstr
 *fill*         0x0000000000420b86        0xa 
 .text          0x0000000000420b90       0x1f /work/glibc-obj/libc.a(memchr.o)
                0x0000000000420b90                memchr
                0x0000000000420b90                __memchr
 *fill*         0x0000000000420baf        0x1 
 .text          0x0000000000420bb0       0x53 /work/glibc-obj/libc.a(memcmp.o)
                0x0000000000420bb0                bcmp
                0x0000000000420bb0                memcmp
 *fill*         0x0000000000420c03        0xd 
 .text          0x0000000000420c10       0xa6 /work/glibc-obj/libc.a(memmove.o)
                0x0000000000420c10                memmove
                0x0000000000420c10                __libc_memmove
 *fill*         0x0000000000420cb6        0xa 
 .text          0x0000000000420cc0       0x83 /work/glibc-obj/libc.a(memset.o)
                0x0000000000420cc0                memset
 *fill*         0x0000000000420d43        0xd 
 .text          0x0000000000420d50       0xa6 /work/glibc-obj/libc.a(mempcpy.o)
                0x0000000000420d50                mempcpy
                0x0000000000420d50                __mempcpy
 *fill*         0x0000000000420df6        0xa 
 .text          0x0000000000420e00       0x24 /work/glibc-obj/libc.a(stpcpy.o)
                0x0000000000420e00                stpcpy
                0x0000000000420e00                __stpcpy
 *fill*         0x0000000000420e24        0xc 
 .text          0x0000000000420e30       0x3a /work/glibc-obj/libc.a(strcasecmp_l.o)
                0x0000000000420e30                strcasecmp_l
                0x0000000000420e30                __strcasecmp_l
 *fill*         0x0000000000420e6a        0x6 
 .text          0x0000000000420e70       0xa6 /work/glibc-obj/libc.a(memcpy.o)
                0x0000000000420e70                memcpy
                0x0000000000420e70                __new_memcpy
 *fill*         0x0000000000420f16        0xa 
 .text          0x0000000000420f20       0x1f /work/glibc-obj/libc.a(rawmemchr.o)
                0x0000000000420f20                __rawmemchr
                0x0000000000420f20                rawmemchr
 *fill*         0x0000000000420f3f        0x1 
 .text          0x0000000000420f40       0x1f /work/glibc-obj/libc.a(strchrnul.o)
                0x0000000000420f40                __strchrnul
                0x0000000000420f40                strchrnul
 *fill*         0x0000000000420f5f        0x1 
 .text          0x0000000000420f60     0x1439 /work/glibc-obj/libc.a(strcmp-sse2.o)
                0x0000000000420f60                __strcmp_sse2
 *fill*         0x0000000000422399        0x7 
 .text          0x00000000004223a0      0x2a3 /work/glibc-obj/libc.a(strcmp-sse2-unaligned.o)
                0x00000000004223a0                __strcmp_sse2_unaligned
 .text          0x0000000000422643        0x0 /work/glibc-obj/libc.a(strcmp-ssse3.o)
 *fill*         0x0000000000422643        0xd 
 .text.ssse3    0x0000000000422650     0x1259 /work/glibc-obj/libc.a(strcmp-ssse3.o)
                0x0000000000422650                __strcmp_ssse3
 *fill*         0x00000000004238a9        0x7 
 .text          0x00000000004238b0     0x1849 /work/glibc-obj/libc.a(strncmp-sse2.o)
                0x00000000004238b0                __strncmp_sse2
 .text          0x00000000004250f9        0x0 /work/glibc-obj/libc.a(strncmp-ssse3.o)
 *fill*         0x00000000004250f9        0x7 
 .text.ssse3    0x0000000000425100     0x1759 /work/glibc-obj/libc.a(strncmp-ssse3.o)
                0x0000000000425100                __strncmp_ssse3
 .text          0x0000000000426859        0x0 /work/glibc-obj/libc.a(strncmp-sse4_2.o)
 *fill*         0x0000000000426859        0x7 
 .text.sse4.2   0x0000000000426860      0xfd9 /work/glibc-obj/libc.a(strncmp-sse4_2.o)
                0x0000000000426860                __strncmp_sse42
 *fill*         0x0000000000427839        0x7 
 .text          0x0000000000427840      0x323 /work/glibc-obj/libc.a(memchr-sse2.o)
                0x0000000000427840                __memchr_sse2
 *fill*         0x0000000000427b63        0xd 
 .text          0x0000000000427b70      0x1f9 /work/glibc-obj/libc.a(rawmemchr-sse2.o)
                0x0000000000427b70                __rawmemchr_sse2
 .text          0x0000000000427d69        0x0 /work/glibc-obj/libc.a(memchr-avx2.o)
 *fill*         0x0000000000427d69        0x7 
 .text.avx      0x0000000000427d70      0x2cd /work/glibc-obj/libc.a(memchr-avx2.o)
                0x0000000000427d70                __memchr_avx2
 .text          0x000000000042803d        0x0 /work/glibc-obj/libc.a(rawmemchr-avx2.o)
 *fill*         0x000000000042803d        0x3 
 .text.avx      0x0000000000428040      0x13d /work/glibc-obj/libc.a(rawmemchr-avx2.o)
                0x0000000000428040                __rawmemchr_avx2
 *fill*         0x000000000042817d        0x3 
 .text          0x0000000000428180      0x400 /work/glibc-obj/libc.a(memcmp-sse2.o)
                0x0000000000428180                __memcmp_sse2
 .text          0x0000000000428580        0x0 /work/glibc-obj/libc.a(memcmp-avx2-movbe.o)
 .text.avx      0x0000000000428580      0x3d4 /work/glibc-obj/libc.a(memcmp-avx2-movbe.o)
                0x0000000000428580                __memcmp_avx2_movbe
 .text          0x0000000000428954        0x0 /work/glibc-obj/libc.a(memcmp-sse4.o)
 *fill*         0x0000000000428954        0xc 
 .text.sse4.1   0x0000000000428960     0x163e /work/glibc-obj/libc.a(memcmp-sse4.o)
                0x0000000000428960                __memcmp_sse4_1
 .text          0x0000000000429f9e        0x0 /work/glibc-obj/libc.a(memcpy-ssse3.o)
 *fill*         0x0000000000429f9e        0x2 
 .text.ssse3    0x0000000000429fa0     0x29e6 /work/glibc-obj/libc.a(memcpy-ssse3.o)
                0x0000000000429fa0                __mempcpy_chk_ssse3
                0x0000000000429fb0                __mempcpy_ssse3
                0x0000000000429fc0                __memcpy_chk_ssse3
                0x0000000000429fd0                __memcpy_ssse3
 .text          0x000000000042c986        0x0 /work/glibc-obj/libc.a(memmove-ssse3.o)
 *fill*         0x000000000042c986        0xa 
 .text.ssse3    0x000000000042c990     0x2b77 /work/glibc-obj/libc.a(memmove-ssse3.o)
                0x000000000042c990                __memmove_chk_ssse3
                0x000000000042c9a0                __memmove_ssse3
 .text          0x000000000042f507        0x0 /work/glibc-obj/libc.a(memcpy-ssse3-back.o)
 *fill*         0x000000000042f507        0x9 
 .text.ssse3    0x000000000042f510     0x2ae6 /work/glibc-obj/libc.a(memcpy-ssse3-back.o)
                0x000000000042f510                __mempcpy_chk_ssse3_back
                0x000000000042f520                __mempcpy_ssse3_back
                0x000000000042f530                __memcpy_chk_ssse3_back
                0x000000000042f540                __memcpy_ssse3_back
 .text          0x0000000000431ff6        0x0 /work/glibc-obj/libc.a(memmove-ssse3-back.o)
 *fill*         0x0000000000431ff6        0xa 
 .text.ssse3    0x0000000000432000     0x2b16 /work/glibc-obj/libc.a(memmove-ssse3-back.o)
                0x0000000000432000                __memmove_chk_ssse3_back
                0x0000000000432010                __memmove_ssse3_back
 .text          0x0000000000434b16        0x0 /work/glibc-obj/libc.a(memmove-avx512-no-vzeroupper.o)
 *fill*         0x0000000000434b16        0xa 
 .text.avx512   0x0000000000434b20      0x76b /work/glibc-obj/libc.a(memmove-avx512-no-vzeroupper.o)
                0x0000000000434b20                __mempcpy_chk_avx512_no_vzeroupper
                0x0000000000434b30                __mempcpy_avx512_no_vzeroupper
                0x0000000000434b40                __memcpy_chk_avx512_no_vzeroupper
                0x0000000000434b40                __memmove_chk_avx512_no_vzeroupper
                0x0000000000434b50                __memcpy_avx512_no_vzeroupper
                0x0000000000434b50                __memmove_avx512_no_vzeroupper
 *fill*         0x000000000043528b        0x5 
 .text          0x0000000000435290     0x2236 /work/glibc-obj/libc.a(strcasecmp_l-sse2.o)
                0x0000000000435290                __strcasecmp_sse2
                0x00000000004352a0                __strcasecmp_l_sse2
 .text          0x00000000004374c6        0x0 /work/glibc-obj/libc.a(strcasecmp_l-ssse3.o)
 *fill*         0x00000000004374c6        0xa 
 .text.ssse3    0x00000000004374d0     0x2146 /work/glibc-obj/libc.a(strcasecmp_l-ssse3.o)
                0x00000000004374d0                __strcasecmp_ssse3
                0x00000000004374e0                __strcasecmp_l_ssse3
 .text          0x0000000000439616        0x0 /work/glibc-obj/libc.a(strcasecmp_l-sse4_2.o)
 *fill*         0x0000000000439616        0xa 
 .text.sse4.2   0x0000000000439620     0x1ba6 /work/glibc-obj/libc.a(strcasecmp_l-sse4_2.o)
                0x0000000000439620                __strcasecmp_sse42
                0x0000000000439630                __strcasecmp_l_sse42
 .text          0x000000000043b1c6        0x0 /work/glibc-obj/libc.a(strcasecmp_l-avx.o)
 *fill*         0x000000000043b1c6        0xa 
 .text.avx      0x000000000043b1d0     0x1666 /work/glibc-obj/libc.a(strcasecmp_l-avx.o)
                0x000000000043b1d0                __strcasecmp_avx
                0x000000000043b1e0                __strcasecmp_l_avx
 *fill*         0x000000000043c836        0xa 
 .text          0x000000000043c840      0x21a /work/glibc-obj/libc.a(strchr-sse2.o)
                0x000000000043c840                __strchr_sse2
 *fill*         0x000000000043ca5a        0x6 
 .text          0x000000000043ca60      0x20a /work/glibc-obj/libc.a(strchrnul-sse2.o)
                0x000000000043ca60                __strchrnul_sse2
 .text          0x000000000043cc6a        0x0 /work/glibc-obj/libc.a(strchr-avx2.o)
 *fill*         0x000000000043cc6a        0x6 
 .text.avx      0x000000000043cc70      0x224 /work/glibc-obj/libc.a(strchr-avx2.o)
                0x000000000043cc70                __strchr_avx2
 .text          0x000000000043ce94        0x0 /work/glibc-obj/libc.a(strchrnul-avx2.o)
 *fill*         0x000000000043ce94        0xc 
 .text.avx      0x000000000043cea0      0x1ed /work/glibc-obj/libc.a(strchrnul-avx2.o)
                0x000000000043cea0                __strchrnul_avx2
 *fill*         0x000000000043d08d        0x3 
 .text          0x000000000043d090      0x19c /work/glibc-obj/libc.a(strlen-sse2.o)
                0x000000000043d090                __strlen_sse2
 .text          0x000000000043d22c        0x0 /work/glibc-obj/libc.a(strlen-avx2.o)
 *fill*         0x000000000043d22c        0x4 
 .text.avx      0x000000000043d230      0x190 /work/glibc-obj/libc.a(strlen-avx2.o)
                0x000000000043d230                __strlen_avx2
 .text          0x000000000043d3c0       0xdc /work/glibc-obj/libc.a(strcpy-sse2.o)
                0x000000000043d3c0                __strcpy_sse2
 *fill*         0x000000000043d49c        0x4 
 .text          0x000000000043d4a0       0xdc /work/glibc-obj/libc.a(stpcpy-sse2.o)
                0x000000000043d4a0                __stpcpy_sse2
 .text          0x000000000043d57c        0x0 /work/glibc-obj/libc.a(strcpy-ssse3.o)
 *fill*         0x000000000043d57c        0x4 
 .text.ssse3    0x000000000043d580     0x17a2 /work/glibc-obj/libc.a(strcpy-ssse3.o)
                0x000000000043d580                __strcpy_ssse3
 .text          0x000000000043ed22        0x0 /work/glibc-obj/libc.a(stpcpy-ssse3.o)
 *fill*         0x000000000043ed22        0xe 
 .text.ssse3    0x000000000043ed30     0x1803 /work/glibc-obj/libc.a(stpcpy-ssse3.o)
                0x000000000043ed30                __stpcpy_ssse3
 *fill*         0x0000000000440533        0xd 
 .text          0x0000000000440540      0x630 /work/glibc-obj/libc.a(strcpy-sse2-unaligned.o)
                0x0000000000440540                __strcpy_sse2_unaligned
 .text          0x0000000000440b70      0x6b0 /work/glibc-obj/libc.a(stpcpy-sse2-unaligned.o)
                0x0000000000440b70                __stpcpy_sse2_unaligned
 .text          0x0000000000441220        0x0 /work/glibc-obj/libc.a(strchr-sse2-no-bsf.o)
 .text.atom     0x0000000000441220      0x315 /work/glibc-obj/libc.a(strchr-sse2-no-bsf.o)
                0x0000000000441220                __strchr_sse2_no_bsf
 .text          0x0000000000441535        0x0 /work/glibc-obj/libc.a(memcmp-ssse3.o)
 *fill*         0x0000000000441535        0xb 
 .text.atom     0x0000000000441540     0x1763 /work/glibc-obj/libc.a(memcmp-ssse3.o)
                0x0000000000441540                __memcmp_ssse3
 *fill*         0x0000000000442ca3        0xd 
 .text          0x0000000000442cb0      0x493 /work/glibc-obj/libc.a(strstr-sse2-unaligned.o)
                0x0000000000442cb0                __strstr_sse2_unaligned
 *fill*         0x0000000000443143        0xd 
 .text          0x0000000000443150       0x97 /work/glibc-obj/libc.a(strcspn-sse2.o)
                0x0000000000443150                __strcspn_sse2
 .text          0x00000000004431e7        0x0 /work/glibc-obj/libc.a(strcspn-c.o)
 *fill*         0x00000000004431e7        0x9 
 .text.sse4.2   0x00000000004431f0      0x16f /work/glibc-obj/libc.a(strcspn-c.o)
                0x00000000004431f0                __strcspn_sse42
 .text          0x000000000044335f        0x0 /work/glibc-obj/libc.a(varshift.o)
 .text          0x000000000044335f        0x0 /work/glibc-obj/libc.a(memset-avx512-no-vzeroupper.o)
 *fill*         0x000000000044335f        0x1 
 .text.avx512   0x0000000000443360      0x270 /work/glibc-obj/libc.a(memset-avx512-no-vzeroupper.o)
                0x0000000000443360                __memset_avx512_no_vzeroupper
 .text          0x00000000004435d0      0x3a9 /work/glibc-obj/libc.a(memmove-sse2-unaligned-erms.o)
                0x00000000004435d0                __mempcpy_sse2_unaligned
                0x00000000004435e0                __memmove_sse2_unaligned
                0x00000000004435e0                __memcpy_sse2_unaligned
                0x0000000000443610                __mempcpy_chk_erms
                0x0000000000443620                __mempcpy_erms
                0x0000000000443630                __memcpy_chk_erms
                0x0000000000443630                __memmove_chk_erms
                0x0000000000443640                __memmove_erms
                0x0000000000443640                __memcpy_erms
                0x0000000000443670                __mempcpy_sse2_unaligned_erms
                0x0000000000443680                __memmove_sse2_unaligned_erms
                0x0000000000443680                __memcpy_sse2_unaligned_erms
 .text          0x0000000000443979        0x0 /work/glibc-obj/libc.a(memmove-avx-unaligned-erms.o)
 *fill*         0x0000000000443979        0x7 
 .text.avx      0x0000000000443980      0x424 /work/glibc-obj/libc.a(memmove-avx-unaligned-erms.o)
                0x0000000000443980                __mempcpy_avx_unaligned
                0x0000000000443990                __memcpy_avx_unaligned
                0x0000000000443990                __memmove_avx_unaligned
                0x00000000004439c0                __mempcpy_avx_unaligned_erms
                0x00000000004439d0                __memcpy_avx_unaligned_erms
                0x00000000004439d0                __memmove_avx_unaligned_erms
 .text          0x0000000000443da4        0x0 /work/glibc-obj/libc.a(memmove-avx512-unaligned-erms.o)
 *fill*         0x0000000000443da4        0xc 
 .text.avx512   0x0000000000443db0      0x558 /work/glibc-obj/libc.a(memmove-avx512-unaligned-erms.o)
                0x0000000000443db0                __mempcpy_avx512_unaligned
                0x0000000000443dc0                __memmove_avx512_unaligned
                0x0000000000443dc0                __memcpy_avx512_unaligned
                0x0000000000443e00                __mempcpy_avx512_unaligned_erms
                0x0000000000443e10                __memmove_avx512_unaligned_erms
                0x0000000000443e10                __memcpy_avx512_unaligned_erms
 *fill*         0x0000000000444308        0x8 
 .text          0x0000000000444310      0x163 /work/glibc-obj/libc.a(memset-sse2-unaligned-erms.o)
                0x0000000000444310                __bzero
                0x0000000000444310                bzero
                0x0000000000444320                __wmemset_sse2_unaligned
                0x0000000000444340                __memset_sse2_unaligned
                0x0000000000444370                __memset_chk_erms
                0x0000000000444380                __memset_erms
                0x0000000000444390                __memset_sse2_unaligned_erms
 .text          0x0000000000444473        0x0 /work/glibc-obj/libc.a(memset-avx2-unaligned-erms.o)
 *fill*         0x0000000000444473        0xd 
 .text.avx      0x0000000000444480      0x17b /work/glibc-obj/libc.a(memset-avx2-unaligned-erms.o)
                0x0000000000444480                __wmemset_avx2_unaligned
                0x00000000004444a0                __memset_avx2_unaligned
                0x00000000004444d0                __memset_avx2_erms
                0x00000000004444f0                __memset_avx2_unaligned_erms
 .text          0x00000000004445fb        0x0 /work/glibc-obj/libc.a(memset-avx512-unaligned-erms.o)
 *fill*         0x00000000004445fb        0x5 
 .text.avx512   0x0000000000444600      0x1d1 /work/glibc-obj/libc.a(memset-avx512-unaligned-erms.o)
                0x0000000000444600                __wmemset_avx512_unaligned
                0x0000000000444620                __memset_avx512_unaligned
                0x0000000000444660                __memset_avx512_erms
                0x0000000000444680                __memset_avx512_unaligned_erms
 *fill*         0x00000000004447d1        0xf 
 .text          0x00000000004447e0      0x5a5 /work/glibc-obj/libc.a(cacheinfo.o)
                0x0000000000444d60                __cache_sysconf
 *fill*         0x0000000000444d85        0xb 
 .text          0x0000000000444d90       0x33 /work/glibc-obj/libc.a(strcasecmp_l-nonascii.o)
                0x0000000000444d90                __strcasecmp_l_nonascii
 *fill*         0x0000000000444dc3        0xd 
 .text          0x0000000000444dd0        0x9 /work/glibc-obj/libc.a(wmempcpy.o)
                0x0000000000444dd0                wmempcpy
                0x0000000000444dd0                __wmempcpy
 *fill*         0x0000000000444dd9        0x7 
 .text          0x0000000000444de0       0x1c /work/glibc-obj/libc.a(mbsrtowcs.o)
                0x0000000000444de0                mbsrtowcs
                0x0000000000444de0                __mbsrtowcs
 *fill*         0x0000000000444dfc        0x4 
 .text          0x0000000000444e00      0x3f3 /work/glibc-obj/libc.a(wcsmbsload.o)
                0x0000000000444e00                _nl_cleanup_ctype
                0x0000000000444e50                __wcsmbs_getfct
                0x0000000000444eb0                __wcsmbs_load_conv
                0x0000000000445110                __wcsmbs_clone_conv
                0x0000000000445190                __wcsmbs_named_conv
 *fill*         0x00000000004451f3        0xd 
 .text          0x0000000000445200      0x30f /work/glibc-obj/libc.a(mbsrtowcs_l.o)
                0x0000000000445200                __mbsrtowcs_l
 *fill*         0x000000000044550f        0x1 
 .text          0x0000000000445510       0x22 /work/glibc-obj/libc.a(gettimeofday.o)
                0x0000000000445510                __gettimeofday
                0x0000000000445510                gettimeofday
 *fill*         0x0000000000445532        0xe 
 .text          0x0000000000445540       0x58 /work/glibc-obj/libc.a(_exit.o)
                0x0000000000445540                _Exit
                0x0000000000445540                _exit
 *fill*         0x0000000000445598        0x8 
 .text          0x00000000004455a0        0x8 /work/glibc-obj/libc.a(getpid.o)
                0x00000000004455a0                __getpid
                0x00000000004455a0                getpid
 *fill*         0x00000000004455a8        0x8 
 .text          0x00000000004455b0      0x4a8 /work/glibc-obj/libc.a(sysconf.o)
                0x0000000000445690                sysconf
                0x0000000000445690                __sysconf
 *fill*         0x0000000000445a58        0x8 
 .text          0x0000000000445a60       0x14 /work/glibc-obj/libc.a(sched_getp.o)
                0x0000000000445a60                __sched_getparam
                0x0000000000445a60                sched_getparam
 *fill*         0x0000000000445a74        0xc 
 .text          0x0000000000445a80       0x14 /work/glibc-obj/libc.a(sched_sets.o)
                0x0000000000445a80                sched_setscheduler
                0x0000000000445a80                __sched_setscheduler
 *fill*         0x0000000000445a94        0xc 
 .text          0x0000000000445aa0       0x14 /work/glibc-obj/libc.a(sched_gets.o)
                0x0000000000445aa0                sched_getscheduler
                0x0000000000445aa0                __sched_getscheduler
 *fill*         0x0000000000445ab4        0xc 
 .text          0x0000000000445ac0       0x14 /work/glibc-obj/libc.a(sched_yield.o)
                0x0000000000445ac0                __sched_yield
                0x0000000000445ac0                sched_yield
 *fill*         0x0000000000445ad4        0xc 
 .text          0x0000000000445ae0       0x14 /work/glibc-obj/libc.a(sched_primax.o)
                0x0000000000445ae0                __sched_get_priority_max
                0x0000000000445ae0                sched_get_priority_max
 *fill*         0x0000000000445af4        0xc 
 .text          0x0000000000445b00       0x14 /work/glibc-obj/libc.a(sched_primin.o)
                0x0000000000445b00                sched_get_priority_min
                0x0000000000445b00                __sched_get_priority_min
 *fill*         0x0000000000445b14        0xc 
 .text          0x0000000000445b20       0x29 /work/glibc-obj/libc.a(get_child_max.o)
                0x0000000000445b20                __get_child_max
 .text          0x0000000000445b49        0x0 /work/glibc-obj/libc.a(environ.o)
 *fill*         0x0000000000445b49        0x7 
 .text          0x0000000000445b50       0x4c /work/glibc-obj/libc.a(xstat.o)
                0x0000000000445b50                _xstat
                0x0000000000445b50                __xstat64
                0x0000000000445b50                __xstat
 *fill*         0x0000000000445b9c        0x4 
 .text          0x0000000000445ba0       0x4c /work/glibc-obj/libc.a(fxstat.o)
                0x0000000000445ba0                __fxstat64
                0x0000000000445ba0                _fxstat
                0x0000000000445ba0                __fxstat
 *fill*         0x0000000000445bec        0x4 
 .text          0x0000000000445bf0      0x16a /work/glibc-obj/libc.a(open64.o)
                0x0000000000445bf0                __open
                0x0000000000445bf0                __libc_open64
                0x0000000000445bf0                __libc_open
                0x0000000000445bf0                open64
                0x0000000000445bf0                open
                0x0000000000445bf0                __open64
                0x0000000000445ce0                __open_nocancel
                0x0000000000445ce0                __open64_nocancel
 *fill*         0x0000000000445d5a        0x6 
 .text          0x0000000000445d60       0xc4 /work/glibc-obj/libc.a(read.o)
                0x0000000000445d60                __read
                0x0000000000445d60                __libc_read
                0x0000000000445d60                read
                0x0000000000445e00                __read_nocancel
 *fill*         0x0000000000445e24        0xc 
 .text          0x0000000000445e30       0xc4 /work/glibc-obj/libc.a(write.o)
                0x0000000000445e30                __write
                0x0000000000445e30                write
                0x0000000000445e30                __libc_write
                0x0000000000445ed0                __write_nocancel
 *fill*         0x0000000000445ef4        0xc 
 .text          0x0000000000445f00       0x24 /work/glibc-obj/libc.a(lseek64.o)
                0x0000000000445f00                __lseek64
                0x0000000000445f00                lseek
                0x0000000000445f00                __libc_lseek64
                0x0000000000445f00                llseek
                0x0000000000445f00                __lseek
                0x0000000000445f00                __libc_lseek
                0x0000000000445f00                lseek64
 *fill*         0x0000000000445f24        0xc 
 .text          0x0000000000445f30      0x14f /work/glibc-obj/libc.a(fcntl.o)
                0x0000000000445f90                __libc_fcntl
                0x0000000000445f90                __fcntl
                0x0000000000445f90                fcntl
                0x0000000000446050                __fcntl_nocancel
 *fill*         0x000000000044607f        0x1 
 .text          0x0000000000446080       0xa2 /work/glibc-obj/libc.a(close.o)
                0x0000000000446080                __libc_close
                0x0000000000446080                __close
                0x0000000000446080                close
                0x0000000000446100                __close_nocancel
 *fill*         0x0000000000446122        0xe 
 .text          0x0000000000446130      0x6e5 /work/glibc-obj/libc.a(getcwd.o)
                0x0000000000446130                __getcwd
                0x0000000000446130                getcwd
 *fill*         0x0000000000446815        0xb 
 .text          0x0000000000446820       0x32 /work/glibc-obj/libc.a(getrlimit64.o)
                0x0000000000446820                getrlimit
                0x0000000000446820                getrlimit64
                0x0000000000446820                __getrlimit
                0x0000000000446820                __GI___getrlimit
                0x0000000000446820                __GI_getrlimit
                0x0000000000446820                __getrlimit64
 *fill*         0x0000000000446852        0xe 
 .text          0x0000000000446860       0x97 /work/glibc-obj/libc.a(sbrk.o)
                0x0000000000446860                sbrk
                0x0000000000446860                __sbrk
 *fill*         0x00000000004468f7        0x9 
 .text          0x0000000000446900       0x27 /work/glibc-obj/libc.a(getpagesize.o)
                0x0000000000446900                getpagesize
                0x0000000000446900                __getpagesize
 *fill*         0x0000000000446927        0x9 
 .text          0x0000000000446930       0x2c /work/glibc-obj/libc.a(getdtsz.o)
                0x0000000000446930                __getdtablesize
                0x0000000000446930                getdtablesize
 *fill*         0x000000000044695c        0x4 
 .text          0x0000000000446960       0xd8 /work/glibc-obj/libc.a(mmap64.o)
                0x0000000000446960                __mmap
                0x0000000000446960                mmap
                0x0000000000446960                __mmap64
                0x0000000000446960                mmap64
 *fill*         0x0000000000446a38        0x8 
 .text          0x0000000000446a40       0x14 /work/glibc-obj/libc.a(munmap.o)
                0x0000000000446a40                munmap
                0x0000000000446a40                __munmap
 *fill*         0x0000000000446a54        0xc 
 .text          0x0000000000446a60       0x14 /work/glibc-obj/libc.a(mprotect.o)
                0x0000000000446a60                __mprotect
                0x0000000000446a60                mprotect
 *fill*         0x0000000000446a74        0xc 
 .text          0x0000000000446a80       0x14 /work/glibc-obj/libc.a(madvise.o)
                0x0000000000446a80                madvise
                0x0000000000446a80                __madvise
 *fill*         0x0000000000446a94        0xc 
 .text          0x0000000000446aa0      0x9c1 /work/glibc-obj/libc.a(tsearch.o)
                0x0000000000446ce0                tsearch
                0x0000000000446ce0                __tsearch
                0x0000000000446e50                tfind
                0x0000000000446e50                __tfind
                0x0000000000446eb0                tdelete
                0x0000000000446eb0                __tdelete
                0x0000000000447430                __twalk
                0x0000000000447430                twalk
                0x0000000000447450                __tdestroy
                0x0000000000447450                tdestroy
 *fill*         0x0000000000447461        0xf 
 .text          0x0000000000447470      0x5ee /work/glibc-obj/libc.a(getsysstats.o)
                0x0000000000447670                __get_nprocs
                0x0000000000447670                get_nprocs
                0x0000000000447960                __get_nprocs_conf
                0x0000000000447960                get_nprocs_conf
                0x0000000000447a20                get_phys_pages
                0x0000000000447a20                __get_phys_pages
                0x0000000000447a40                get_avphys_pages
                0x0000000000447a40                __get_avphys_pages
 *fill*         0x0000000000447a5e        0x2 
 .text          0x0000000000447a60       0x11 /work/glibc-obj/libc.a(getclktck.o)
                0x0000000000447a60                __getclktck
 *fill*         0x0000000000447a71        0xf 
 .text          0x0000000000447a80       0x51 /work/glibc-obj/libc.a(init-misc.o)
                0x0000000000447a80                __init_misc
 *fill*         0x0000000000447ad1        0xf 
 .text          0x0000000000447ae0       0x55 /work/glibc-obj/libc.a(clone.o)
                0x0000000000447ae0                __clone
                0x0000000000447ae0                clone
 *fill*         0x0000000000447b35        0xb 
 .text          0x0000000000447b40       0x17 /work/glibc-obj/libc.a(mremap.o)
                0x0000000000447b40                mremap
                0x0000000000447b40                __mremap
 *fill*         0x0000000000447b57        0x9 
 .text          0x0000000000447b60       0x14 /work/glibc-obj/libc.a(sysinfo.o)
                0x0000000000447b60                sysinfo
                0x0000000000447b60                __sysinfo
 *fill*         0x0000000000447b74        0xc 
 .text          0x0000000000447b80       0x44 /work/glibc-obj/libc.a(alloca_cutoff.o)
                0x0000000000447b80                __libc_alloca_cutoff
 *fill*         0x0000000000447bc4        0xc 
 .text          0x0000000000447bd0       0xb9 /work/glibc-obj/libc.a(libc-cancellation.o)
                0x0000000000447bd0                __libc_enable_asynccancel
                0x0000000000447c30                __libc_disable_asynccancel
 *fill*         0x0000000000447c89        0x7 
 .text          0x0000000000447c90       0x23 /work/glibc-obj/libc.a(libc_pthread_init.o)
                0x0000000000447c90                __libc_pthread_init
 .text          0x0000000000447cb3        0x0 /work/glibc-obj/libc.a(libc_multiple_threads.o)
 *fill*         0x0000000000447cb3        0xd 
 .text          0x0000000000447cc0      0x1c4 /work/glibc-obj/libc.a(register-atfork.o)
                0x0000000000447cc0                __linkin_atfork
                0x0000000000447d30                __register_atfork
 *fill*         0x0000000000447e84        0xc 
 .text          0x0000000000447e90        0xe /work/glibc-obj/libc.a(chk_fail.o)
                0x0000000000447e90                __chk_fail
 *fill*         0x0000000000447e9e        0x2 
 .text          0x0000000000447ea0       0x61 /work/glibc-obj/libc.a(fortify_fail.o)
                0x0000000000447ea0                __fortify_fail_abort
                0x0000000000447ef0                __fortify_fail
 *fill*         0x0000000000447f01        0xf 
 .text          0x0000000000447f10       0x84 /work/glibc-obj/libc.a(res_libc.o)
                0x0000000000447f10                __res_init
 *fill*         0x0000000000447f94        0xc 
 .text          0x0000000000447fa0       0x11 /work/glibc-obj/libc.a(res_randomid.o)
                0x0000000000447fa0                __res_randomid
 *fill*         0x0000000000447fb1        0xf 
 .text          0x0000000000447fc0       0xca /work/glibc-obj/libc.a(res-close.o)
                0x0000000000447fc0                __res_iclose
                0x0000000000448080                __res_nclose
 *fill*         0x000000000044808a        0x6 
 .text          0x0000000000448090      0x3b9 /work/glibc-obj/libc.a(resolv_context.o)
                0x0000000000448320                __resolv_context_get
                0x0000000000448340                __resolv_context_get_preinit
                0x0000000000448370                __resolv_context_get_override
                0x0000000000448390                __resolv_context_put
                0x0000000000448410                __resolv_context_freeres
 *fill*         0x0000000000448449        0x7 
 .text          0x0000000000448450     0x104f /work/glibc-obj/libc.a(resolv_conf.o)
                0x00000000004488e0                __resolv_conf_get_current
                0x0000000000448ab0                __resolv_conf_get
                0x0000000000448b80                __resolv_conf_put
                0x0000000000448ba0                __resolv_conf_allocate
                0x0000000000448ee0                __resolv_conf_attach
                0x00000000004493f0                __resolv_conf_detach
 *fill*         0x000000000044949f        0x1 
 .text          0x00000000004494a0       0x7c /work/glibc-obj/libc.a(dl-debug.o)
                0x00000000004494a0                _dl_debug_state
                0x00000000004494b0                _dl_debug_initialize
 *fill*         0x000000000044951c        0x4 
 .text          0x0000000000449520      0x7c2 /work/glibc-obj/libc.a(dl-tls.o)
                0x0000000000449590                _dl_next_tls_modid
                0x0000000000449680                _dl_count_modids
                0x00000000004496f0                _dl_get_tls_static_info
                0x0000000000449710                _dl_allocate_tls_storage
                0x00000000004497d0                _dl_allocate_tls_init
                0x0000000000449ac0                _dl_allocate_tls
                0x0000000000449b00                _dl_deallocate_tls
                0x0000000000449b80                _dl_tls_get_addr_soft
                0x0000000000449c00                _dl_add_to_slotinfo
 *fill*         0x0000000000449ce2        0xe 
 .text          0x0000000000449cf0       0x5c /work/glibc-obj/libc.a(dl-execstack.o)
                0x0000000000449cf0                _dl_make_stack_executable
 *fill*         0x0000000000449d4c        0x4 
 .text          0x0000000000449d50      0x668 /work/glibc-obj/libc.a(dl-tunables.o)
                0x0000000000449e10                __tunable_set_val
                0x0000000000449e30                __tunables_init
                0x000000000044a330                __tunable_get_val
 *fill*         0x000000000044a3b8        0x8 
 .text          0x000000000044a3c0      0xb3f /work/glibc-obj/libc.a(dl-support.o)
                0x000000000044a3c0                _dl_aux_init
                0x000000000044a700                _dl_non_dynamic_init
 *fill*         0x000000000044aeff        0x1 
 .text          0x000000000044af00       0xf7 /work/glibc-obj/libc.a(dl-iteratephdr.o)
                0x000000000044af00                dl_iterate_phdr
                0x000000000044af00                __dl_iterate_phdr
 *fill*         0x000000000044aff7        0x9 
 .text          0x000000000044b000       0x45 /work/glibc-obj/libc.a(enbl-secure.o)
                0x000000000044b000                __libc_init_secure
 *fill*         0x000000000044b045        0xb 
 .text          0x000000000044b050       0x31 /work/glibc-obj/libc.a(dl-profstub.o)
                0x000000000044b050                _dl_mcount_wrapper
                0x000000000044b060                _dl_mcount_wrapper_check
 *fill*         0x000000000044b081        0xf 
 .text          0x000000000044b090      0xc95 /work/glibc-obj/libc.a(dl-sysdep.o)
                0x000000000044b090                _dl_tunable_set_hwcaps
                0x000000000044bc20                _dl_discover_osversion
 *fill*         0x000000000044bd25        0xb 
 .text          0x000000000044bd30      0x231 /work/glibc-obj/libc.a(dl-error.o)
                0x000000000044bdd0                _dl_signal_exception
                0x000000000044be20                _dl_signal_error
                0x000000000044be70                _dl_catch_exception
                0x000000000044bf20                _dl_catch_error
 *fill*         0x000000000044bf61        0xf 
 .text          0x000000000044bf70       0x81 /work/glibc-obj/libc.a(init-first.o)
                0x000000000044bf70                __libc_init_first
 *fill*         0x000000000044bff1        0xf 
 .text          0x000000000044c000       0x10 /work/glibc-obj/libc.a(sysdep.o)
                0x000000000044c000                __syscall_error
                0x000000000044c003                __syscall_error_1
 .text          0x000000000044c010      0x477 /work/glibc-obj/libc.a(gconv_open.o)
                0x000000000044c010                __gconv_open
 *fill*         0x000000000044c487        0x9 
 .text          0x000000000044c490      0x1e8 /work/glibc-obj/libc.a(gconv.o)
                0x000000000044c490                __gconv
 *fill*         0x000000000044c678        0x8 
 .text          0x000000000044c680       0x61 /work/glibc-obj/libc.a(gconv_close.o)
                0x000000000044c680                __gconv_close
 *fill*         0x000000000044c6e1        0xf 
 .text          0x000000000044c6f0     0x107c /work/glibc-obj/libc.a(gconv_db.o)
                0x000000000044c6f0                __gconv_alias_compare
                0x000000000044c740                __gconv_get_modules_db
                0x000000000044c750                __gconv_get_alias_db
                0x000000000044c760                __gconv_release_step
                0x000000000044d2e0                __gconv_compare_alias
                0x000000000044d3c0                __gconv_find_transform
                0x000000000044d6b0                __gconv_close_transform
 *fill*         0x000000000044d76c        0x4 
 .text          0x000000000044d770      0xcce /work/glibc-obj/libc.a(gconv_conf.o)
                0x000000000044dc90                __gconv_get_path
                0x000000000044e000                __gconv_read_conf
 *fill*         0x000000000044e43e        0x2 
 .text          0x000000000044e440       0xc6 /work/glibc-obj/libc.a(gconv_builtin.o)
                0x000000000044e440                __gconv_get_builtin_trans
 *fill*         0x000000000044e506        0xa 
 .text          0x000000000044e510     0x4cde /work/glibc-obj/libc.a(gconv_simple.o)
                0x000000000044e510                __gconv_btwoc_ascii
                0x000000000044e520                __gconv_transform_internal_ucs4
                0x000000000044e890                __gconv_transform_ucs4_internal
                0x000000000044ece0                __gconv_transform_internal_ucs4le
                0x000000000044f070                __gconv_transform_ucs4le_internal
                0x000000000044f4d0                __gconv_transform_ascii_internal
                0x000000000044f7b0                __gconv_transform_internal_ascii
                0x000000000044ff60                __gconv_transform_internal_utf8
                0x0000000000450ab0                __gconv_transform_utf8_internal
                0x0000000000451780                __gconv_transform_ucs2_internal
                0x0000000000451cd0                __gconv_transform_internal_ucs2
                0x00000000004524c0                __gconv_transform_ucs2reverse_internal
                0x0000000000452a00                __gconv_transform_internal_ucs2reverse
 *fill*         0x00000000004531ee        0x2 
 .text          0x00000000004531f0      0x440 /work/glibc-obj/libc.a(gconv_trans.o)
                0x00000000004531f0                __gconv_transliterate
 .text          0x0000000000453630      0x8f1 /work/glibc-obj/libc.a(gconv_cache.o)
                0x0000000000453800                __gconv_get_cache
                0x0000000000453810                __gconv_load_cache
                0x00000000004539f0                __gconv_compare_alias_cache
                0x0000000000453a70                __gconv_lookup_cache
                0x0000000000453f10                __gconv_release_cache
 *fill*         0x0000000000453f21        0xf 
 .text          0x0000000000453f30      0x278 /work/glibc-obj/libc.a(gconv_dl.o)
                0x0000000000453fc0                __gconv_find_shlib
                0x0000000000454190                __gconv_release_shlib
 *fill*         0x00000000004541a8        0x8 
 .text          0x00000000004541b0      0x7b0 /work/glibc-obj/libc.a(setlocale.o)
                0x0000000000454380                setlocale
 .text          0x0000000000454960      0x729 /work/glibc-obj/libc.a(findlocale.o)
                0x0000000000454a40                _nl_find_locale
                0x0000000000455040                _nl_remove_locale
 *fill*         0x0000000000455089        0x7 
 .text          0x0000000000455090      0x5e6 /work/glibc-obj/libc.a(loadlocale.o)
                0x0000000000455090                _nl_intern_locale_data
                0x00000000004552d0                _nl_load_locale
                0x0000000000455620                _nl_unload_locale
 *fill*         0x0000000000455676        0xa 
 .text          0x0000000000455680      0x4f4 /work/glibc-obj/libc.a(loadarchive.o)
                0x0000000000455680                _nl_load_locale_from_archive
 *fill*         0x0000000000455b74        0xc 
 .text          0x0000000000455b80       0x72 /work/glibc-obj/libc.a(lc-ctype.o)
                0x0000000000455b80                _nl_postload_ctype
 .text          0x0000000000455bf2        0x0 /work/glibc-obj/libc.a(C-ctype.o)
 .text          0x0000000000455bf2        0x0 /work/glibc-obj/libc.a(SYS_libc.o)
 .text          0x0000000000455bf2        0x0 /work/glibc-obj/libc.a(C_name.o)
 .text          0x0000000000455bf2        0x0 /work/glibc-obj/libc.a(xlocale.o)
 *fill*         0x0000000000455bf2        0xe 
 .text          0x0000000000455c00       0x17 /work/glibc-obj/libc.a(localename.o)
                0x0000000000455c00                __current_locale_name
 .text          0x0000000000455c17        0x0 /work/glibc-obj/libc.a(global-locale.o)
 *fill*         0x0000000000455c17        0x9 
 .text          0x0000000000455c20       0x1e /work/glibc-obj/libc.a(setfpucw.o)
                0x0000000000455c20                __setfpucw
 .text          0x0000000000455c3e        0x0 /work/glibc-obj/libc.a(fpu_control.o)
 *fill*         0x0000000000455c3e        0x2 
 .text          0x0000000000455c40       0x57 /work/glibc-obj/libc.a(setjmp.o)
                0x0000000000455c40                __sigsetjmp
 *fill*         0x0000000000455c97        0x9 
 .text          0x0000000000455ca0       0x2c /work/glibc-obj/libc.a(sigjmp.o)
                0x0000000000455ca0                __sigjmp_save
 *fill*         0x0000000000455ccc        0x4 
 .text          0x0000000000455cd0      0x447 /work/glibc-obj/libc.a(qsort.o)
                0x0000000000455cd0                _quicksort
 *fill*         0x0000000000456117        0x9 
 .text          0x0000000000456120      0x5a2 /work/glibc-obj/libc.a(setenv.o)
                0x0000000000456120                __add_to_environ
                0x0000000000456480                setenv
                0x0000000000456480                __setenv
                0x00000000004564e0                unsetenv
                0x00000000004564e0                __unsetenv
                0x0000000000456610                clearenv
                0x0000000000456610                __clearenv
 *fill*         0x00000000004566c2        0xe 
 .text          0x00000000004566d0       0x13 /work/glibc-obj/libc.a(secure-getenv.o)
                0x00000000004566d0                secure_getenv
                0x00000000004566d0                __libc_secure_getenv
 *fill*         0x00000000004566e3        0xd 
 .text          0x00000000004566f0       0x22 /work/glibc-obj/libc.a(strtol.o)
                0x00000000004566f0                __strtol_internal
                0x00000000004566f0                __strtoll_internal
                0x0000000000456700                strtoll
                0x0000000000456700                strtoq
                0x0000000000456700                strtol
                0x0000000000456700                __strtol
 *fill*         0x0000000000456712        0xe 
 .text          0x0000000000456720      0x55a /work/glibc-obj/libc.a(strtol_l.o)
                0x0000000000456720                ____strtol_l_internal
                0x0000000000456720                ____strtoll_l_internal
                0x0000000000456c70                strtoll_l
                0x0000000000456c70                strtol_l
                0x0000000000456c70                __strtoll_l
                0x0000000000456c70                __strtol_l
 *fill*         0x0000000000456c7a        0x6 
 .text          0x0000000000456c80     0x57d2 /work/glibc-obj/libc.a(vfprintf.o)
                0x00000000004596d0                _IO_vfprintf_internal
                0x00000000004596d0                _IO_vfprintf
                0x00000000004596d0                vfprintf
 *fill*         0x000000000045c452        0xe 
 .text          0x000000000045c460     0x2b83 /work/glibc-obj/libc.a(printf_fp.o)
                0x000000000045c820                __printf_fp_l
                0x000000000045efb0                ___printf_fp
                0x000000000045efb0                __printf_fp
                0x000000000045efd0                __guess_grouping
 *fill*         0x000000000045efe3        0xd 
 .text          0x000000000045eff0      0x115 /work/glibc-obj/libc.a(reg-printf.o)
                0x000000000045eff0                __register_printf_specifier
                0x000000000045eff0                register_printf_specifier
                0x000000000045f100                __register_printf_function
                0x000000000045f100                register_printf_function
 *fill*         0x000000000045f105        0xb 
 .text          0x000000000045f110     0x1c1c /work/glibc-obj/libc.a(printf_fphex.o)
                0x000000000045f110                __printf_fphex
 *fill*         0x0000000000460d2c        0x4 
 .text          0x0000000000460d30      0x358 /work/glibc-obj/libc.a(reg-modifier.o)
                0x0000000000460d30                __register_printf_modifier
                0x0000000000460d30                register_printf_modifier
                0x0000000000460ee0                __handle_registered_modifier_mb
                0x0000000000460fc0                __handle_registered_modifier_wc
 *fill*         0x0000000000461088        0x8 
 .text          0x0000000000461090       0xe5 /work/glibc-obj/libc.a(reg-type.o)
                0x0000000000461090                __register_printf_type
                0x0000000000461090                register_printf_type
 *fill*         0x0000000000461175        0xb 
 .text          0x0000000000461180     0x5a12 /work/glibc-obj/libc.a(vfwprintf.o)
                0x0000000000463c30                _IO_vfwprintf
                0x0000000000463c30                vfwprintf
                0x0000000000463c30                __vfwprintf
 *fill*         0x0000000000466b92        0xe 
 .text          0x0000000000466ba0       0x40 /work/glibc-obj/libc.a(funlockfile.o)
                0x0000000000466ba0                _IO_funlockfile
                0x0000000000466ba0                funlockfile
                0x0000000000466ba0                __funlockfile
 .text          0x0000000000466be0      0x64c /work/glibc-obj/libc.a(printf-parsemb.o)
                0x0000000000466c50                __parse_one_specmb
 *fill*         0x000000000046722c        0x4 
 .text          0x0000000000467230      0x6c7 /work/glibc-obj/libc.a(printf-parsewc.o)
                0x00000000004672d0                __parse_one_specwc
 *fill*         0x00000000004678f7        0x9 
 .text          0x0000000000467900      0x12a /work/glibc-obj/libc.a(filedoalloc.o)
                0x0000000000467900                _IO_file_doallocate
 *fill*         0x0000000000467a2a        0x6 
 .text          0x0000000000467a30      0x152 /work/glibc-obj/libc.a(iofputs.o)
                0x0000000000467a30                _IO_fputs
                0x0000000000467a30                fputs
 *fill*         0x0000000000467b82        0xe 
 .text          0x0000000000467b90       0x73 /work/glibc-obj/libc.a(wfiledoalloc.o)
                0x0000000000467b90                _IO_wfile_doallocate
 *fill*         0x0000000000467c03        0xd 
 .text          0x0000000000467c10      0x2d3 /work/glibc-obj/libc.a(iogetdelim.o)
                0x0000000000467c10                __getdelim
                0x0000000000467c10                getdelim
                0x0000000000467c10                _IO_getdelim
 *fill*         0x0000000000467ee3        0xd 
 .text          0x0000000000467ef0      0x198 /work/glibc-obj/libc.a(iogetline.o)
                0x0000000000467ef0                _IO_getline_info
                0x0000000000468080                _IO_getline
 *fill*         0x0000000000468088        0x8 
 .text          0x0000000000468090       0xef /work/glibc-obj/libc.a(iopadn.o)
                0x0000000000468090                _IO_padn
 *fill*         0x000000000046817f        0x1 
 .text          0x0000000000468180       0xef /work/glibc-obj/libc.a(iowpadn.o)
                0x0000000000468180                _IO_wpadn
 *fill*         0x000000000046826f        0x1 
 .text          0x0000000000468270      0xfe1 /work/glibc-obj/libc.a(wgenops.o)
                0x0000000000468500                _IO_least_wmarker
                0x0000000000468540                _IO_switch_to_main_wget_area
                0x0000000000468580                _IO_switch_to_wbackup_area
                0x00000000004685c0                _IO_wsetb
                0x0000000000468630                _IO_wdefault_pbackfail
                0x00000000004687f0                _IO_wdefault_finish
                0x0000000000468870                _IO_wdefault_uflow
                0x00000000004688d0                __woverflow
                0x0000000000468930                _IO_wdefault_xsputn
                0x0000000000468a40                _IO_wdoallocbuf
                0x0000000000468a90                _IO_wdefault_doallocate
                0x0000000000468ad0                _IO_switch_to_wget_mode
                0x0000000000468b50                _IO_free_wbackup_area
                0x0000000000468bc0                __wuflow
                0x0000000000468d20                __wunderflow
                0x0000000000468e80                _IO_wdefault_xsgetn
                0x0000000000468f70                _IO_sputbackwc
                0x0000000000468ff0                _IO_sungetwc
                0x0000000000469070                _IO_adjust_wcolumn
                0x00000000004690c0                _IO_init_wmarker
                0x0000000000469130                _IO_wmarker_delta
                0x0000000000469180                _IO_seekwmark
                0x0000000000469230                _IO_unsave_wmarkers
 *fill*         0x0000000000469251        0xf 
 .text          0x0000000000469260      0x534 /work/glibc-obj/libc.a(iofwide.o)
                0x00000000004695e0                _IO_fwide
 *fill*         0x0000000000469794        0xc 
 .text          0x00000000004697a0       0xa5 /work/glibc-obj/libc.a(scratch_buffer_grow_preserve.o)
                0x00000000004697a0                __libc_scratch_buffer_grow_preserve
 *fill*         0x0000000000469845        0xb 
 .text          0x0000000000469850       0xb8 /work/glibc-obj/libc.a(scratch_buffer_set_array_size.o)
                0x0000000000469850                __libc_scratch_buffer_set_array_size
 *fill*         0x0000000000469908        0x8 
 .text          0x0000000000469910       0x29 /work/glibc-obj/libc.a(dynarray_at_failure.o)
                0x0000000000469910                __libc_dynarray_at_failure
 *fill*         0x0000000000469939        0x7 
 .text          0x0000000000469940      0x10d /work/glibc-obj/libc.a(dynarray_emplace_enlarge.o)
                0x0000000000469940                __libc_dynarray_emplace_enlarge
 *fill*         0x0000000000469a4d        0x3 
 .text          0x0000000000469a50       0x5a /work/glibc-obj/libc.a(alloc_buffer_alloc_array.o)
                0x0000000000469a50                __libc_alloc_buffer_alloc_array
 *fill*         0x0000000000469aaa        0x6 
 .text          0x0000000000469ab0       0x4a /work/glibc-obj/libc.a(alloc_buffer_allocate.o)
                0x0000000000469ab0                __libc_alloc_buffer_allocate
 *fill*         0x0000000000469afa        0x6 
 .text          0x0000000000469b00       0x2b /work/glibc-obj/libc.a(alloc_buffer_copy_string.o)
                0x0000000000469b00                __libc_alloc_buffer_copy_string
 *fill*         0x0000000000469b2b        0x5 
 .text          0x0000000000469b30       0x26 /work/glibc-obj/libc.a(alloc_buffer_create_failure.o)
                0x0000000000469b30                __libc_alloc_buffer_create_failure
 *fill*         0x0000000000469b56        0xa 
 .text          0x0000000000469b60       0x49 /work/glibc-obj/libc.a(strndup.o)
                0x0000000000469b60                strndup
                0x0000000000469b60                __strndup
 *fill*         0x0000000000469ba9        0x7 
 .text          0x0000000000469bb0      0x178 /work/glibc-obj/libc.a(_strerror.o)
                0x0000000000469bb0                __strerror_r
                0x0000000000469bb0                strerror_r
 *fill*         0x0000000000469d28        0x8 
 .text          0x0000000000469d30       0x1f /work/glibc-obj/libc.a(strnlen.o)
                0x0000000000469d30                __strnlen
                0x0000000000469d30                strnlen
 *fill*         0x0000000000469d4f        0x1 
 .text          0x0000000000469d50       0x1f /work/glibc-obj/libc.a(strrchr.o)
                0x0000000000469d50                strrchr
                0x0000000000469d50                rindex
 *fill*         0x0000000000469d6f        0x1 
 .text          0x0000000000469d70       0x65 /work/glibc-obj/libc.a(strtok_r.o)
                0x0000000000469d70                strtok_r
                0x0000000000469d70                __strtok_r
 *fill*         0x0000000000469dd5        0xb 
 .text          0x0000000000469de0      0x6a0 /work/glibc-obj/libc.a(memmem.o)
                0x000000000046a1d0                memmem
                0x000000000046a1d0                __memmem
 .text          0x000000000046a480       0xe2 /work/glibc-obj/libc.a(argz-ctsep.o)
                0x000000000046a480                __argz_create_sep
                0x000000000046a480                argz_create_sep
 *fill*         0x000000000046a562        0xe 
 .text          0x000000000046a570       0xca /work/glibc-obj/libc.a(argz-addsep.o)
                0x000000000046a570                argz_add_sep
                0x000000000046a570                __argz_add_sep
 *fill*         0x000000000046a63a        0x6 
 .text          0x000000000046a640      0x2e2 /work/glibc-obj/libc.a(strrchr-sse2.o)
                0x000000000046a640                __strrchr_sse2
 .text          0x000000000046a922        0x0 /work/glibc-obj/libc.a(strrchr-avx2.o)
 *fill*         0x000000000046a922        0xe 
 .text.avx      0x000000000046a930      0x1c6 /work/glibc-obj/libc.a(strrchr-avx2.o)
                0x000000000046a930                __strrchr_avx2
 *fill*         0x000000000046aaf6        0xa 
 .text          0x000000000046ab00      0x218 /work/glibc-obj/libc.a(strnlen-sse2.o)
                0x000000000046ab00                __strnlen_sse2
 .text          0x000000000046ad18        0x0 /work/glibc-obj/libc.a(strnlen-avx2.o)
 *fill*         0x000000000046ad18        0x8 
 .text.avx      0x000000000046ad20      0x320 /work/glibc-obj/libc.a(strnlen-avx2.o)
                0x000000000046ad20                __strnlen_avx2
 .text          0x000000000046b040       0x1f /work/glibc-obj/libc.a(wcslen.o)
                0x000000000046b040                wcslen
                0x000000000046b040                __wcslen
 *fill*         0x000000000046b05f        0x1 
 .text          0x000000000046b060        0x9 /work/glibc-obj/libc.a(wmemcpy.o)
                0x000000000046b060                wmemcpy
                0x000000000046b060                __wmemcpy
 *fill*         0x000000000046b069        0x7 
 .text          0x000000000046b070        0x9 /work/glibc-obj/libc.a(wmemmove.o)
                0x000000000046b070                __wmemmove
                0x000000000046b070                wmemmove
 *fill*         0x000000000046b079        0x7 
 .text          0x000000000046b080       0x3b /work/glibc-obj/libc.a(wmemset.o)
                0x000000000046b080                wmemset
                0x000000000046b080                __wmemset
 *fill*         0x000000000046b0bb        0x5 
 .text          0x000000000046b0c0      0x175 /work/glibc-obj/libc.a(btowc.o)
                0x000000000046b0c0                __btowc
                0x000000000046b0c0                btowc
 *fill*         0x000000000046b235        0xb 
 .text          0x000000000046b240      0x1a6 /work/glibc-obj/libc.a(wcrtomb.o)
                0x000000000046b240                c32rtomb
                0x000000000046b240                __wcrtomb
                0x000000000046b240                wcrtomb
 *fill*         0x000000000046b3e6        0xa 
 .text          0x000000000046b3f0      0x27f /work/glibc-obj/libc.a(wcsrtombs.o)
                0x000000000046b3f0                wcsrtombs
                0x000000000046b3f0                __wcsrtombs
 *fill*         0x000000000046b66f        0x1 
 .text          0x000000000046b670       0x2f /work/glibc-obj/libc.a(wcsnlen.o)
                0x000000000046b670                wcsnlen
                0x000000000046b670                __wcsnlen
 *fill*         0x000000000046b69f        0x1 
 .text          0x000000000046b6a0       0x1f /work/glibc-obj/libc.a(wcschrnul.o)
                0x000000000046b6a0                __wcschrnul
                0x000000000046b6a0                wcschrnul
 *fill*         0x000000000046b6bf        0x1 
 .text          0x000000000046b6c0      0x21c /work/glibc-obj/libc.a(wcsnlen-sse4_1.o)
                0x000000000046b6c0                __wcsnlen_sse4_1
 *fill*         0x000000000046b8dc        0x4 
 .text          0x000000000046b8e0       0x98 /work/glibc-obj/libc.a(wcsnlen-c.o)
                0x000000000046b8e0                __wcsnlen_sse2
 *fill*         0x000000000046b978        0x8 
 .text          0x000000000046b980      0x298 /work/glibc-obj/libc.a(wcslen-sse2.o)
                0x000000000046b980                __wcslen_sse2
 .text          0x000000000046bc18        0x0 /work/glibc-obj/libc.a(wcslen-avx2.o)
 *fill*         0x000000000046bc18        0x8 
 .text.avx      0x000000000046bc20      0x1a4 /work/glibc-obj/libc.a(wcslen-avx2.o)
                0x000000000046bc20                __wcslen_avx2
 .text          0x000000000046bdc4        0x0 /work/glibc-obj/libc.a(wcsnlen-avx2.o)
 *fill*         0x000000000046bdc4        0xc 
 .text.avx      0x000000000046bdd0      0x344 /work/glibc-obj/libc.a(wcsnlen-avx2.o)
                0x000000000046bdd0                __wcsnlen_avx2
 *fill*         0x000000000046c114        0xc 
 .text          0x000000000046c120        0x8 /work/glibc-obj/libc.a(time.o)
                0x000000000046c120                time
 *fill*         0x000000000046c128        0x8 
 .text          0x000000000046c130      0x1f1 /work/glibc-obj/libc.a(opendir.o)
                0x000000000046c130                __alloc_dir
                0x000000000046c2b0                __opendirat
                0x000000000046c2f0                __opendir
                0x000000000046c2f0                opendir
 *fill*         0x000000000046c321        0xf 
 .text          0x000000000046c330       0x29 /work/glibc-obj/libc.a(closedir.o)
                0x000000000046c330                __closedir
                0x000000000046c330                closedir
 *fill*         0x000000000046c359        0x7 
 .text          0x000000000046c360      0x100 /work/glibc-obj/libc.a(readdir.o)
                0x000000000046c360                readdir
                0x000000000046c360                __readdir64
                0x000000000046c360                __readdir
                0x000000000046c360                __GI___readdir64
                0x000000000046c360                readdir64
 .text          0x000000000046c460       0x93 /work/glibc-obj/libc.a(rewinddir.o)
                0x000000000046c460                rewinddir
                0x000000000046c460                __rewinddir
 *fill*         0x000000000046c4f3        0xd 
 .text          0x000000000046c500       0x8d /work/glibc-obj/libc.a(getdents.o)
                0x000000000046c500                __getdents
                0x000000000046c500                __getdents64
 *fill*         0x000000000046c58d        0x3 
 .text          0x000000000046c590       0x9a /work/glibc-obj/libc.a(fdopendir.o)
                0x000000000046c590                fdopendir
                0x000000000046c590                __fdopendir
 *fill*         0x000000000046c62a        0x6 
 .text          0x000000000046c630       0x14 /work/glibc-obj/libc.a(uname.o)
                0x000000000046c630                uname
                0x000000000046c630                __uname
 *fill*         0x000000000046c644        0xc 
 .text          0x000000000046c650        0x8 /work/glibc-obj/libc.a(getuid.o)
                0x000000000046c650                getuid
                0x000000000046c650                __getuid
 *fill*         0x000000000046c658        0x8 
 .text          0x000000000046c660        0x8 /work/glibc-obj/libc.a(geteuid.o)
                0x000000000046c660                geteuid
                0x000000000046c660                __geteuid
 *fill*         0x000000000046c668        0x8 
 .text          0x000000000046c670        0x8 /work/glibc-obj/libc.a(getgid.o)
                0x000000000046c670                getgid
                0x000000000046c670                __getgid
 *fill*         0x000000000046c678        0x8 
 .text          0x000000000046c680        0x8 /work/glibc-obj/libc.a(getegid.o)
                0x000000000046c680                getegid
                0x000000000046c680                __getegid
 *fill*         0x000000000046c688        0x8 
 .text          0x000000000046c690       0x4c /work/glibc-obj/libc.a(lxstat.o)
                0x000000000046c690                _lxstat
                0x000000000046c690                __lxstat
                0x000000000046c690                __lxstat64
 *fill*         0x000000000046c6dc        0x4 
 .text          0x000000000046c6e0       0x54 /work/glibc-obj/libc.a(fxstatat.o)
                0x000000000046c6e0                __fxstatat
                0x000000000046c6e0                __fxstatat64
                0x000000000046c6e0                __GI___fxstatat64
 *fill*         0x000000000046c734        0xc 
 .text          0x000000000046c740      0x15a /work/glibc-obj/libc.a(openat64.o)
                0x000000000046c740                __openat64
                0x000000000046c740                openat64
                0x000000000046c740                __libc_openat64
                0x000000000046c740                __openat
                0x000000000046c740                openat
                0x000000000046c830                __openat64_nocancel
                0x000000000046c830                __openat_nocancel
 *fill*         0x000000000046c89a        0x6 
 .text          0x000000000046c8a0       0x19 /work/glibc-obj/libc.a(isatty.o)
                0x000000000046c8a0                isatty
                0x000000000046c8a0                __isatty
 *fill*         0x000000000046c8b9        0x7 
 .text          0x000000000046c8c0       0x9a /work/glibc-obj/libc.a(tcgetattr.o)
                0x000000000046c8c0                __tcgetattr
                0x000000000046c8c0                tcgetattr
 *fill*         0x000000000046c95a        0x6 
 .text          0x000000000046c960       0x54 /work/glibc-obj/libc.a(brk.o)
                0x000000000046c960                __brk
                0x000000000046c960                brk
 *fill*         0x000000000046c9b4        0xc 
 .text          0x000000000046c9c0       0x85 /work/glibc-obj/libc.a(wctrans.o)
                0x000000000046c9c0                __wctrans
                0x000000000046c9c0                wctrans
 *fill*         0x000000000046ca45        0xb 
 .text          0x000000000046ca50       0x45 /work/glibc-obj/libc.a(towctrans.o)
                0x000000000046ca50                towctrans
                0x000000000046ca50                __towctrans
 *fill*         0x000000000046ca95        0xb 
 .text          0x000000000046caa0      0x1a6 /work/glibc-obj/libc.a(readonly-area.o)
                0x000000000046caa0                __readonly_area
 *fill*         0x000000000046cc46        0xa 
 .text          0x000000000046cc50     0x1157 /work/glibc-obj/libc.a(res_init.o)
                0x000000000046cec0                __resolv_conf_load
                0x000000000046dce0                __res_vinit
                0x000000000046dda0                __res_ninit
 *fill*         0x000000000046dda7        0x9 
 .text          0x000000000046ddb0      0xb25 /work/glibc-obj/libc.a(res_hconf.o)
                0x000000000046e470                _res_hconf_init
                0x000000000046e4c0                _res_hconf_reorder_addrs
                0x000000000046e7f0                _res_hconf_trim_domain
                0x000000000046e880                _res_hconf_trim_domains
 *fill*         0x000000000046e8d5        0xb 
 .text          0x000000000046e8e0     0x34b4 /work/glibc-obj/libc.a(dl-load.o)
                0x0000000000470880                _dl_dst_count
                0x0000000000470910                _dl_dst_substitute
                0x0000000000471080                _dl_init_paths
                0x0000000000471320                _dl_map_object
                0x0000000000471ba0                _dl_rtld_di_serinfo
 *fill*         0x0000000000471d94        0xc 
 .text          0x0000000000471da0     0x19d6 /work/glibc-obj/libc.a(dl-lookup.o)
                0x0000000000472a70                _dl_lookup_symbol_x
                0x00000000004736d0                _dl_setup_hash
 *fill*         0x0000000000473776        0xa 
 .text          0x0000000000473780      0x3cc /work/glibc-obj/libc.a(dl-object.o)
                0x0000000000473780                _dl_add_to_namespace_list
                0x0000000000473840                _dl_new_object
 *fill*         0x0000000000473b4c        0x4 
 .text          0x0000000000473b50     0x19df /work/glibc-obj/libc.a(dl-reloc.o)
                0x0000000000473b50                _dl_try_allocate_static_tls
                0x0000000000473c10                _dl_allocate_static_tls
                0x0000000000473c40                _dl_nothread_init_static_tls
                0x0000000000473c80                _dl_protect_relro
                0x0000000000473cf0                _dl_reloc_bad_type
                0x0000000000473dd0                _dl_relocate_object
 *fill*         0x000000000047552f        0x1 
 .text          0x0000000000475530      0x74d /work/glibc-obj/libc.a(dl-hwcaps.o)
                0x0000000000475530                _dl_important_hwcaps
 *fill*         0x0000000000475c7d        0x3 
 .text          0x0000000000475c80      0xab1 /work/glibc-obj/libc.a(dl-misc.o)
                0x0000000000476250                _dl_sysdep_read_whole_file
                0x00000000004762f0                _dl_debug_printf
                0x00000000004763a0                _dl_debug_printf_c
                0x0000000000476450                _dl_dprintf
                0x00000000004764f0                _dl_name_match_p
                0x0000000000476560                _dl_higher_prime_number
                0x00000000004765e0                _dl_strtoul
 *fill*         0x0000000000476731        0xf 
 .text          0x0000000000476740      0xb38 /work/glibc-obj/libc.a(dl-profile.o)
                0x0000000000476740                _dl_start_profile
                0x0000000000476ee0                _dl_mcount
 *fill*         0x0000000000477278        0x8 
 .text          0x0000000000477280      0x16f /work/glibc-obj/libc.a(dl-origin.o)
                0x0000000000477280                _dl_get_origin
 *fill*         0x00000000004773ef        0x1 
 .text          0x00000000004773f0       0xc0 /work/glibc-obj/libc.a(dl-scope.o)
                0x00000000004773f0                _dl_scope_free
 .text          0x00000000004774b0      0xd0a /work/glibc-obj/libc.a(dl-trampoline.o)
                0x00000000004774b0                _dl_runtime_profile_avx512
                0x0000000000477930                _dl_runtime_profile_avx
                0x0000000000477db0                _dl_runtime_profile_sse
                0x0000000000477fb0                _dl_runtime_resolve_fxsave
                0x0000000000478030                _dl_runtime_resolve_xsave
                0x0000000000478100                _dl_runtime_resolve_xsavec
 *fill*         0x00000000004781ba        0x6 
 .text          0x00000000004781c0      0x3c6 /work/glibc-obj/libc.a(dl-exception.o)
                0x00000000004781e0                _dl_exception_create
                0x00000000004782b0                _dl_exception_create_format
                0x0000000000478560                _dl_exception_free
 *fill*         0x0000000000478586        0xa 
 .text          0x0000000000478590      0x748 /work/glibc-obj/libc.a(dl-cache.o)
                0x0000000000478590                _dl_cache_libcmp
                0x0000000000478650                _dl_load_cache_lookup
                0x0000000000478ca0                _dl_unload_cache
 *fill*         0x0000000000478cd8        0x8 
 .text          0x0000000000478ce0      0x101 /work/glibc-obj/libc.a(dl-tlsdesc.o)
                0x0000000000478ce0                _dl_tlsdesc_return
                0x0000000000478cf0                _dl_tlsdesc_undefweak
                0x0000000000478d00                _dl_tlsdesc_resolve_rela
                0x0000000000478d70                _dl_tlsdesc_resolve_hold
 *fill*         0x0000000000478de1        0xf 
 .text          0x0000000000478df0      0x39a /work/glibc-obj/libc.a(dl-libc.o)
                0x0000000000478e90                __libc_dlsym
                0x0000000000478ed0                __libc_dlvsym
                0x0000000000478fc0                __libc_dlclose
                0x00000000004790c0                __libc_dlsym_private
                0x0000000000479100                __libc_register_dl_open_hook
                0x0000000000479140                __libc_dlopen_mode
 .text          0x000000000047918a        0x0 /work/glibc-obj/libc.a(lc-monetary.o)
 .text          0x000000000047918a        0x0 /work/glibc-obj/libc.a(lc-numeric.o)
 .text          0x000000000047918a        0x0 /work/glibc-obj/libc.a(C-messages.o)
 .text          0x000000000047918a        0x0 /work/glibc-obj/libc.a(C-monetary.o)
 .text          0x000000000047918a        0x0 /work/glibc-obj/libc.a(C-numeric.o)
 .text          0x000000000047918a        0x0 /work/glibc-obj/libc.a(C-time.o)
 .text          0x000000000047918a        0x0 /work/glibc-obj/libc.a(C-paper.o)
 .text          0x000000000047918a        0x0 /work/glibc-obj/libc.a(C-name.o)
 .text          0x000000000047918a        0x0 /work/glibc-obj/libc.a(C-address.o)
 .text          0x000000000047918a        0x0 /work/glibc-obj/libc.a(C-telephone.o)
 .text          0x000000000047918a        0x0 /work/glibc-obj/libc.a(C-measurement.o)
 .text          0x000000000047918a        0x0 /work/glibc-obj/libc.a(C-identification.o)
 .text          0x000000000047918a        0x0 /work/glibc-obj/libc.a(C-collate.o)
 *fill*         0x000000000047918a        0x6 
 .text          0x0000000000479190       0x3b /work/glibc-obj/libc.a(cmp.o)
                0x0000000000479190                __mpn_cmp
 *fill*         0x00000000004791cb        0x5 
 .text          0x00000000004791d0      0x3e1 /work/glibc-obj/libc.a(divrem.o)
                0x00000000004791d0                __mpn_divrem
 *fill*         0x00000000004795b1        0xf 
 .text          0x00000000004795c0      0x103 /work/glibc-obj/libc.a(lshift.o)
                0x00000000004795c0                __mpn_lshift
 *fill*         0x00000000004796c3        0xd 
 .text          0x00000000004796d0      0x103 /work/glibc-obj/libc.a(rshift.o)
                0x00000000004796d0                __mpn_rshift
 *fill*         0x00000000004797d3        0xd 
 .text          0x00000000004797e0      0x3b0 /work/glibc-obj/libc.a(mul.o)
                0x00000000004797e0                __mpn_mul
 .text          0x0000000000479b90      0x119 /work/glibc-obj/libc.a(mul_1.o)
                0x0000000000479b90                __mpn_mul_1
 *fill*         0x0000000000479ca9        0x7 
 .text          0x0000000000479cb0      0xa4e /work/glibc-obj/libc.a(mul_n.o)
                0x0000000000479cb0                __mpn_impn_mul_n_basecase
                0x0000000000479dc0                __mpn_impn_mul_n
                0x000000000047a1e0                __mpn_impn_sqr_n_basecase
                0x000000000047a2f0                __mpn_impn_sqr_n
                0x000000000047a690                __mpn_mul_n
 *fill*         0x000000000047a6fe        0x2 
 .text          0x000000000047a700       0xad /work/glibc-obj/libc.a(sub_n.o)
                0x000000000047a700                __mpn_sub_n
 *fill*         0x000000000047a7ad        0x3 
 .text          0x000000000047a7b0       0xeb /work/glibc-obj/libc.a(submul_1.o)
                0x000000000047a7b0                __mpn_submul_1
 *fill*         0x000000000047a89b        0x5 
 .text          0x000000000047a8a0       0x8e /work/glibc-obj/libc.a(dbl2mpn.o)
                0x000000000047a8a0                __mpn_extract_double
 *fill*         0x000000000047a92e        0x2 
 .text          0x000000000047a930       0xb9 /work/glibc-obj/libc.a(ldbl2mpn.o)
                0x000000000047a930                __mpn_extract_long_double
 *fill*         0x000000000047a9e9        0x7 
 .text          0x000000000047a9f0      0x11f /work/glibc-obj/libc.a(float1282mpn.o)
                0x000000000047a9f0                __mpn_extract_float128
 .text          0x000000000047ab0f        0x0 /work/glibc-obj/libc.a(fpioconst.o)
 *fill*         0x000000000047ab0f        0x1 
 .text          0x000000000047ab10      0x138 /work/glibc-obj/libc.a(_itoa.o)
                0x000000000047ab10                _itoa_word
                0x000000000047abf0                _fitoa_word
 .text          0x000000000047ac48        0x0 /work/glibc-obj/libc.a(itoa-digits.o)
 .text          0x000000000047ac48        0x0 /work/glibc-obj/libc.a(itoa-udigits.o)
 .text          0x000000000047ac48        0x0 /work/glibc-obj/libc.a(itowa-digits.o)
 *fill*         0x000000000047ac48        0x8 
 .text          0x000000000047ac50       0x8a /work/glibc-obj/libc.a(snprintf.o)
                0x000000000047ac50                snprintf
                0x000000000047ac50                __snprintf
 *fill*         0x000000000047acda        0x6 
 .text          0x000000000047ace0        0xd /work/glibc-obj/libc.a(getline.o)
                0x000000000047ace0                __getline
                0x000000000047ace0                getline
 .text          0x000000000047aced        0x0 /work/glibc-obj/libc.a(errlist.o)
 *fill*         0x000000000047aced        0x3 
 .text          0x000000000047acf0      0x115 /work/glibc-obj/libc.a(vsnprintf.o)
                0x000000000047ad50                vsnprintf
                0x000000000047ad50                _IO_vsnprintf
                0x000000000047ad50                __vsnprintf
 *fill*         0x000000000047ae05        0xb 
 .text          0x000000000047ae10      0x44f /work/glibc-obj/libc.a(sdlerror.o)
                0x000000000047ae60                __dlerror
                0x000000000047b0d0                _dlerror_run
                0x000000000047b240                __libc_register_dlfcn_hook
 *fill*         0x000000000047b25f        0x1 
 .text          0x000000000047b260        0x9 /work/glibc-obj/libc.a(sdladdr.o)
                0x000000000047b260                __dladdr
 *fill*         0x000000000047b269        0x7 
 .text          0x000000000047b270       0x27 /work/glibc-obj/libc.a(sdladdr1.o)
                0x000000000047b270                __dladdr1
 *fill*         0x000000000047b297        0x9 
 .text          0x000000000047b2a0      0x102 /work/glibc-obj/libc.a(sdlinfo.o)
                0x000000000047b370                __dlinfo
 *fill*         0x000000000047b3a2        0xe 
 .text          0x000000000047b3b0       0xba /work/glibc-obj/libc.a(sdlmopen.o)
                0x000000000047b420                __dlmopen
 *fill*         0x000000000047b46a        0x6 
 .text          0x000000000047b470       0x49 /work/glibc-obj/libc.a(alloc_buffer_copy_bytes.o)
                0x000000000047b470                __libc_alloc_buffer_copy_bytes
 *fill*         0x000000000047b4b9        0x7 
 .text          0x000000000047b4c0       0x86 /work/glibc-obj/libc.a(strerror.o)
                0x000000000047b4c0                strerror
 *fill*         0x000000000047b546        0xa 
 .text          0x000000000047b550       0x16 /work/glibc-obj/libc.a(strpbrk.o)
                0x000000000047b550                strpbrk
 *fill*         0x000000000047b566        0xa 
 .text          0x000000000047b570       0x16 /work/glibc-obj/libc.a(strspn.o)
                0x000000000047b570                strspn
 *fill*         0x000000000047b586        0xa 
 .text          0x000000000047b590       0x3a /work/glibc-obj/libc.a(strcasecmp.o)
                0x000000000047b590                strcasecmp
                0x000000000047b590                __strcasecmp
 *fill*         0x000000000047b5ca        0x6 
 .text          0x000000000047b5d0       0x3a /work/glibc-obj/libc.a(strncase.o)
                0x000000000047b5d0                __strncasecmp
                0x000000000047b5d0                strncasecmp
 *fill*         0x000000000047b60a        0x6 
 .text          0x000000000047b610       0x52 /work/glibc-obj/libc.a(strsep.o)
                0x000000000047b610                __strsep
                0x000000000047b610                strsep
                0x000000000047b610                __strsep_g
 *fill*         0x000000000047b662        0xe 
 .text          0x000000000047b670     0x2646 /work/glibc-obj/libc.a(strncase_l-sse2.o)
                0x000000000047b670                __strncasecmp_sse2
                0x000000000047b680                __strncasecmp_l_sse2
 .text          0x000000000047dcb6        0x0 /work/glibc-obj/libc.a(strncase_l-ssse3.o)
 *fill*         0x000000000047dcb6        0xa 
 .text.ssse3    0x000000000047dcc0     0x2556 /work/glibc-obj/libc.a(strncase_l-ssse3.o)
                0x000000000047dcc0                __strncasecmp_ssse3
                0x000000000047dcd0                __strncasecmp_l_ssse3
 .text          0x0000000000480216        0x0 /work/glibc-obj/libc.a(strncase_l-sse4_2.o)
 *fill*         0x0000000000480216        0xa 
 .text.sse4.2   0x0000000000480220     0x1fc6 /work/glibc-obj/libc.a(strncase_l-sse4_2.o)
                0x0000000000480220                __strncasecmp_sse42
                0x0000000000480230                __strncasecmp_l_sse42
 .text          0x00000000004821e6        0x0 /work/glibc-obj/libc.a(strncase_l-avx.o)
 *fill*         0x00000000004821e6        0xa 
 .text.avx      0x00000000004821f0     0x19a6 /work/glibc-obj/libc.a(strncase_l-avx.o)
                0x00000000004821f0                __strncasecmp_avx
                0x0000000000482200                __strncasecmp_l_avx
 *fill*         0x0000000000483b96        0xa 
 .text          0x0000000000483ba0       0x9c /work/glibc-obj/libc.a(strpbrk-sse2.o)
                0x0000000000483ba0                __strpbrk_sse2
 *fill*         0x0000000000483c3c        0x4 
 .text          0x0000000000483c40       0x97 /work/glibc-obj/libc.a(strspn-sse2.o)
                0x0000000000483c40                __strspn_sse2
 .text          0x0000000000483cd7        0x0 /work/glibc-obj/libc.a(strpbrk-c.o)
 *fill*         0x0000000000483cd7        0x9 
 .text.sse4.2   0x0000000000483ce0      0x137 /work/glibc-obj/libc.a(strpbrk-c.o)
                0x0000000000483ce0                __strpbrk_sse42
 .text          0x0000000000483e17        0x0 /work/glibc-obj/libc.a(strspn-c.o)
 *fill*         0x0000000000483e17        0x9 
 .text.sse4.2   0x0000000000483e20      0x11f /work/glibc-obj/libc.a(strspn-c.o)
                0x0000000000483e20                __strspn_sse42
 *fill*         0x0000000000483f3f        0x1 
 .text          0x0000000000483f40       0x43 /work/glibc-obj/libc.a(strncase_l-nonascii.o)
                0x0000000000483f40                __strncasecmp_l_nonascii
 *fill*         0x0000000000483f83        0xd 
 .text          0x0000000000483f90       0x14 /work/glibc-obj/libc.a(ioctl.o)
                0x0000000000483f90                ioctl
                0x0000000000483f90                __ioctl
 *fill*         0x0000000000483fa4        0xc 
 .text          0x0000000000483fb0       0xfe /work/glibc-obj/libc.a(gethostname.o)
                0x0000000000483fb0                __gethostname
                0x0000000000483fb0                gethostname
 *fill*         0x00000000004840ae        0x2 
 .text          0x00000000004840b0       0x14 /work/glibc-obj/libc.a(socket.o)
                0x00000000004840b0                socket
                0x00000000004840b0                __socket
 *fill*         0x00000000004840c4        0xc 
 .text          0x00000000004840d0      0x1bd /work/glibc-obj/libc.a(profil.o)
                0x0000000000484120                __profil
                0x0000000000484120                profil
 *fill*         0x000000000048428d        0x3 
 .text          0x0000000000484290        0x7 /work/glibc-obj/libc.a(prof-freq.o)
                0x0000000000484290                __profile_frequency
 *fill*         0x0000000000484297        0x9 
 .text          0x00000000004842a0       0x48 /work/glibc-obj/libc.a(inet_mkadr.o)
                0x00000000004842a0                inet_makeaddr
                0x00000000004842a0                __inet_makeaddr
 *fill*         0x00000000004842e8        0x8 
 .text          0x00000000004842f0       0x9d /work/glibc-obj/libc.a(inet6_scopeid_pton.o)
                0x00000000004842f0                __inet6_scopeid_pton
 *fill*         0x000000000048438d        0x3 
 .text          0x0000000000484390      0x12c /work/glibc-obj/libc.a(ifreq.o)
                0x0000000000484390                __ifreq
 *fill*         0x00000000004844bc        0x4 
 .text          0x00000000004844c0      0x122 /work/glibc-obj/libc.a(inet_addr.o)
                0x00000000004844c0                __inet_aton
                0x00000000004844c0                inet_aton
                0x00000000004845c0                __inet_addr
                0x00000000004845c0                inet_addr
 *fill*         0x00000000004845e2        0xe 
 .text          0x00000000004845f0      0x338 /work/glibc-obj/libc.a(inet_pton.o)
                0x00000000004846b0                __inet_pton_length
                0x0000000000484900                inet_pton
                0x0000000000484900                __inet_pton
 *fill*         0x0000000000484928        0x8 
 .text          0x0000000000484930      0x3a1 /work/glibc-obj/libc.a(dl-runtime.o)
                0x0000000000484930                _dl_fixup
                0x0000000000484ac0                _dl_profile_fixup
                0x0000000000484cd0                _dl_call_pltexit
 *fill*         0x0000000000484cd1        0xf 
 .text          0x0000000000484ce0      0xce8 /work/glibc-obj/libc.a(dl-open.o)
                0x0000000000484f20                _dl_find_dso_for_object
                0x0000000000484fb0                _dl_open
                0x00000000004851b0                _dl_show_scope
 *fill*         0x00000000004859c8        0x8 
 .text          0x00000000004859d0     0x105e /work/glibc-obj/libc.a(dl-close.o)
                0x0000000000485af0                _dl_close_worker
                0x00000000004869b0                _dl_close
 *fill*         0x0000000000486a2e        0x2 
 .text          0x0000000000486a30      0x2b7 /work/glibc-obj/libc.a(dl-sort-maps.o)
                0x0000000000486a30                _dl_sort_maps
 *fill*         0x0000000000486ce7        0x9 
 .text          0x0000000000486cf0      0x2a9 /work/glibc-obj/libc.a(tlsdesc.o)
                0x0000000000486cf0                _dl_tlsdesc_resolve_rela_fixup
                0x0000000000486f20                _dl_tlsdesc_resolve_hold_fixup
                0x0000000000486f80                _dl_unmap
 *fill*         0x0000000000486f99        0x7 
 .text          0x0000000000486fa0      0x2ea /work/glibc-obj/libc.a(dl-addr.o)
                0x0000000000486fa0                _dl_addr
 *fill*         0x000000000048728a        0x6 
 .text          0x0000000000487290       0x53 /work/glibc-obj/libc.a(dl-addr-obj.o)
                0x0000000000487290                _dl_addr_inside_object
 *fill*         0x00000000004872e3        0xd 
 .text          0x00000000004872f0       0xad /work/glibc-obj/libc.a(add_n.o)
                0x00000000004872f0                __mpn_add_n
 *fill*         0x000000000048739d        0x3 
 .text          0x00000000004873a0       0xeb /work/glibc-obj/libc.a(addmul_1.o)
                0x00000000004873a0                __mpn_addmul_1
 *fill*         0x000000000048748b        0x5 
 .text          0x0000000000487490       0xc5 /work/glibc-obj/libc.a(sdlopen.o)
                0x0000000000487510                __dlopen
 *fill*         0x0000000000487555        0xb 
 .text          0x0000000000487560       0x30 /work/glibc-obj/libc.a(sdlclose.o)
                0x0000000000487570                __dlclose
 .text          0x0000000000487590       0x7c /work/glibc-obj/libc.a(sdlsym.o)
                0x00000000004875b0                __dlsym
 *fill*         0x000000000048760c        0x4 
 .text          0x0000000000487610       0x81 /work/glibc-obj/libc.a(sdlvsym.o)
                0x0000000000487630                __dlvsym
 *fill*         0x0000000000487691        0xf 
 .text          0x00000000004876a0       0x14 /work/glibc-obj/libc.a(setitimer.o)
                0x00000000004876a0                setitimer
                0x00000000004876a0                __setitimer
 *fill*         0x00000000004876b4        0xc 
 .text          0x00000000004876c0      0x16f /work/glibc-obj/libc.a(opensock.o)
                0x00000000004876c0                __opensock
 *fill*         0x000000000048782f        0x1 
 .text          0x0000000000487830      0x4b7 /work/glibc-obj/libc.a(if_index.o)
                0x0000000000487830                __if_nametoindex
                0x0000000000487830                if_nametoindex
                0x00000000004878e0                __if_freenameindex
                0x00000000004878e0                if_freenameindex
                0x0000000000487920                if_nameindex
                0x0000000000487920                __if_nameindex
                0x0000000000487c70                if_indextoname
                0x0000000000487c70                __if_indextoname
 *fill*         0x0000000000487ce7        0x9 
 .text          0x0000000000487cf0     0x10d5 /work/glibc-obj/libc.a(ifaddrs.o)
                0x0000000000487cf0                __netlink_free_handle
                0x0000000000487d30                __netlink_request
                0x0000000000488020                __netlink_close
                0x0000000000488030                __netlink_open
                0x0000000000488da0                __getifaddrs
                0x0000000000488da0                getifaddrs
                0x0000000000488dc0                __freeifaddrs
                0x0000000000488dc0                freeifaddrs
 *fill*         0x0000000000488dc5        0xb 
 .text          0x0000000000488dd0      0x154 /work/glibc-obj/libc.a(netlink_assert_response.o)
                0x0000000000488dd0                __netlink_assert_response
 *fill*         0x0000000000488f24        0xc 
 .text          0x0000000000488f30     0x108f /work/glibc-obj/libc.a(dl-deps.o)
                0x0000000000489000                _dl_map_object_deps
 *fill*         0x0000000000489fbf        0x1 
 .text          0x0000000000489fc0      0x246 /work/glibc-obj/libc.a(dl-init.o)
                0x000000000048a0e0                _dl_init
 *fill*         0x000000000048a206        0xa 
 .text          0x000000000048a210      0x6bf /work/glibc-obj/libc.a(dl-version.o)
                0x000000000048a210                _dl_check_map_versions
                0x000000000048a860                _dl_check_all_versions
 *fill*         0x000000000048a8cf        0x1 
 .text          0x000000000048a8d0      0x2ed /work/glibc-obj/libc.a(dl-sym.o)
                0x000000000048aae0                _dl_vsym
                0x000000000048abb0                _dl_sym
 *fill*         0x000000000048abbd        0x3 
 .text          0x000000000048abc0       0x24 /work/glibc-obj/libc.a(strncpy.o)
                0x000000000048abc0                strncpy
 *fill*         0x000000000048abe4        0xc 
 .text          0x000000000048abf0       0x50 /work/glibc-obj/libc.a(strncpy-c.o)
                0x000000000048abf0                __strncpy_sse2
 .text          0x000000000048ac40        0x0 /work/glibc-obj/libc.a(strncpy-ssse3.o)
 .text.ssse3    0x000000000048ac40     0x2b76 /work/glibc-obj/libc.a(strncpy-ssse3.o)
                0x000000000048ac40                __strncpy_ssse3
 *fill*         0x000000000048d7b6        0xa 
 .text          0x000000000048d7c0      0xfe0 /work/glibc-obj/libc.a(strncpy-sse2-unaligned.o)
                0x000000000048d7c0                __strncpy_sse2_unaligned
 .text          0x000000000048e7a0       0x22 /work/glibc-obj/libc.a(access.o)
                0x000000000048e7a0                access
                0x000000000048e7a0                __access
 *fill*         0x000000000048e7c2        0xe 
 .text          0x000000000048e7d0       0x14 /work/glibc-obj/libc.a(bind.o)
                0x000000000048e7d0                bind
                0x000000000048e7d0                __bind
 *fill*         0x000000000048e7e4        0xc 
 .text          0x000000000048e7f0       0x14 /work/glibc-obj/libc.a(getsockname.o)
                0x000000000048e7f0                __getsockname
                0x000000000048e7f0                getsockname
 *fill*         0x000000000048e804        0xc 
 .text          0x000000000048e810       0x99 /work/glibc-obj/libc.a(recvmsg.o)
                0x000000000048e810                __recvmsg
                0x000000000048e810                __libc_recvmsg
                0x000000000048e810                recvmsg
 *fill*         0x000000000048e8a9        0x7 
 .text          0x000000000048e8b0       0xb9 /work/glibc-obj/libc.a(sendto.o)
                0x000000000048e8b0                sendto
                0x000000000048e8b0                __libc_sendto
                0x000000000048e8b0                __sendto
 *fill*         0x000000000048e969        0x7 
 .text          0x000000000048e970      0x1b4 /usr/lib/gcc/x86_64-redhat-linux/8//libgcc.a(unordtf2.o)
                0x000000000048e970                __unordtf2
 *fill*         0x000000000048eb24        0xc 
 .text          0x000000000048eb30      0x21f /usr/lib/gcc/x86_64-redhat-linux/8//libgcc.a(letf2.o)
                0x000000000048eb30                __letf2
                0x000000000048eb30                __lttf2
 *fill*         0x000000000048ed4f        0x1 
 .text          0x000000000048ed50       0x8f /usr/lib/gcc/x86_64-redhat-linux/8//libgcc.a(sfp-exceptions.o)
                0x000000000048ed50                __sfp_handle_exceptions
 *fill*         0x000000000048eddf        0x1 
 .text          0x000000000048ede0      0x41b /usr/lib/gcc/x86_64-redhat-linux/8//libgcc_eh.a(unwind-c.o)
                0x000000000048ef80                __gcc_personality_v0
 .text          0x000000000048f1fb        0x0 /usr/lib/gcc/x86_64-redhat-linux/8/crtend.o
 .text          0x000000000048f1fb        0x0 /work/glibc-obj/csu/crtn.o
 *(.gnu.warning)

__libc_freeres_fn
                0x000000000048f200      0xb17
 __libc_freeres_fn
                0x000000000048f200       0xa9 /work/glibc-obj/libc.a(dcigettext.o)
 *fill*         0x000000000048f2a9        0x7 
 __libc_freeres_fn
                0x000000000048f2b0       0x49 /work/glibc-obj/libc.a(finddomain.o)
                0x000000000048f2b0                _nl_finddomain_subfreeres
 *fill*         0x000000000048f2f9        0x7 
 __libc_freeres_fn
                0x000000000048f300       0xe5 /work/glibc-obj/libc.a(loadmsgcat.o)
                0x000000000048f300                _nl_unload_domain
 *fill*         0x000000000048f3e5        0xb 
 __libc_freeres_fn
                0x000000000048f3f0       0x39 /work/glibc-obj/libc.a(genops.o)
 *fill*         0x000000000048f429        0x7 
 __libc_freeres_fn
                0x000000000048f430       0xb9 /work/glibc-obj/libc.a(register-atfork.o)
 *fill*         0x000000000048f4e9        0x7 
 __libc_freeres_fn
                0x000000000048f4f0      0x175 /work/glibc-obj/libc.a(gconv_db.o)
 *fill*         0x000000000048f665        0xb 
 __libc_freeres_fn
                0x000000000048f670       0x21 /work/glibc-obj/libc.a(gconv_conf.o)
 *fill*         0x000000000048f691        0xf 
 __libc_freeres_fn
                0x000000000048f6a0       0x35 /work/glibc-obj/libc.a(gconv_cache.o)
 *fill*         0x000000000048f6d5        0xb 
 __libc_freeres_fn
                0x000000000048f6e0       0x45 /work/glibc-obj/libc.a(gconv_dl.o)
 *fill*         0x000000000048f725        0xb 
 __libc_freeres_fn
                0x000000000048f730      0x2ae /work/glibc-obj/libc.a(setlocale.o)
                0x000000000048f7e0                _nl_locale_subfreeres
 *fill*         0x000000000048f9de        0x2 
 __libc_freeres_fn
                0x000000000048f9e0       0xed /work/glibc-obj/libc.a(loadarchive.o)
                0x000000000048f9e0                _nl_archive_subfreeres
 *fill*         0x000000000048facd        0x3 
 __libc_freeres_fn
                0x000000000048fad0       0x2a /work/glibc-obj/libc.a(setenv.o)
 *fill*         0x000000000048fafa        0x6 
 __libc_freeres_fn
                0x000000000048fb00       0x5b /work/glibc-obj/libc.a(reg-modifier.o)
 *fill*         0x000000000048fb5b        0x5 
 __libc_freeres_fn
                0x000000000048fb60      0x1b7 /work/glibc-obj/libc.a(dl-libc.o)

__libc_thread_freeres_fn
                0x000000000048fd20      0x223
 __libc_thread_freeres_fn
                0x000000000048fd20      0x139 /work/glibc-obj/libc.a(malloc.o)
 *fill*         0x000000000048fe59        0x7 
 __libc_thread_freeres_fn
                0x000000000048fe60       0x31 /work/glibc-obj/libc.a(thread-freeres.o)
                0x000000000048fe60                __libc_thread_freeres
 *fill*         0x000000000048fe91        0xf 
 __libc_thread_freeres_fn
                0x000000000048fea0       0x38 /work/glibc-obj/libc.a(res-close.o)
 *fill*         0x000000000048fed8        0x8 
 __libc_thread_freeres_fn
                0x000000000048fee0       0x63 /work/glibc-obj/libc.a(resolv_conf.o)

.fini           0x000000000048ff44        0x9
 *(SORT(.fini))
 .fini          0x000000000048ff44        0x4 /work/glibc-obj/csu/crti.o
                0x000000000048ff44                _fini
 .fini          0x000000000048ff48        0x5 /work/glibc-obj/csu/crtn.o
                [!provide]                        PROVIDE (__etext, .)
                [!provide]                        PROVIDE (_etext, .)
                [!provide]                        PROVIDE (etext, .)

.rodata         0x000000000048ff60    0x1dd10
 *(.rodata .rodata.* .gnu.linkonce.r.*)
 .rodata.cst4   0x000000000048ff60        0x4 /work/glibc-obj/csu/crt1.o
                0x000000000048ff60                _IO_stdin_used
 *fill*         0x000000000048ff64        0x4 
 .rodata        0x000000000048ff68        0x8 /usr/lib/gcc/x86_64-redhat-linux/8/crtbeginT.o
                0x000000000048ff68                __dso_handle
 .rodata        0x000000000048ff70       0x7a threads.o
 *fill*         0x000000000048ffea        0x6 
 .rodata.str1.8
                0x000000000048fff0       0x87 /work/glibc-obj/nptl/libpthread.a(pthread_create.o)
 .rodata.str1.1
                0x0000000000490077       0xc3 /work/glibc-obj/nptl/libpthread.a(pthread_create.o)
                                         0xd1 (size before relaxing)
 *fill*         0x000000000049013a        0x6 
 .rodata.str1.16
                0x0000000000490140       0x51 /work/glibc-obj/nptl/libpthread.a(pthread_create.o)
 *fill*         0x0000000000490191        0x3 
 .rodata.cst4   0x0000000000490194       0x18 /work/glibc-obj/nptl/libpthread.a(pthread_create.o)
                0x0000000000490194                _thread_db_const_thread_area
                0x0000000000490198                _thread_db_sizeof_pthread_key_data_level2
                0x000000000049019c                _thread_db_sizeof_td_eventbuf_t
                0x00000000004901a0                _thread_db_sizeof_td_thr_events_t
                0x00000000004901a4                _thread_db_sizeof_pthread_key_struct
                0x00000000004901a4                _thread_db_sizeof_pthread_key_data
                0x00000000004901a4                _thread_db_sizeof_dtv_slotinfo
                0x00000000004901a4                _thread_db_sizeof_list_t
                0x00000000004901a4                _thread_db_sizeof_dtv_slotinfo_list
                0x00000000004901a8                _thread_db_sizeof_pthread
 *fill*         0x00000000004901ac        0x4 
 .rodata        0x00000000004901b0      0x18c /work/glibc-obj/nptl/libpthread.a(pthread_create.o)
                0x00000000004901b0                _thread_db_dtv_slotinfo_list_slotinfo
                0x00000000004901c0                _thread_db_dtv_dtv
                0x00000000004901d0                _thread_db_link_map_l_tls_offset
                0x00000000004901e0                _thread_db_link_map_l_tls_modid
                0x00000000004901f0                _thread_db_pthread_key_data_level2_data
                0x0000000000490200                _thread_db___pthread_keys
                0x0000000000490210                _thread_db___nptl_initial_report_events
                0x0000000000490220                _thread_db___nptl_nthreads
                0x0000000000490230                _thread_db_td_eventbuf_t_eventdata
                0x0000000000490240                _thread_db_td_eventbuf_t_eventnum
                0x0000000000490250                _thread_db_td_thr_events_t_event_bits
                0x0000000000490260                _thread_db_pthread_key_data_data
                0x0000000000490260                _thread_db_dtv_slotinfo_map
                0x0000000000490260                _thread_db_dtv_slotinfo_list_next
                0x0000000000490260                _thread_db_pthread_dtvp
                0x0000000000490260                _thread_db_list_t_prev
                0x0000000000490260                _thread_db_pthread_key_struct_destr
                0x0000000000490270                _thread_db_dtv_t_counter
                0x0000000000490270                _thread_db__dl_tls_dtv_slotinfo_list
                0x0000000000490270                _thread_db___nptl_last_event
                0x0000000000490270                _thread_db_pthread_key_data_seq
                0x0000000000490270                _thread_db_pthread_key_struct_seq
                0x0000000000490270                _thread_db_dtv_slotinfo_list_len
                0x0000000000490270                _thread_db_list_t_next
                0x0000000000490270                _thread_db_dtv_t_pointer_val
                0x0000000000490270                _thread_db_dtv_slotinfo_gen
                0x0000000000490280                _thread_db_pthread_nextevent
                0x0000000000490290                _thread_db_pthread_eventbuf_eventmask_event_bits
                0x00000000004902a0                _thread_db_pthread_eventbuf_eventmask
                0x00000000004902b0                _thread_db_pthread_eventbuf
                0x00000000004902c0                _thread_db_pthread_specific
                0x00000000004902d0                _thread_db_pthread_schedparam_sched_priority
                0x00000000004902e0                _thread_db_pthread_schedpolicy
                0x00000000004902f0                _thread_db_pthread_cancelhandling
                0x0000000000490300                _thread_db_pthread_start_routine
                0x0000000000490310                _thread_db_pthread_tid
                0x0000000000490320                _thread_db_pthread_report_events
                0x0000000000490330                _thread_db_pthread_list
 .rodata.str1.1
                0x000000000049033c       0x38 /work/glibc-obj/nptl/libpthread.a(pthread_mutex_lock.o)
 *fill*         0x0000000000490374        0x4 
 .rodata.str1.8
                0x0000000000490378      0x122 /work/glibc-obj/nptl/libpthread.a(pthread_mutex_lock.o)
 *fill*         0x000000000049049a        0x6 
 .rodata.str1.16
                0x00000000004904a0       0x35 /work/glibc-obj/nptl/libpthread.a(pthread_mutex_lock.o)
 *fill*         0x00000000004904d5        0x3 
 .rodata.str1.8
                0x00000000004904d8       0x20 /work/glibc-obj/nptl/libpthread.a(pthread_mutex_trylock.o)
 .rodata.str1.1
                0x00000000004904f8        0x7 /work/glibc-obj/nptl/libpthread.a(pthread_mutex_trylock.o)
                                         0x22 (size before relaxing)
 *fill*         0x00000000004904ff        0x1 
 .rodata.str1.16
                0x0000000000490500       0x18 /work/glibc-obj/nptl/libpthread.a(pthread_mutex_trylock.o)
 .rodata        0x0000000000490518      0x1a0 /work/glibc-obj/nptl/libpthread.a(pthread_mutex_unlock.o)
 .rodata.str1.1
                0x00000000004906b8       0x17 /work/glibc-obj/nptl/libpthread.a(pthread_mutex_unlock.o)
 *fill*         0x00000000004906cf        0x1 
 .rodata.str1.8
                0x00000000004906d0       0x24 /work/glibc-obj/nptl/libpthread.a(pthread_mutex_unlock.o)
 *fill*         0x00000000004906f4        0xc 
 .rodata.str1.16
                0x0000000000490700       0x1f /work/glibc-obj/nptl/libpthread.a(pthread_mutex_unlock.o)
 .rodata.str1.8
                0x000000000049071f       0x36 /work/glibc-obj/nptl/libpthread.a(pthread_once.o)
 .rodata.str1.1
                0x000000000049071f        0x6 /work/glibc-obj/nptl/libpthread.a(tpp.o)
 *fill*         0x0000000000490725        0x3 
 .rodata.str1.8
                0x0000000000490728       0xaa /work/glibc-obj/nptl/libpthread.a(tpp.o)
 *fill*         0x00000000004907d2        0xe 
 .rodata.str1.16
                0x00000000004907e0       0x1e /work/glibc-obj/nptl/libpthread.a(tpp.o)
 .rodata.str1.8
                0x00000000004907fe       0x36 /work/glibc-obj/nptl/libpthread.a(nptl-init.o)
 .rodata.str1.1
                0x00000000004907fe        0x5 /work/glibc-obj/nptl/libpthread.a(nptl-init.o)
 *fill*         0x0000000000490803        0x5 
 .rodata.str1.8
                0x0000000000490808       0x1f /work/glibc-obj/nptl/libpthread.a(unwind.o)
 *fill*         0x0000000000490827        0x1 
 .rodata        0x0000000000490828      0x51c /usr/lib/gcc/x86_64-redhat-linux/8//libgcc_eh.a(unwind-dw2.o)
 *fill*         0x0000000000490d44        0x4 
 .rodata        0x0000000000490d48       0x40 /usr/lib/gcc/x86_64-redhat-linux/8//libgcc_eh.a(unwind-dw2-fde-dip.o)
 .rodata.str1.1
                0x0000000000490d88       0x3c /work/glibc-obj/libc.a(libc-start.o)
 *fill*         0x0000000000490dc4        0x4 
 .rodata.str1.8
                0x0000000000490dc8       0x80 /work/glibc-obj/libc.a(libc-start.o)
 .rodata        0x0000000000490e48      0x230 /work/glibc-obj/libc.a(libc-start.o)
 *fill*         0x0000000000491078        0x8 
 .rodata.str1.16
                0x0000000000491080       0x12 /work/glibc-obj/libc.a(libc-start.o)
 .rodata.str1.1
                0x0000000000491092       0x14 /work/glibc-obj/libc.a(check_fds.o)
 *fill*         0x00000000004910a6        0x2 
 .rodata.str1.8
                0x00000000004910a8       0x35 /work/glibc-obj/libc.a(libc-tls.o)
 .rodata.str1.1
                0x00000000004910dd        0x3 /work/glibc-obj/libc.a(assert.o)
                                          0x7 (size before relaxing)
 .rodata.str1.8
                0x00000000004910e0       0x29 /work/glibc-obj/libc.a(assert.o)
 *fill*         0x0000000000491109        0x7 
 .rodata.str1.16
                0x0000000000491110       0x13 /work/glibc-obj/libc.a(assert.o)
 *fill*         0x0000000000491123        0x5 
 .rodata        0x0000000000491128       0x58 /work/glibc-obj/libc.a(dcigettext.o)
 .rodata.str1.1
                0x0000000000491180       0x31 /work/glibc-obj/libc.a(dcigettext.o)
                                         0x34 (size before relaxing)
                0x00000000004911ab                _nl_POSIX_name
 *fill*         0x00000000004911b1        0xf 
 .rodata.str1.16
                0x00000000004911c0       0x12 /work/glibc-obj/libc.a(dcigettext.o)
                0x00000000004911c0                _nl_default_dirname
 *fill*         0x00000000004911d2        0x6 
 .rodata.str1.8
                0x00000000004911d8        0x9 /work/glibc-obj/libc.a(dcigettext.o)
                0x00000000004911d8                _nl_default_default_domain
 .rodata.str1.1
                0x00000000004911e1        0xf /work/glibc-obj/libc.a(loadmsgcat.o)
                                         0x21 (size before relaxing)
 .rodata.str1.1
                0x00000000004911f0       0x16 /work/glibc-obj/libc.a(localealias.o)
 *fill*         0x0000000000491206        0x2 
 .rodata.str1.8
                0x0000000000491208        0xe /work/glibc-obj/libc.a(localealias.o)
 *fill*         0x0000000000491216        0xa 
 .rodata        0x0000000000491220      0x647 /work/glibc-obj/libc.a(plural.o)
 .rodata.str1.1
                0x0000000000491867       0x12 /work/glibc-obj/libc.a(plural-exp.o)
 *fill*         0x0000000000491879        0x7 
 .rodata        0x0000000000491880       0x60 /work/glibc-obj/libc.a(plural-exp.o)
                0x0000000000491880                __gettext_germanic_plural
 .rodata.str1.1
                0x00000000004918e0       0x17 /work/glibc-obj/libc.a(cxa_atexit.o)
 *fill*         0x00000000004918f7        0x1 
 .rodata.str1.8
                0x00000000004918f8        0xd /work/glibc-obj/libc.a(cxa_atexit.o)
 .rodata.str1.1
                0x0000000000491905       0x27 /work/glibc-obj/libc.a(wfileops.o)
 *fill*         0x000000000049192c        0x4 
 .rodata.str1.16
                0x0000000000491930       0x14 /work/glibc-obj/libc.a(wfileops.o)
 .rodata.str1.1
                0x0000000000491944       0x1c /work/glibc-obj/libc.a(libc_fatal.o)
                                         0x1f (size before relaxing)
 .rodata.str1.8
                0x0000000000491960       0x35 /work/glibc-obj/libc.a(vtables.o)
 .rodata.str1.1
                0x0000000000491995       0x32 /work/glibc-obj/libc.a(fileops.o)
                                         0x3c (size before relaxing)
 *fill*         0x00000000004919c7        0x9 
 .rodata.str1.16
                0x00000000004919d0       0x13 /work/glibc-obj/libc.a(fileops.o)
 .rodata.str1.1
                0x00000000004919e3       0x1a /work/glibc-obj/libc.a(strops.o)
 *fill*         0x00000000004919fd        0x3 
 .rodata.str1.16
                0x0000000000491a00       0x10 /work/glibc-obj/libc.a(strops.o)
 .rodata.str1.1
                0x0000000000491a10      0x341 /work/glibc-obj/libc.a(malloc.o)
                                        0x349 (size before relaxing)
 *fill*         0x0000000000491d51        0x7 
 .rodata.str1.8
                0x0000000000491d58      0xcf6 /work/glibc-obj/libc.a(malloc.o)
 *fill*         0x0000000000492a4e        0x2 
 .rodata        0x0000000000492a50       0x50 /work/glibc-obj/libc.a(malloc.o)
 .rodata.str1.16
                0x0000000000492aa0       0x35 /work/glibc-obj/libc.a(malloc.o)
 *fill*         0x0000000000492ad5        0x3 
 .rodata        0x0000000000492ad8       0x40 /work/glibc-obj/libc.a(strcmp-sse2.o)
 .rodata        0x0000000000492b18       0x40 /work/glibc-obj/libc.a(strcmp-ssse3.o)
 .rodata        0x0000000000492b58       0x40 /work/glibc-obj/libc.a(strncmp-sse2.o)
 .rodata        0x0000000000492b98       0x40 /work/glibc-obj/libc.a(strncmp-ssse3.o)
 .rodata.sse4.2
                0x0000000000492bd8       0x40 /work/glibc-obj/libc.a(strncmp-sse4_2.o)
 .rodata.sse4.1
                0x0000000000492c18      0x140 /work/glibc-obj/libc.a(memcmp-sse4.o)
 .rodata.ssse3  0x0000000000492d58      0x1c0 /work/glibc-obj/libc.a(memcpy-ssse3.o)
 .rodata.ssse3  0x0000000000492f18      0x1c0 /work/glibc-obj/libc.a(memmove-ssse3.o)
 .rodata.ssse3  0x00000000004930d8      0x500 /work/glibc-obj/libc.a(memcpy-ssse3-back.o)
 .rodata.ssse3  0x00000000004935d8      0x500 /work/glibc-obj/libc.a(memmove-ssse3-back.o)
 *fill*         0x0000000000493ad8        0x8 
 .rodata.cst16  0x0000000000493ae0       0x30 /work/glibc-obj/libc.a(strcasecmp_l-sse2.o)
 .rodata        0x0000000000493b10       0x40 /work/glibc-obj/libc.a(strcasecmp_l-sse2.o)
 .rodata.cst16  0x0000000000493b50       0x30 /work/glibc-obj/libc.a(strcasecmp_l-ssse3.o)
 .rodata        0x0000000000493b50       0x40 /work/glibc-obj/libc.a(strcasecmp_l-ssse3.o)
 .rodata.cst16  0x0000000000493b90       0x30 /work/glibc-obj/libc.a(strcasecmp_l-sse4_2.o)
 .rodata.sse4.2
                0x0000000000493b90       0x40 /work/glibc-obj/libc.a(strcasecmp_l-sse4_2.o)
 .rodata.cst16  0x0000000000493bd0       0x10 /work/glibc-obj/libc.a(strcasecmp_l-avx.o)
                                         0x30 (size before relaxing)
 .rodata.avx    0x0000000000493be0       0x40 /work/glibc-obj/libc.a(strcasecmp_l-avx.o)
 .rodata        0x0000000000493c20       0x80 /work/glibc-obj/libc.a(strcpy-sse2-unaligned.o)
 .rodata        0x0000000000493ca0       0x80 /work/glibc-obj/libc.a(stpcpy-sse2-unaligned.o)
 .rodata        0x0000000000493d20       0x1f /work/glibc-obj/libc.a(varshift.o)
                0x0000000000493d20                ___m128i_shift_right
 .rodata.str1.1
                0x0000000000493d3f       0x39 /work/glibc-obj/libc.a(cacheinfo.o)
 *fill*         0x0000000000493d78        0x8 
 .rodata        0x0000000000493d80      0x380 /work/glibc-obj/libc.a(cacheinfo.o)
 .rodata.str1.8
                0x0000000000494100        0xb /work/glibc-obj/libc.a(cacheinfo.o)
 *fill*         0x000000000049410b        0x5 
 .rodata.str1.16
                0x0000000000494110       0x11 /work/glibc-obj/libc.a(cacheinfo.o)
 .rodata.str1.1
                0x0000000000494121       0x19 /work/glibc-obj/libc.a(wcsmbsload.o)
                                         0x2c (size before relaxing)
 *fill*         0x000000000049413a        0x6 
 .rodata        0x0000000000494140      0x108 /work/glibc-obj/libc.a(wcsmbsload.o)
                0x0000000000494140                __wcsmbs_gconv_fcts_c
 .rodata.str1.1
                0x0000000000494248       0x33 /work/glibc-obj/libc.a(mbsrtowcs_l.o)
 *fill*         0x000000000049427b        0x5 
 .rodata.str1.8
                0x0000000000494280       0xde /work/glibc-obj/libc.a(mbsrtowcs_l.o)
 .rodata.str1.1
                0x000000000049435e       0x72 /work/glibc-obj/libc.a(sysconf.o)
 .rodata        0x00000000004943d0      0x7b8 /work/glibc-obj/libc.a(sysconf.o)
 .rodata.str1.1
                0x0000000000494b88        0x3 /work/glibc-obj/libc.a(getcwd.o)
                                          0x7 (size before relaxing)
 *fill*         0x0000000000494b8b        0x5 
 .rodata.str1.8
                0x0000000000494b90       0x61 /work/glibc-obj/libc.a(getcwd.o)
 *fill*         0x0000000000494bf1        0x7 
 .rodata.str1.8
                0x0000000000494bf8       0x3e /work/glibc-obj/libc.a(getpagesize.o)
 .rodata.str1.1
                0x0000000000494c36       0x17 /work/glibc-obj/libc.a(getpagesize.o)
 *fill*         0x0000000000494c4d        0x3 
 .rodata.str1.8
                0x0000000000494c50       0x5a /work/glibc-obj/libc.a(getsysstats.o)
 .rodata.str1.1
                0x0000000000494caa       0x46 /work/glibc-obj/libc.a(getsysstats.o)
                                         0x4a (size before relaxing)
 .rodata.str1.1
                0x0000000000494cf0        0x1 /work/glibc-obj/libc.a(init-misc.o)
 .rodata.str1.1
                0x0000000000494cf0       0x19 /work/glibc-obj/libc.a(chk_fail.o)
 .rodata.str1.1
                0x0000000000494d09       0x25 /work/glibc-obj/libc.a(fortify_fail.o)
 .rodata.str1.1
                0x0000000000494d2e       0x72 /work/glibc-obj/libc.a(resolv_context.o)
 .rodata.str1.16
                0x0000000000494da0       0x15 /work/glibc-obj/libc.a(resolv_context.o)
 *fill*         0x0000000000494db5        0x3 
 .rodata.str1.8
                0x0000000000494db8       0x1e /work/glibc-obj/libc.a(resolv_context.o)
 .rodata.str1.1
                0x0000000000494dd6       0x40 /work/glibc-obj/libc.a(resolv_conf.o)
 *fill*         0x0000000000494e16        0x2 
 .rodata.str1.8
                0x0000000000494e18      0x107 /work/glibc-obj/libc.a(resolv_conf.o)
 *fill*         0x0000000000494f1f        0x1 
 .rodata.str1.16
                0x0000000000494f20       0x9a /work/glibc-obj/libc.a(resolv_conf.o)
 *fill*         0x0000000000494fba        0x6 
 .rodata.str1.8
                0x0000000000494fc0      0x172 /work/glibc-obj/libc.a(dl-tls.o)
 .rodata.str1.1
                0x0000000000495132       0x2e /work/glibc-obj/libc.a(dl-tls.o)
 .rodata.str1.16
                0x0000000000495160       0x53 /work/glibc-obj/libc.a(dl-tls.o)
 .rodata.str1.1
                0x00000000004951b3      0x217 /work/glibc-obj/libc.a(dl-tunables.o)
 *fill*         0x00000000004953ca        0x6 
 .rodata.str1.8
                0x00000000004953d0      0x117 /work/glibc-obj/libc.a(dl-tunables.o)
 *fill*         0x00000000004954e7       0x19 
 .rodata        0x0000000000495500      0x2ab /work/glibc-obj/libc.a(dl-support.o)
                0x0000000000495760                _dl_x86_platforms
                0x0000000000495790                _dl_x86_hwcap_flags
 .rodata.str1.1
                0x00000000004957ab       0xa7 /work/glibc-obj/libc.a(dl-support.o)
                                         0xa8 (size before relaxing)
 *fill*         0x0000000000495852        0x6 
 .rodata.str1.8
                0x0000000000495858       0xab /work/glibc-obj/libc.a(dl-support.o)
 *fill*         0x0000000000495903        0xd 
 .rodata.str1.16
                0x0000000000495910       0x15 /work/glibc-obj/libc.a(dl-support.o)
 .rodata.str1.1
                0x0000000000495925      0x1f1 /work/glibc-obj/libc.a(dl-sysdep.o)
                                        0x222 (size before relaxing)
                0x0000000000495a88                _nl_C_name
 *fill*         0x0000000000495b16        0x2 
 .rodata        0x0000000000495b18      0x178 /work/glibc-obj/libc.a(dl-sysdep.o)
 .rodata.str1.1
                0x0000000000495c90       0x41 /work/glibc-obj/libc.a(dl-error.o)
                                         0x45 (size before relaxing)
 *fill*         0x0000000000495cd1        0x7 
 .rodata.str1.8
                0x0000000000495cd8       0x25 /work/glibc-obj/libc.a(dl-error.o)
 .rodata.str1.1
                0x0000000000495cfd        0x9 /work/glibc-obj/libc.a(gconv_open.o)
                                         0x1e (size before relaxing)
 .rodata.str1.1
                0x0000000000495d06       0x1d /work/glibc-obj/libc.a(gconv.o)
 *fill*         0x0000000000495d23        0x5 
 .rodata.str1.8
                0x0000000000495d28       0x30 /work/glibc-obj/libc.a(gconv.o)
 .rodata.str1.1
                0x0000000000495d58       0x25 /work/glibc-obj/libc.a(gconv_db.o)
 *fill*         0x0000000000495d7d        0x3 
 .rodata.str1.16
                0x0000000000495d80       0x15 /work/glibc-obj/libc.a(gconv_db.o)
 .rodata.str1.1
                0x0000000000495d95      0x163 /work/glibc-obj/libc.a(gconv_conf.o)
                                        0x172 (size before relaxing)
 *fill*         0x0000000000495ef8        0x8 
 .rodata.str1.16
                0x0000000000495f00       0x31 /work/glibc-obj/libc.a(gconv_conf.o)
 *fill*         0x0000000000495f31        0xf 
 .rodata        0x0000000000495f40      0x3e7 /work/glibc-obj/libc.a(gconv_conf.o)
 *fill*         0x0000000000496327        0x1 
 .rodata.str1.8
                0x0000000000496328        0xe /work/glibc-obj/libc.a(gconv_conf.o)
 *fill*         0x0000000000496336        0xa 
 .rodata.cst16  0x0000000000496340       0x10 /work/glibc-obj/libc.a(gconv_conf.o)
 .rodata.str1.1
                0x0000000000496350       0x10 /work/glibc-obj/libc.a(gconv_builtin.o)
                                         0xe4 (size before relaxing)
 .rodata.str1.8
                0x0000000000496360       0x25 /work/glibc-obj/libc.a(gconv_builtin.o)
 *fill*         0x0000000000496385        0xb 
 .rodata.str1.16
                0x0000000000496390       0x1a /work/glibc-obj/libc.a(gconv_builtin.o)
 *fill*         0x00000000004963aa       0x16 
 .rodata        0x00000000004963c0      0x180 /work/glibc-obj/libc.a(gconv_builtin.o)
 .rodata.str1.1
                0x0000000000496540       0x9b /work/glibc-obj/libc.a(gconv_simple.o)
 *fill*         0x00000000004965db        0x5 
 .rodata.str1.8
                0x00000000004965e0       0xf7 /work/glibc-obj/libc.a(gconv_simple.o)
 *fill*         0x00000000004966d7        0x9 
 .rodata.str1.32
                0x00000000004966e0      0x2c0 /work/glibc-obj/libc.a(gconv_simple.o)
 .rodata.str1.16
                0x00000000004969a0       0xb5 /work/glibc-obj/libc.a(gconv_simple.o)
 .rodata        0x0000000000496a55        0x5 /work/glibc-obj/libc.a(gconv_simple.o)
 .rodata.str1.1
                0x0000000000496a5a        0xb /work/glibc-obj/libc.a(gconv_cache.o)
                                         0x14 (size before relaxing)
 *fill*         0x0000000000496a65        0x3 
 .rodata.str1.8
                0x0000000000496a68       0x25 /work/glibc-obj/libc.a(gconv_cache.o)
 .rodata.str1.1
                0x0000000000496a8d       0x4d /work/glibc-obj/libc.a(gconv_dl.o)
 *fill*         0x0000000000496ada        0x6 
 .rodata.str1.16
                0x0000000000496ae0       0x33 /work/glibc-obj/libc.a(gconv_dl.o)
 .rodata.str1.1
                0x0000000000496b13        0x8 /work/glibc-obj/libc.a(setlocale.o)
 *fill*         0x0000000000496b1b        0x5 
 .rodata        0x0000000000496b20      0x1a8 /work/glibc-obj/libc.a(setlocale.o)
                0x0000000000496b88                _nl_category_name_sizes
                0x0000000000496b98                _nl_category_name_idxs
                0x0000000000496bc0                _nl_category_names
 .rodata.str1.1
                0x0000000000496cc8       0x30 /work/glibc-obj/libc.a(findlocale.o)
                                         0x39 (size before relaxing)
 *fill*         0x0000000000496cf8        0x8 
 .rodata        0x0000000000496d00       0xc8 /work/glibc-obj/libc.a(findlocale.o)
                0x0000000000496d60                _nl_C
 *fill*         0x0000000000496dc8        0x8 
 .rodata.str1.16
                0x0000000000496dd0       0x20 /work/glibc-obj/libc.a(findlocale.o)
                0x0000000000496de0                _nl_default_locale_path
 .rodata.str1.1
                0x0000000000496df0       0x22 /work/glibc-obj/libc.a(loadlocale.o)
 *fill*         0x0000000000496e12        0xe 
 .rodata        0x0000000000496e20      0x768 /work/glibc-obj/libc.a(loadlocale.o)
 *fill*         0x0000000000497588        0x8 
 .rodata.str1.16
                0x0000000000497590       0x17 /work/glibc-obj/libc.a(loadlocale.o)
 *fill*         0x00000000004975a7        0x1 
 .rodata.cst8   0x00000000004975a8        0x8 /work/glibc-obj/libc.a(loadlocale.o)
 .rodata.str1.1
                0x00000000004975b0       0x25 /work/glibc-obj/libc.a(loadarchive.o)
 *fill*         0x00000000004975d5        0x3 
 .rodata.str1.8
                0x00000000004975d8       0x24 /work/glibc-obj/libc.a(loadarchive.o)
 *fill*         0x00000000004975fc        0x4 
 .rodata.str1.16
                0x0000000000497600       0x5f /work/glibc-obj/libc.a(loadarchive.o)
 *fill*         0x000000000049765f        0x1 
 .rodata        0x0000000000497660     0xbc84 /work/glibc-obj/libc.a(C-ctype.o)
                0x00000000004976c0                _nl_C_LC_CTYPE
                0x00000000004979c0                _nl_C_LC_CTYPE_width
                0x0000000000497a20                _nl_C_LC_CTYPE_map_tolower
                0x0000000000497ae0                _nl_C_LC_CTYPE_map_toupper
                0x0000000000497ba0                _nl_C_LC_CTYPE_class_alnum
                0x0000000000497c00                _nl_C_LC_CTYPE_class_punct
                0x0000000000497c60                _nl_C_LC_CTYPE_class_cntrl
                0x0000000000497cc0                _nl_C_LC_CTYPE_class_blank
                0x0000000000497d20                _nl_C_LC_CTYPE_class_graph
                0x0000000000497d80                _nl_C_LC_CTYPE_class_print
                0x0000000000497de0                _nl_C_LC_CTYPE_class_space
                0x0000000000497e40                _nl_C_LC_CTYPE_class_xdigit
                0x0000000000497ea0                _nl_C_LC_CTYPE_class_digit
                0x0000000000497f00                _nl_C_LC_CTYPE_class_alpha
                0x0000000000497f60                _nl_C_LC_CTYPE_class_lower
                0x0000000000497fc0                _nl_C_LC_CTYPE_class_upper
                0x0000000000498020                _nl_C_LC_CTYPE_tolower
                0x0000000000498620                _nl_C_LC_CTYPE_toupper
                0x0000000000498c20                _nl_C_LC_CTYPE_class32
                0x0000000000499020                _nl_C_LC_CTYPE_class
 .rodata.str1.1
                0x00000000004a32e4        0x4 /work/glibc-obj/libc.a(C-ctype.o)
                                         0x14 (size before relaxing)
 .rodata.str4.4
                0x00000000004a32e8       0x50 /work/glibc-obj/libc.a(C-ctype.o)
                                         0x58 (size before relaxing)
 .rodata.str1.1
                0x00000000004a3338        0x5 /work/glibc-obj/libc.a(SYS_libc.o)
                0x00000000004a3338                _libc_intl_domainname
 *fill*         0x00000000004a333d        0x3 
 .rodata.str1.8
                0x00000000004a3340        0xf /work/glibc-obj/libc.a(C_name.o)
                0x00000000004a3340                _nl_C_codeset
 .rodata.str1.1
                0x00000000004a334f        0x8 /work/glibc-obj/libc.a(C_name.o)
 *fill*         0x00000000004a334f       0x11 
 .rodata        0x00000000004a3360       0xe8 /work/glibc-obj/libc.a(xlocale.o)
                0x00000000004a3360                _nl_C_locobj
 *fill*         0x00000000004a3448       0x18 
 .rodata        0x00000000004a3460      0x158 /work/glibc-obj/libc.a(strtol_l.o)
                0x00000000004a3460                __strtol_ul_rem_tab
                0x00000000004a34a0                __strtol_ul_max_tab
 .rodata.str1.1
                0x00000000004a35b8       0x39 /work/glibc-obj/libc.a(vfprintf.o)
                                         0x3a (size before relaxing)
 *fill*         0x00000000004a35f1        0x7 
 .rodata.str1.8
                0x00000000004a35f8       0xc9 /work/glibc-obj/libc.a(vfprintf.o)
 *fill*         0x00000000004a36c1       0x1f 
 .rodata        0x00000000004a36e0      0x75b /work/glibc-obj/libc.a(vfprintf.o)
 *fill*         0x00000000004a3e3b        0x5 
 .rodata.str1.16
                0x00000000004a3e40       0x36 /work/glibc-obj/libc.a(vfprintf.o)
 .rodata.str1.1
                0x00000000004a3e76       0x10 /work/glibc-obj/libc.a(printf_fp.o)
                                         0x1c (size before relaxing)
 *fill*         0x00000000004a3e86        0x2 
 .rodata.str4.4
                0x00000000004a3e88       0x5c /work/glibc-obj/libc.a(printf_fp.o)
 *fill*         0x00000000004a3ee4        0xc 
 .rodata.cst16  0x00000000004a3ef0       0x30 /work/glibc-obj/libc.a(printf_fp.o)
 .rodata.cst8   0x00000000004a3f20        0x8 /work/glibc-obj/libc.a(printf_fp.o)
 .rodata.str4.4
                0x00000000004a3f28       0x40 /work/glibc-obj/libc.a(printf_fphex.o)
 .rodata.str1.1
                0x00000000004a3f28       0x10 /work/glibc-obj/libc.a(printf_fphex.o)
 .rodata.str1.8
                0x00000000004a3f28       0x57 /work/glibc-obj/libc.a(printf_fphex.o)
 .rodata.cst16  0x00000000004a3f7f       0x30 /work/glibc-obj/libc.a(printf_fphex.o)
 .rodata.cst8   0x00000000004a3f7f        0x8 /work/glibc-obj/libc.a(printf_fphex.o)
 .rodata.str1.1
                0x00000000004a3f7f       0x17 /work/glibc-obj/libc.a(vfwprintf.o)
 *fill*         0x00000000004a3f7f        0x1 
 .rodata.str4.4
                0x00000000004a3f80       0x18 /work/glibc-obj/libc.a(vfwprintf.o)
                                         0x1c (size before relaxing)
 .rodata.str1.8
                0x00000000004a3f98        0xe /work/glibc-obj/libc.a(vfwprintf.o)
                                         0xde (size before relaxing)
 *fill*         0x00000000004a3fa6       0x1a 
 .rodata        0x00000000004a3fc0      0x75b /work/glibc-obj/libc.a(vfwprintf.o)
 .rodata.str1.16
                0x00000000004a471b       0x12 /work/glibc-obj/libc.a(vfwprintf.o)
 *fill*         0x00000000004a471b        0x5 
 .rodata.str4.16
                0x00000000004a4720       0x20 /work/glibc-obj/libc.a(vfwprintf.o)
                                         0x1c (size before relaxing)
 .rodata        0x00000000004a4740      0x488 /work/glibc-obj/libc.a(printf-parsemb.o)
 .rodata        0x00000000004a4bc8      0x488 /work/glibc-obj/libc.a(printf-parsewc.o)
 .rodata.cst16  0x00000000004a5050       0x10 /work/glibc-obj/libc.a(iopadn.o)
                                         0x20 (size before relaxing)
 .rodata        0x00000000004a5060       0x80 /work/glibc-obj/libc.a(iowpadn.o)
 .rodata.str1.1
                0x00000000004a50e0        0xa /work/glibc-obj/libc.a(iofwide.o)
                                         0x36 (size before relaxing)
 *fill*         0x00000000004a50ea        0x6 
 .rodata.str1.8
                0x00000000004a50f0        0xa /work/glibc-obj/libc.a(iofwide.o)
 *fill*         0x00000000004a50fa        0x6 
 .rodata        0x00000000004a5100       0xc0 /work/glibc-obj/libc.a(iofwide.o)
                0x00000000004a5100                __libio_codecvt
 .rodata.str1.8
                0x00000000004a51c0       0x43 /work/glibc-obj/libc.a(dynarray_at_failure.o)
 *fill*         0x00000000004a5203        0x5 
 .rodata.str1.8
                0x00000000004a5208       0x3a /work/glibc-obj/libc.a(alloc_buffer_create_failure.o)
 .rodata.str1.1
                0x00000000004a5242        0xf /work/glibc-obj/libc.a(_strerror.o)
 .rodata.str1.1
                0x00000000004a5251        0xa /work/glibc-obj/libc.a(wcrtomb.o)
 *fill*         0x00000000004a525b        0x5 
 .rodata.str1.8
                0x00000000004a5260        0xa /work/glibc-obj/libc.a(wcrtomb.o)
                                         0xaa (size before relaxing)
 .rodata.str1.1
                0x00000000004a526a       0x26 /work/glibc-obj/libc.a(wcsrtombs.o)
                                         0x40 (size before relaxing)
 .rodata.str1.8
                0x00000000004a5290       0x34 /work/glibc-obj/libc.a(wcsrtombs.o)
                                         0xd4 (size before relaxing)
 .rodata.str1.1
                0x00000000004a52c4       0x10 /work/glibc-obj/libc.a(readonly-area.o)
                                         0x14 (size before relaxing)
 .rodata.str1.1
                0x00000000004a52d4       0x5c /work/glibc-obj/libc.a(res_init.o)
                                         0x75 (size before relaxing)
 *fill*         0x00000000004a5330       0x10 
 .rodata        0x00000000004a5340      0x120 /work/glibc-obj/libc.a(res_init.o)
 .rodata.str1.8
                0x00000000004a5460       0xf7 /work/glibc-obj/libc.a(res_hconf.o)
 .rodata.str1.1
                0x00000000004a5557       0x91 /work/glibc-obj/libc.a(res_hconf.o)
                                         0x9b (size before relaxing)
 *fill*         0x00000000004a55e8        0x8 
 .rodata.str1.16
                0x00000000004a55f0       0x19 /work/glibc-obj/libc.a(res_hconf.o)
 *fill*         0x00000000004a5609       0x17 
 .rodata        0x00000000004a5620       0x40 /work/glibc-obj/libc.a(res_hconf.o)
 .rodata.str1.1
                0x00000000004a5660      0x1f8 /work/glibc-obj/libc.a(dl-load.o)
                                        0x222 (size before relaxing)
 .rodata.str1.8
                0x00000000004a5858      0x52f /work/glibc-obj/libc.a(dl-load.o)
                                        0x5cf (size before relaxing)
 *fill*         0x00000000004a5d87        0x9 
 .rodata.str1.16
                0x00000000004a5d90       0x5c /work/glibc-obj/libc.a(dl-load.o)
                                         0x7c (size before relaxing)
 *fill*         0x00000000004a5dec        0x4 
 .rodata.cst16  0x00000000004a5df0       0x20 /work/glibc-obj/libc.a(dl-load.o)
 .rodata        0x00000000004a5e10       0x24 /work/glibc-obj/libc.a(dl-load.o)
 .rodata.cst4   0x00000000004a5e34        0x4 /work/glibc-obj/libc.a(dl-load.o)
 .rodata.str1.1
                0x00000000004a5e38       0x93 /work/glibc-obj/libc.a(dl-lookup.o)
                                         0xb4 (size before relaxing)
 *fill*         0x00000000004a5ecb        0x5 
 .rodata.str1.8
                0x00000000004a5ed0      0x1dc /work/glibc-obj/libc.a(dl-lookup.o)
 *fill*         0x00000000004a60ac        0x4 
 .rodata.str1.16
                0x00000000004a60b0       0x14 /work/glibc-obj/libc.a(dl-lookup.o)
 *fill*         0x00000000004a60c4        0x4 
 .rodata.str1.8
                0x00000000004a60c8      0x21e /work/glibc-obj/libc.a(dl-reloc.o)
 .rodata.str1.1
                0x00000000004a62e6       0x26 /work/glibc-obj/libc.a(dl-reloc.o)
                                         0x4d (size before relaxing)
 *fill*         0x00000000004a630c       0x14 
 .rodata        0x00000000004a6320      0x2ac /work/glibc-obj/libc.a(dl-reloc.o)
 *fill*         0x00000000004a65cc       0x14 
 .rodata.str1.32
                0x00000000004a65e0       0x40 /work/glibc-obj/libc.a(dl-reloc.o)
                                         0x3b (size before relaxing)
 .rodata.str1.16
                0x00000000004a6620       0x1a /work/glibc-obj/libc.a(dl-reloc.o)
 .rodata.str1.1
                0x00000000004a663a       0x37 /work/glibc-obj/libc.a(dl-hwcaps.o)
 *fill*         0x00000000004a6671        0xf 
 .rodata.str1.16
                0x00000000004a6680       0x15 /work/glibc-obj/libc.a(dl-hwcaps.o)
 .rodata.str1.1
                0x00000000004a6695       0x36 /work/glibc-obj/libc.a(dl-misc.o)
 *fill*         0x00000000004a66cb        0x5 
 .rodata.str1.8
                0x00000000004a66d0       0x20 /work/glibc-obj/libc.a(dl-misc.o)
 *fill*         0x00000000004a66f0       0x10 
 .rodata        0x00000000004a6700       0x78 /work/glibc-obj/libc.a(dl-misc.o)
 *fill*         0x00000000004a6778        0x8 
 .rodata.str1.16
                0x00000000004a6780       0x13 /work/glibc-obj/libc.a(dl-misc.o)
 .rodata.str1.1
                0x00000000004a6793       0x69 /work/glibc-obj/libc.a(dl-profile.o)
 *fill*         0x00000000004a67fc        0x4 
 .rodata.str1.8
                0x00000000004a6800       0x63 /work/glibc-obj/libc.a(dl-profile.o)
 .rodata.str1.1
                0x00000000004a6863       0x21 /work/glibc-obj/libc.a(dl-origin.o)
 *fill*         0x00000000004a6884        0x4 
 .rodata.str1.8
                0x00000000004a6888       0x37 /work/glibc-obj/libc.a(dl-origin.o)
 *fill*         0x00000000004a68bf        0x1 
 .rodata.str1.8
                0x00000000004a68c0       0x86 /work/glibc-obj/libc.a(dl-exception.o)
 .rodata.str1.1
                0x00000000004a6946        0x1 /work/glibc-obj/libc.a(dl-exception.o)
 .rodata.str1.1
                0x00000000004a6946       0x44 /work/glibc-obj/libc.a(dl-cache.o)
                                         0x56 (size before relaxing)
 .rodata.str1.1
                0x00000000004a698a       0x2b /work/glibc-obj/libc.a(dl-libc.o)
 .rodata.str1.1
                0x00000000004a69b5        0xc /work/glibc-obj/libc.a(C-messages.o)
                                          0xd (size before relaxing)
 *fill*         0x00000000004a69c1       0x1f 
 .rodata        0x00000000004a69e0       0x68 /work/glibc-obj/libc.a(C-messages.o)
                0x00000000004a69e0                _nl_C_LC_MESSAGES
 .rodata.str1.1
                0x00000000004a6a48        0x2 /work/glibc-obj/libc.a(C-monetary.o)
                                          0x5 (size before relaxing)
 *fill*         0x00000000004a6a4a       0x16 
 .rodata        0x00000000004a6a60      0x1b0 /work/glibc-obj/libc.a(C-monetary.o)
                0x00000000004a6a60                _nl_C_LC_MONETARY
 .rodata.cst8   0x00000000004a6c10        0x8 /work/glibc-obj/libc.a(C-monetary.o)
 .rodata.str1.1
                0x00000000004a6c18        0x3 /work/glibc-obj/libc.a(C-numeric.o)
 *fill*         0x00000000004a6c18        0x8 
 .rodata        0x00000000004a6c20       0x70 /work/glibc-obj/libc.a(C-numeric.o)
                0x00000000004a6c20                _nl_C_LC_NUMERIC
 .rodata.str1.1
                0x00000000004a6c90      0x130 /work/glibc-obj/libc.a(C-time.o)
                                        0x131 (size before relaxing)
 .rodata.str4.4
                0x00000000004a6dc0      0x210 /work/glibc-obj/libc.a(C-time.o)
                                        0x214 (size before relaxing)
 .rodata.str4.8
                0x00000000004a6fd0      0x2b0 /work/glibc-obj/libc.a(C-time.o)
 .rodata        0x00000000004a7280      0x538 /work/glibc-obj/libc.a(C-time.o)
                0x00000000004a7280                _nl_C_LC_TIME
 *fill*         0x00000000004a77b8        0x8 
 .rodata        0x00000000004a77c0       0x58 /work/glibc-obj/libc.a(C-paper.o)
                0x00000000004a77c0                _nl_C_LC_PAPER
 .rodata.str1.1
                0x00000000004a7818        0xf /work/glibc-obj/libc.a(C-name.o)
                                         0x10 (size before relaxing)
 *fill*         0x00000000004a7827       0x19 
 .rodata        0x00000000004a7840       0x78 /work/glibc-obj/libc.a(C-name.o)
                0x00000000004a7840                _nl_C_LC_NAME
 .rodata.str1.8
                0x00000000004a78b8       0x2c /work/glibc-obj/libc.a(C-address.o)
 .rodata.str1.1
                0x00000000004a78e4        0x1 /work/glibc-obj/libc.a(C-address.o)
 *fill*         0x00000000004a78e4       0x1c 
 .rodata        0x00000000004a7900       0xa8 /work/glibc-obj/libc.a(C-address.o)
                0x00000000004a7900                _nl_C_LC_ADDRESS
 .rodata.str1.1
                0x00000000004a79a8        0xa /work/glibc-obj/libc.a(C-telephone.o)
                                          0xb (size before relaxing)
 *fill*         0x00000000004a79b2        0xe 
 .rodata        0x00000000004a79c0       0x68 /work/glibc-obj/libc.a(C-telephone.o)
                0x00000000004a79c0                _nl_C_LC_TELEPHONE
 .rodata.str1.1
                0x00000000004a7a28        0x2 /work/glibc-obj/libc.a(C-measurement.o)
 *fill*         0x00000000004a7a28       0x18 
 .rodata        0x00000000004a7a40       0x50 /work/glibc-obj/libc.a(C-measurement.o)
                0x00000000004a7a40                _nl_C_LC_MEASUREMENT
 .rodata.str1.1
                0x00000000004a7a90       0x67 /work/glibc-obj/libc.a(C-identification.o)
                                         0x68 (size before relaxing)
 *fill*         0x00000000004a7af7        0x1 
 .rodata.str1.8
                0x00000000004a7af8       0x6c /work/glibc-obj/libc.a(C-identification.o)
 *fill*         0x00000000004a7b64       0x1c 
 .rodata        0x00000000004a7b80      0x180 /work/glibc-obj/libc.a(C-identification.o)
                0x00000000004a7c40                _nl_C_LC_IDENTIFICATION
 .rodata        0x00000000004a7d00      0x600 /work/glibc-obj/libc.a(C-collate.o)
                0x00000000004a7d00                _nl_C_LC_COLLATE
 .rodata        0x00000000004a8300     0x3768 /work/glibc-obj/libc.a(fpioconst.o)
                0x00000000004a8300                _fpioconst_pow10
                0x00000000004a8480                __tens
 *fill*         0x00000000004aba68       0x18 
 .rodata        0x00000000004aba80       0x24 /work/glibc-obj/libc.a(itoa-digits.o)
                0x00000000004aba80                _itoa_lower_digits
 *fill*         0x00000000004abaa4       0x1c 
 .rodata        0x00000000004abac0       0x24 /work/glibc-obj/libc.a(itoa-udigits.o)
                0x00000000004abac0                _itoa_upper_digits
 *fill*         0x00000000004abae4       0x1c 
 .rodata        0x00000000004abb00      0x130 /work/glibc-obj/libc.a(itowa-digits.o)
                0x00000000004abb00                _itowa_upper_digits
                0x00000000004abba0                _itowa_lower_digits
 .rodata.str1.1
                0x00000000004abc30      0x8b2 /work/glibc-obj/libc.a(errlist.o)
 *fill*         0x00000000004ac4e2        0x6 
 .rodata.str1.8
                0x00000000004ac4e8      0x3bf /work/glibc-obj/libc.a(errlist.o)
 *fill*         0x00000000004ac8a7       0x19 
 .rodata        0x00000000004ac8c0      0x438 /work/glibc-obj/libc.a(errlist.o)
                0x00000000004ac8c0                _sys_errlist
                0x00000000004ac8c0                sys_errlist
                0x00000000004ac8c0                _sys_errlist_internal
                0x00000000004ac8c0                __sys_errlist_internal
 .rodata.cst4   0x00000000004accf8        0x4 /work/glibc-obj/libc.a(errlist.o)
                0x00000000004accf8                sys_nerr
                0x00000000004accf8                __sys_nerr_internal
                0x00000000004accf8                _sys_nerr
                0x00000000004accf8                _sys_nerr_internal
 .rodata.str1.1
                0x00000000004accfc       0x25 /work/glibc-obj/libc.a(sdlerror.o)
                                         0x30 (size before relaxing)
 .rodata.str1.1
                0x00000000004acd21       0x1b /work/glibc-obj/libc.a(sdlinfo.o)
 *fill*         0x00000000004acd3c        0x4 
 .rodata        0x00000000004acd40       0x58 /work/glibc-obj/libc.a(sdlinfo.o)
 .rodata.str1.1
                0x00000000004acd98       0x12 /work/glibc-obj/libc.a(sdlmopen.o)
                                         0x13 (size before relaxing)
 .rodata.str1.1
                0x00000000004acdaa        0xe /work/glibc-obj/libc.a(strerror.o)
 .rodata.cst16  0x00000000004acdb8       0x30 /work/glibc-obj/libc.a(strncase_l-sse2.o)
 .rodata        0x00000000004acdb8       0x40 /work/glibc-obj/libc.a(strncase_l-sse2.o)
 .rodata.cst16  0x00000000004acdf8       0x30 /work/glibc-obj/libc.a(strncase_l-ssse3.o)
 .rodata        0x00000000004acdf8       0x40 /work/glibc-obj/libc.a(strncase_l-ssse3.o)
 .rodata.cst16  0x00000000004ace38       0x30 /work/glibc-obj/libc.a(strncase_l-sse4_2.o)
 .rodata.sse4.2
                0x00000000004ace38       0x40 /work/glibc-obj/libc.a(strncase_l-sse4_2.o)
 .rodata.cst16  0x00000000004ace78       0x30 /work/glibc-obj/libc.a(strncase_l-avx.o)
 .rodata.avx    0x00000000004ace78       0x40 /work/glibc-obj/libc.a(strncase_l-avx.o)
 *fill*         0x00000000004aceb8        0x8 
 .rodata.cst16  0x00000000004acec0       0x10 /work/glibc-obj/libc.a(inet_addr.o)
 .rodata.str1.1
                0x00000000004aced0       0x14 /work/glibc-obj/libc.a(dl-runtime.o)
 *fill*         0x00000000004acee4        0x4 
 .rodata.str1.8
                0x00000000004acee8       0x42 /work/glibc-obj/libc.a(dl-runtime.o)
 *fill*         0x00000000004acf2a        0x6 
 .rodata.str1.16
                0x00000000004acf30       0x12 /work/glibc-obj/libc.a(dl-runtime.o)
 .rodata.str1.1
                0x00000000004acf42       0xbb /work/glibc-obj/libc.a(dl-open.o)
                                         0xee (size before relaxing)
 *fill*         0x00000000004acffd        0x3 
 .rodata.str1.8
                0x00000000004ad000      0x179 /work/glibc-obj/libc.a(dl-open.o)
 *fill*         0x00000000004ad179        0x7 
 .rodata.str1.16
                0x00000000004ad180       0x18 /work/glibc-obj/libc.a(dl-open.o)
 .rodata.str1.1
                0x00000000004ad198       0xe9 /work/glibc-obj/libc.a(dl-close.o)
                                        0x102 (size before relaxing)
 *fill*         0x00000000004ad281        0x7 
 .rodata.str1.8
                0x00000000004ad288      0x166 /work/glibc-obj/libc.a(dl-close.o)
 *fill*         0x00000000004ad3ee        0x2 
 .rodata.str1.16
                0x00000000004ad3f0       0x21 /work/glibc-obj/libc.a(dl-close.o)
 .rodata.str1.1
                0x00000000004ad411       0x17 /work/glibc-obj/libc.a(sdlopen.o)
                                         0x18 (size before relaxing)
 .rodata.str1.8
                0x00000000004ad428       0x33 /work/glibc-obj/libc.a(opensock.o)
 .rodata.str1.1
                0x00000000004ad45b       0x19 /work/glibc-obj/libc.a(opensock.o)
 *fill*         0x00000000004ad474        0xc 
 .rodata        0x00000000004ad480       0xdc /work/glibc-obj/libc.a(opensock.o)
 *fill*         0x00000000004ad55c        0x4 
 .rodata.str1.8
                0x00000000004ad560       0x6a /work/glibc-obj/libc.a(ifaddrs.o)
 *fill*         0x00000000004ad5ca        0x6 
 .rodata.str1.16
                0x00000000004ad5d0       0x14 /work/glibc-obj/libc.a(ifaddrs.o)
 *fill*         0x00000000004ad5e4        0x4 
 .rodata.str1.8
                0x00000000004ad5e8      0x105 /work/glibc-obj/libc.a(netlink_assert_response.o)
 .rodata.str1.1
                0x00000000004ad6ed       0x17 /work/glibc-obj/libc.a(dl-deps.o)
                                         0x26 (size before relaxing)
 *fill*         0x00000000004ad704        0x4 
 .rodata.str1.8
                0x00000000004ad708      0x193 /work/glibc-obj/libc.a(dl-deps.o)
                                        0x1bb (size before relaxing)
 *fill*         0x00000000004ad89b        0x5 
 .rodata.str1.16
                0x00000000004ad8a0       0x14 /work/glibc-obj/libc.a(dl-deps.o)
 .rodata.str1.1
                0x00000000004ad8b4       0x2b /work/glibc-obj/libc.a(dl-init.o)
                                         0x3a (size before relaxing)
 .rodata.str1.1
                0x00000000004ad8df       0x41 /work/glibc-obj/libc.a(dl-version.o)
                                         0x50 (size before relaxing)
 .rodata.str1.8
                0x00000000004ad920      0x165 /work/glibc-obj/libc.a(dl-version.o)
 *fill*         0x00000000004ada85        0xb 
 .rodata.str1.16
                0x00000000004ada90       0x20 /work/glibc-obj/libc.a(dl-version.o)
                                         0x17 (size before relaxing)
 .rodata.str1.8
                0x00000000004adab0       0x30 /work/glibc-obj/libc.a(dl-sym.o)
                                         0x2e (size before relaxing)
 .rodata        0x00000000004adae0      0x154 /work/glibc-obj/libc.a(strncpy-sse2-unaligned.o)
 .rodata.cst4   0x00000000004adc34        0x8 /usr/lib/gcc/x86_64-redhat-linux/8//libgcc.a(sfp-exceptions.o)
                                          0xc (size before relaxing)
 .rodata        0x00000000004adc3c       0x34 /usr/lib/gcc/x86_64-redhat-linux/8//libgcc_eh.a(unwind-c.o)

.stapsdt.base   0x00000000004adc70        0x1
 .stapsdt.base  0x00000000004adc70        0x1 /usr/lib/gcc/x86_64-redhat-linux/8//libgcc_eh.a(unwind-dw2.o)
                0x00000000004adc70                _.stapsdt.base

__libc_subfreeres
                0x00000000004adc78       0x60
 __libc_subfreeres
                0x00000000004adc78        0x8 /work/glibc-obj/libc.a(dcigettext.o)
 __libc_subfreeres
                0x00000000004adc80        0x8 /work/glibc-obj/libc.a(genops.o)
 __libc_subfreeres
                0x00000000004adc88        0x8 /work/glibc-obj/libc.a(register-atfork.o)
 __libc_subfreeres
                0x00000000004adc90        0x8 /work/glibc-obj/libc.a(res-close.o)
 __libc_subfreeres
                0x00000000004adc98        0x8 /work/glibc-obj/libc.a(resolv_conf.o)
 __libc_subfreeres
                0x00000000004adca0        0x8 /work/glibc-obj/libc.a(gconv_db.o)
 __libc_subfreeres
                0x00000000004adca8        0x8 /work/glibc-obj/libc.a(gconv_conf.o)
 __libc_subfreeres
                0x00000000004adcb0        0x8 /work/glibc-obj/libc.a(gconv_cache.o)
 __libc_subfreeres
                0x00000000004adcb8        0x8 /work/glibc-obj/libc.a(gconv_dl.o)
 __libc_subfreeres
                0x00000000004adcc0        0x8 /work/glibc-obj/libc.a(setenv.o)
 __libc_subfreeres
                0x00000000004adcc8        0x8 /work/glibc-obj/libc.a(reg-modifier.o)
 __libc_subfreeres
                0x00000000004adcd0        0x8 /work/glibc-obj/libc.a(dl-libc.o)

__libc_IO_vtables
                0x00000000004adce0      0x768
 __libc_IO_vtables
                0x00000000004adce0      0x228 /work/glibc-obj/libc.a(wfileops.o)
                0x00000000004adce0                _IO_wfile_jumps_maybe_mmap
                0x00000000004adda0                _IO_wfile_jumps_mmap
                0x00000000004ade60                _IO_wfile_jumps
 *fill*         0x00000000004adf08       0x18 
 __libc_IO_vtables
                0x00000000004adf20      0x228 /work/glibc-obj/libc.a(fileops.o)
                0x00000000004adf20                _IO_file_jumps_maybe_mmap
                0x00000000004adfe0                _IO_file_jumps_mmap
                0x00000000004ae0a0                _IO_file_jumps
 *fill*         0x00000000004ae148       0x18 
 __libc_IO_vtables
                0x00000000004ae160       0xa8 /work/glibc-obj/libc.a(strops.o)
                0x00000000004ae160                _IO_str_jumps
 *fill*         0x00000000004ae208       0x18 
 __libc_IO_vtables
                0x00000000004ae220       0xa8 /work/glibc-obj/libc.a(vfprintf.o)
 *fill*         0x00000000004ae2c8       0x18 
 __libc_IO_vtables
                0x00000000004ae2e0       0xa8 /work/glibc-obj/libc.a(vfwprintf.o)
 *fill*         0x00000000004ae388       0x18 
 __libc_IO_vtables
                0x00000000004ae3a0       0xa8 /work/glibc-obj/libc.a(vsnprintf.o)
                0x00000000004ae3a0                _IO_strn_jumps

__libc_atexit   0x00000000004ae448        0x8
 __libc_atexit  0x00000000004ae448        0x8 /work/glibc-obj/libc.a(genops.o)

__libc_thread_subfreeres
                0x00000000004ae450       0x10
 __libc_thread_subfreeres
                0x00000000004ae450        0x8 /work/glibc-obj/libc.a(malloc.o)
 __libc_thread_subfreeres
                0x00000000004ae458        0x8 /work/glibc-obj/libc.a(res-close.o)

.rodata1
 *(.rodata1)

.eh_frame_hdr
 *(.eh_frame_hdr)
 *(.eh_frame_entry .eh_frame_entry.*)

.eh_frame       0x00000000004ae460     0xc5e0
 *(.eh_frame)
 .eh_frame      0x00000000004ae460       0x30 /work/glibc-obj/csu/crt1.o
                                         0x2c (size before relaxing)
 .eh_frame      0x00000000004ae490        0x0 /usr/lib/gcc/x86_64-redhat-linux/8/crtbeginT.o
 *fill*         0x00000000004ae490        0x0 
 .eh_frame      0x00000000004ae490       0x58 threads.o
 .eh_frame      0x00000000004ae4e8      0x5c0 /work/glibc-obj/nptl/libpthread.a(pthread_create.o)
                                        0x5d8 (size before relaxing)
 .eh_frame      0x00000000004aeaa8       0x18 /work/glibc-obj/nptl/libpthread.a(pthread_join.o)
                                         0x30 (size before relaxing)
 .eh_frame      0x00000000004aeac0       0xc0 /work/glibc-obj/nptl/libpthread.a(pthread_join_common.o)
                                         0xd8 (size before relaxing)
 .eh_frame      0x00000000004aeb80       0xa8 /work/glibc-obj/nptl/libpthread.a(pthread_mutex_lock.o)
                                         0xc0 (size before relaxing)
 .eh_frame      0x00000000004aec28       0x58 /work/glibc-obj/nptl/libpthread.a(pthread_mutex_trylock.o)
                                         0x70 (size before relaxing)
 .eh_frame      0x00000000004aec80       0xb0 /work/glibc-obj/nptl/libpthread.a(pthread_mutex_unlock.o)
                                         0xc8 (size before relaxing)
 .eh_frame      0x00000000004aed30       0x50 /work/glibc-obj/nptl/libpthread.a(pthread_key_create.o)
                                         0x68 (size before relaxing)
 .eh_frame      0x00000000004aed80       0x40 /work/glibc-obj/nptl/libpthread.a(pthread_key_delete.o)
                                         0x58 (size before relaxing)
 .eh_frame      0x00000000004aedc0       0x18 /work/glibc-obj/nptl/libpthread.a(pthread_getspecific.o)
                                         0x30 (size before relaxing)
 .eh_frame      0x00000000004aedd8       0x40 /work/glibc-obj/nptl/libpthread.a(pthread_setspecific.o)
                                         0x58 (size before relaxing)
 .eh_frame      0x00000000004aee18       0x58 /work/glibc-obj/nptl/libpthread.a(pthread_cancel.o)
                                         0x70 (size before relaxing)
 .eh_frame      0x00000000004aee70       0xb0 /work/glibc-obj/nptl/libpthread.a(pthread_once.o)
                                         0xc8 (size before relaxing)
 .eh_frame      0x00000000004aef20       0x28 /work/glibc-obj/nptl/libpthread.a(cleanup_compat.o)
                                         0x40 (size before relaxing)
 .eh_frame      0x00000000004aef48       0x28 /work/glibc-obj/nptl/libpthread.a(cancellation.o)
                                         0x40 (size before relaxing)
 .eh_frame      0x00000000004aef70       0xe0 /work/glibc-obj/nptl/libpthread.a(lowlevellock.o)
                                         0xf8 (size before relaxing)
 .eh_frame      0x00000000004af050       0x30 /work/glibc-obj/nptl/libpthread.a(pause.o)
                                         0x48 (size before relaxing)
 .eh_frame      0x00000000004af080       0xb8 /work/glibc-obj/nptl/libpthread.a(tpp.o)
                                         0xd0 (size before relaxing)
 .eh_frame      0x00000000004af138       0xc0 /work/glibc-obj/nptl/libpthread.a(elision-lock.o)
                                         0xd8 (size before relaxing)
 .eh_frame      0x00000000004af1f8       0x18 /work/glibc-obj/nptl/libpthread.a(elision-unlock.o)
                                         0x30 (size before relaxing)
 .eh_frame      0x00000000004af210       0x30 /work/glibc-obj/nptl/libpthread.a(elision-trylock.o)
                                         0x48 (size before relaxing)
 .eh_frame      0x00000000004af240       0xc0 /work/glibc-obj/nptl/libpthread.a(nptl-init.o)
                                         0xd8 (size before relaxing)
 .eh_frame      0x00000000004af300       0x28 /work/glibc-obj/nptl/libpthread.a(events.o)
                                         0x40 (size before relaxing)
 .eh_frame      0x00000000004af328       0x88 /work/glibc-obj/nptl/libpthread.a(unwind.o)
                                         0xa0 (size before relaxing)
 .eh_frame      0x00000000004af3b0       0xc8 /work/glibc-obj/nptl/libpthread.a(sigaction.o)
                                         0xe8 (size before relaxing)
 .eh_frame      0x00000000004af478      0x778 /usr/lib/gcc/x86_64-redhat-linux/8//libgcc_eh.a(unwind-dw2.o)
                                        0x7b8 (size before relaxing)
 .eh_frame      0x00000000004afbf0      0x538 /usr/lib/gcc/x86_64-redhat-linux/8//libgcc_eh.a(unwind-dw2-fde-dip.o)
                                        0x568 (size before relaxing)
 .eh_frame      0x00000000004b0128       0x58 /work/glibc-obj/libc.a(libc-start.o)
                                         0x70 (size before relaxing)
 .eh_frame      0x00000000004b0180       0x50 /work/glibc-obj/libc.a(check_fds.o)
                                         0x68 (size before relaxing)
 .eh_frame      0x00000000004b01d0       0x50 /work/glibc-obj/libc.a(libc-tls.o)
                                         0x68 (size before relaxing)
 .eh_frame      0x00000000004b0220       0x58 /work/glibc-obj/libc.a(elf-init.o)
                                         0x70 (size before relaxing)
 .eh_frame      0x00000000004b0278       0xa0 /work/glibc-obj/libc.a(assert.o)
                                         0xb8 (size before relaxing)
 .eh_frame      0x00000000004b0318       0x50 /work/glibc-obj/libc.a(ctype-info.o)
                                         0x68 (size before relaxing)
 .eh_frame      0x00000000004b0368       0x18 /work/glibc-obj/libc.a(dcgettext.o)
                                         0x30 (size before relaxing)
 .eh_frame      0x00000000004b0380      0x150 /work/glibc-obj/libc.a(dcigettext.o)
                                        0x168 (size before relaxing)
 .eh_frame      0x00000000004b04d0       0xb0 /work/glibc-obj/libc.a(finddomain.o)
                                         0xc8 (size before relaxing)
 .eh_frame      0x00000000004b0580       0xd8 /work/glibc-obj/libc.a(loadmsgcat.o)
                                         0xf0 (size before relaxing)
 .eh_frame      0x00000000004b0658       0xa0 /work/glibc-obj/libc.a(localealias.o)
                                         0xb8 (size before relaxing)
 .eh_frame      0x00000000004b06f8       0xa8 /work/glibc-obj/libc.a(l10nflist.o)
                                         0xc0 (size before relaxing)
 .eh_frame      0x00000000004b07a0       0x48 /work/glibc-obj/libc.a(explodename.o)
                                         0x60 (size before relaxing)
 .eh_frame      0x00000000004b07e8       0xd8 /work/glibc-obj/libc.a(plural.o)
                                         0xf0 (size before relaxing)
 .eh_frame      0x00000000004b08c0       0x50 /work/glibc-obj/libc.a(plural-exp.o)
                                         0x68 (size before relaxing)
 .eh_frame      0x00000000004b0910       0x18 /work/glibc-obj/libc.a(hash-string.o)
                                         0x30 (size before relaxing)
 .eh_frame      0x00000000004b0928       0x18 /work/glibc-obj/libc.a(bsd-_setjmp.o)
                                         0x30 (size before relaxing)
 .eh_frame      0x00000000004b0940       0x20 /work/glibc-obj/libc.a(longjmp.o)
                                         0x38 (size before relaxing)
 .eh_frame      0x00000000004b0960       0x30 /work/glibc-obj/libc.a(__longjmp.o)
                                         0x48 (size before relaxing)
 .eh_frame      0x00000000004b0990       0x18 /work/glibc-obj/libc.a(jmp-unwind.o)
                                         0x30 (size before relaxing)
 .eh_frame      0x00000000004b09a8       0x20 /work/glibc-obj/libc.a(raise.o)
                                         0x38 (size before relaxing)
 .eh_frame      0x00000000004b09c8       0x18 /work/glibc-obj/libc.a(sigprocmask.o)
                                         0x30 (size before relaxing)
 .eh_frame      0x00000000004b09e0       0x30 /work/glibc-obj/libc.a(abort.o)
                                         0x48 (size before relaxing)
 .eh_frame      0x00000000004b0a10       0x98 /work/glibc-obj/libc.a(msort.o)
                                         0xb0 (size before relaxing)
 .eh_frame      0x00000000004b0aa8       0x50 /work/glibc-obj/libc.a(getenv.o)
                                         0x68 (size before relaxing)
 .eh_frame      0x00000000004b0af8       0x70 /work/glibc-obj/libc.a(exit.o)
                                         0x88 (size before relaxing)
 .eh_frame      0x00000000004b0b68       0x98 /work/glibc-obj/libc.a(cxa_atexit.o)
                                         0xb0 (size before relaxing)
 .eh_frame      0x00000000004b0c00       0x28 /work/glibc-obj/libc.a(strtoul.o)
                                         0x40 (size before relaxing)
 .eh_frame      0x00000000004b0c28       0x78 /work/glibc-obj/libc.a(strtoul_l.o)
                                         0x90 (size before relaxing)
 .eh_frame      0x00000000004b0ca0       0x50 /work/glibc-obj/libc.a(grouping.o)
                                         0x68 (size before relaxing)
 .eh_frame      0x00000000004b0cf0       0x20 /work/glibc-obj/libc.a(fprintf.o)
                                         0x38 (size before relaxing)
 .eh_frame      0x00000000004b0d10       0x20 /work/glibc-obj/libc.a(asprintf.o)
                                         0x38 (size before relaxing)
 .eh_frame      0x00000000004b0d30       0xb0 /work/glibc-obj/libc.a(fxprintf.o)
                                         0xc8 (size before relaxing)
 .eh_frame      0x00000000004b0de0       0xb8 /work/glibc-obj/libc.a(iofclose.o)
 .eh_frame      0x00000000004b0e98       0x88 /work/glibc-obj/libc.a(iofflush.o)
                                         0xa8 (size before relaxing)
 .eh_frame      0x00000000004b0f20       0x88 /work/glibc-obj/libc.a(iofopen.o)
                                         0xa0 (size before relaxing)
 .eh_frame      0x00000000004b0fa8       0xa8 /work/glibc-obj/libc.a(iofwrite.o)
                                         0xc8 (size before relaxing)
 .eh_frame      0x00000000004b1050      0x3e0 /work/glibc-obj/libc.a(wfileops.o)
                                        0x418 (size before relaxing)
 .eh_frame      0x00000000004b1430       0x48 /work/glibc-obj/libc.a(vasprintf.o)
                                         0x60 (size before relaxing)
 .eh_frame      0x00000000004b1478       0x68 /work/glibc-obj/libc.a(libc_fatal.o)
                                         0x80 (size before relaxing)
 .eh_frame      0x00000000004b14e0       0x18 /work/glibc-obj/libc.a(vtables.o)
                                         0x30 (size before relaxing)
 .eh_frame      0x00000000004b14f8       0x40 /work/glibc-obj/libc.a(iofgets_u.o)
                                         0x58 (size before relaxing)
 .eh_frame      0x00000000004b1538      0x6d0 /work/glibc-obj/libc.a(fileops.o)
                                        0x708 (size before relaxing)
 .eh_frame      0x00000000004b1c08      0x8b0 /work/glibc-obj/libc.a(genops.o)
                                        0x8c8 (size before relaxing)
 .eh_frame      0x00000000004b24b8      0x1d0 /work/glibc-obj/libc.a(strops.o)
                                        0x1e8 (size before relaxing)
 .eh_frame      0x00000000004b2688      0xc68 /work/glibc-obj/libc.a(malloc.o)
                                        0xc80 (size before relaxing)
 .eh_frame      0x00000000004b32f0       0x18 /work/glibc-obj/libc.a(morecore.o)
                                         0x30 (size before relaxing)
 .eh_frame      0x00000000004b3308       0x20 /work/glibc-obj/libc.a(thread-freeres.o)
                                         0x38 (size before relaxing)
 .eh_frame      0x00000000004b3328       0x18 /work/glibc-obj/libc.a(strchr.o)
                                         0x30 (size before relaxing)
 .eh_frame      0x00000000004b3340       0x18 /work/glibc-obj/libc.a(strcmp.o)
                                         0x30 (size before relaxing)
 .eh_frame      0x00000000004b3358       0x18 /work/glibc-obj/libc.a(strcpy.o)
                                         0x30 (size before relaxing)
 .eh_frame      0x00000000004b3370       0x18 /work/glibc-obj/libc.a(strcspn.o)
                                         0x30 (size before relaxing)
 .eh_frame      0x00000000004b3388       0x38 /work/glibc-obj/libc.a(strdup.o)
                                         0x50 (size before relaxing)
 .eh_frame      0x00000000004b33c0       0x18 /work/glibc-obj/libc.a(strlen.o)
                                         0x30 (size before relaxing)
 .eh_frame      0x00000000004b33d8       0x18 /work/glibc-obj/libc.a(strncmp.o)
                                         0x30 (size before relaxing)
 .eh_frame      0x00000000004b33f0       0xd0 /work/glibc-obj/libc.a(strstr.o)
                                         0xe8 (size before relaxing)
 .eh_frame      0x00000000004b34c0       0x18 /work/glibc-obj/libc.a(memchr.o)
                                         0x30 (size before relaxing)
 .eh_frame      0x00000000004b34d8       0x18 /work/glibc-obj/libc.a(memcmp.o)
                                         0x30 (size before relaxing)
 .eh_frame      0x00000000004b34f0       0x18 /work/glibc-obj/libc.a(memmove.o)
                                         0x30 (size before relaxing)
 .eh_frame      0x00000000004b3508       0x18 /work/glibc-obj/libc.a(memset.o)
                                         0x30 (size before relaxing)
 .eh_frame      0x00000000004b3520       0x18 /work/glibc-obj/libc.a(mempcpy.o)
                                         0x30 (size before relaxing)
 .eh_frame      0x00000000004b3538       0x18 /work/glibc-obj/libc.a(stpcpy.o)
                                         0x30 (size before relaxing)
 .eh_frame      0x00000000004b3550       0x18 /work/glibc-obj/libc.a(strcasecmp_l.o)
                                         0x30 (size before relaxing)
 .eh_frame      0x00000000004b3568       0x18 /work/glibc-obj/libc.a(memcpy.o)
                                         0x30 (size before relaxing)
 .eh_frame      0x00000000004b3580       0x18 /work/glibc-obj/libc.a(rawmemchr.o)
                                         0x30 (size before relaxing)
 .eh_frame      0x00000000004b3598       0x18 /work/glibc-obj/libc.a(strchrnul.o)
                                         0x30 (size before relaxing)
 .eh_frame      0x00000000004b35b0       0x18 /work/glibc-obj/libc.a(strcmp-sse2.o)
                                         0x30 (size before relaxing)
 .eh_frame      0x00000000004b35c8       0x18 /work/glibc-obj/libc.a(strcmp-sse2-unaligned.o)
                                         0x30 (size before relaxing)
 .eh_frame      0x00000000004b35e0       0x18 /work/glibc-obj/libc.a(strcmp-ssse3.o)
                                         0x30 (size before relaxing)
 .eh_frame      0x00000000004b35f8       0x18 /work/glibc-obj/libc.a(strncmp-sse2.o)
                                         0x30 (size before relaxing)
 .eh_frame      0x00000000004b3610       0x18 /work/glibc-obj/libc.a(strncmp-ssse3.o)
                                         0x30 (size before relaxing)
 .eh_frame      0x00000000004b3628       0x18 /work/glibc-obj/libc.a(strncmp-sse4_2.o)
                                         0x30 (size before relaxing)
 .eh_frame      0x00000000004b3640       0x18 /work/glibc-obj/libc.a(memchr-sse2.o)
                                         0x30 (size before relaxing)
 .eh_frame      0x00000000004b3658       0x18 /work/glibc-obj/libc.a(rawmemchr-sse2.o)
                                         0x30 (size before relaxing)
 .eh_frame      0x00000000004b3670       0x18 /work/glibc-obj/libc.a(memchr-avx2.o)
                                         0x30 (size before relaxing)
 .eh_frame      0x00000000004b3688       0x18 /work/glibc-obj/libc.a(rawmemchr-avx2.o)
                                         0x30 (size before relaxing)
 .eh_frame      0x00000000004b36a0       0x18 /work/glibc-obj/libc.a(memcmp-sse2.o)
                                         0x30 (size before relaxing)
 .eh_frame      0x00000000004b36b8       0x18 /work/glibc-obj/libc.a(memcmp-avx2-movbe.o)
                                         0x30 (size before relaxing)
 .eh_frame      0x00000000004b36d0       0x18 /work/glibc-obj/libc.a(memcmp-sse4.o)
                                         0x30 (size before relaxing)
 .eh_frame      0x00000000004b36e8       0x50 /work/glibc-obj/libc.a(memcpy-ssse3.o)
                                         0x68 (size before relaxing)
 .eh_frame      0x00000000004b3738       0x28 /work/glibc-obj/libc.a(memmove-ssse3.o)
                                         0x40 (size before relaxing)
 .eh_frame      0x00000000004b3760       0x50 /work/glibc-obj/libc.a(memcpy-ssse3-back.o)
                                         0x68 (size before relaxing)
 .eh_frame      0x00000000004b37b0       0x28 /work/glibc-obj/libc.a(memmove-ssse3-back.o)
                                         0x40 (size before relaxing)
 .eh_frame      0x00000000004b37d8       0x50 /work/glibc-obj/libc.a(memmove-avx512-no-vzeroupper.o)
                                         0x68 (size before relaxing)
 .eh_frame      0x00000000004b3828       0x28 /work/glibc-obj/libc.a(strcasecmp_l-sse2.o)
                                         0x40 (size before relaxing)
 .eh_frame      0x00000000004b3850       0x28 /work/glibc-obj/libc.a(strcasecmp_l-ssse3.o)
                                         0x40 (size before relaxing)
 .eh_frame      0x00000000004b3878       0x28 /work/glibc-obj/libc.a(strcasecmp_l-sse4_2.o)
                                         0x40 (size before relaxing)
 .eh_frame      0x00000000004b38a0       0x28 /work/glibc-obj/libc.a(strcasecmp_l-avx.o)
                                         0x40 (size before relaxing)
 .eh_frame      0x00000000004b38c8       0x18 /work/glibc-obj/libc.a(strchr-sse2.o)
                                         0x30 (size before relaxing)
 .eh_frame      0x00000000004b38e0       0x18 /work/glibc-obj/libc.a(strchrnul-sse2.o)
                                         0x30 (size before relaxing)
 .eh_frame      0x00000000004b38f8       0x18 /work/glibc-obj/libc.a(strchr-avx2.o)
                                         0x30 (size before relaxing)
 .eh_frame      0x00000000004b3910       0x18 /work/glibc-obj/libc.a(strchrnul-avx2.o)
                                         0x30 (size before relaxing)
 .eh_frame      0x00000000004b3928       0x18 /work/glibc-obj/libc.a(strlen-sse2.o)
                                         0x30 (size before relaxing)
 .eh_frame      0x00000000004b3940       0x18 /work/glibc-obj/libc.a(strlen-avx2.o)
                                         0x30 (size before relaxing)
 .eh_frame      0x00000000004b3958       0x18 /work/glibc-obj/libc.a(strcpy-sse2.o)
                                         0x30 (size before relaxing)
 .eh_frame      0x00000000004b3970       0x18 /work/glibc-obj/libc.a(stpcpy-sse2.o)
                                         0x30 (size before relaxing)
 .eh_frame      0x00000000004b3988       0x18 /work/glibc-obj/libc.a(strcpy-ssse3.o)
                                         0x30 (size before relaxing)
 .eh_frame      0x00000000004b39a0       0x18 /work/glibc-obj/libc.a(stpcpy-ssse3.o)
                                         0x30 (size before relaxing)
 .eh_frame      0x00000000004b39b8       0x18 /work/glibc-obj/libc.a(strcpy-sse2-unaligned.o)
                                         0x30 (size before relaxing)
 .eh_frame      0x00000000004b39d0       0x18 /work/glibc-obj/libc.a(stpcpy-sse2-unaligned.o)
                                         0x30 (size before relaxing)
 .eh_frame      0x00000000004b39e8       0x18 /work/glibc-obj/libc.a(strchr-sse2-no-bsf.o)
                                         0x30 (size before relaxing)
 .eh_frame      0x00000000004b3a00       0x18 /work/glibc-obj/libc.a(memcmp-ssse3.o)
                                         0x30 (size before relaxing)
 .eh_frame      0x00000000004b3a18       0x18 /work/glibc-obj/libc.a(strstr-sse2-unaligned.o)
                                         0x30 (size before relaxing)
 .eh_frame      0x00000000004b3a30       0x20 /work/glibc-obj/libc.a(strcspn-sse2.o)
                                         0x38 (size before relaxing)
 .eh_frame      0x00000000004b3a50       0x18 /work/glibc-obj/libc.a(strcspn-c.o)
                                         0x30 (size before relaxing)
 .eh_frame      0x00000000004b3a68       0x18 /work/glibc-obj/libc.a(memset-avx512-no-vzeroupper.o)
                                         0x30 (size before relaxing)
 .eh_frame      0x00000000004b3a80       0xa0 /work/glibc-obj/libc.a(memmove-sse2-unaligned-erms.o)
                                         0xb8 (size before relaxing)
 .eh_frame      0x00000000004b3b20       0x50 /work/glibc-obj/libc.a(memmove-avx-unaligned-erms.o)
                                         0x68 (size before relaxing)
 .eh_frame      0x00000000004b3b70       0x50 /work/glibc-obj/libc.a(memmove-avx512-unaligned-erms.o)
                                         0x68 (size before relaxing)
 .eh_frame      0x00000000004b3bc0       0x78 /work/glibc-obj/libc.a(memset-sse2-unaligned-erms.o)
                                         0x90 (size before relaxing)
 .eh_frame      0x00000000004b3c38       0x50 /work/glibc-obj/libc.a(memset-avx2-unaligned-erms.o)
                                         0x68 (size before relaxing)
 .eh_frame      0x00000000004b3c88       0x50 /work/glibc-obj/libc.a(memset-avx512-unaligned-erms.o)
                                         0x68 (size before relaxing)
 .eh_frame      0x00000000004b3cd8      0x170 /work/glibc-obj/libc.a(cacheinfo.o)
                                        0x188 (size before relaxing)
 .eh_frame      0x00000000004b3e48       0x18 /work/glibc-obj/libc.a(strcasecmp_l-nonascii.o)
                                         0x30 (size before relaxing)
 .eh_frame      0x00000000004b3e60       0x18 /work/glibc-obj/libc.a(wmempcpy.o)
                                         0x30 (size before relaxing)
 .eh_frame      0x00000000004b3e78       0x18 /work/glibc-obj/libc.a(mbsrtowcs.o)
                                         0x30 (size before relaxing)
 .eh_frame      0x00000000004b3e90       0xd8 /work/glibc-obj/libc.a(wcsmbsload.o)
                                         0xf0 (size before relaxing)
 .eh_frame      0x00000000004b3f68       0x70 /work/glibc-obj/libc.a(mbsrtowcs_l.o)
                                         0x88 (size before relaxing)
 .eh_frame      0x00000000004b3fd8       0x18 /work/glibc-obj/libc.a(gettimeofday.o)
                                         0x30 (size before relaxing)
 .eh_frame      0x00000000004b3ff0       0x18 /work/glibc-obj/libc.a(_exit.o)
                                         0x30 (size before relaxing)
 .eh_frame      0x00000000004b4008       0x18 /work/glibc-obj/libc.a(getpid.o)
                                         0x30 (size before relaxing)
 .eh_frame      0x00000000004b4020       0x80 /work/glibc-obj/libc.a(sysconf.o)
                                         0x98 (size before relaxing)
 .eh_frame      0x00000000004b40a0       0x18 /work/glibc-obj/libc.a(sched_getp.o)
                                         0x30 (size before relaxing)
 .eh_frame      0x00000000004b40b8       0x18 /work/glibc-obj/libc.a(sched_sets.o)
                                         0x30 (size before relaxing)
 .eh_frame      0x00000000004b40d0       0x18 /work/glibc-obj/libc.a(sched_gets.o)
                                         0x30 (size before relaxing)
 .eh_frame      0x00000000004b40e8       0x18 /work/glibc-obj/libc.a(sched_yield.o)
                                         0x30 (size before relaxing)
 .eh_frame      0x00000000004b4100       0x18 /work/glibc-obj/libc.a(sched_primax.o)
                                         0x30 (size before relaxing)
 .eh_frame      0x00000000004b4118       0x18 /work/glibc-obj/libc.a(sched_primin.o)
                                         0x30 (size before relaxing)
 .eh_frame      0x00000000004b4130       0x20 /work/glibc-obj/libc.a(get_child_max.o)
                                         0x38 (size before relaxing)
 .eh_frame      0x00000000004b4150       0x18 /work/glibc-obj/libc.a(xstat.o)
                                         0x30 (size before relaxing)
 .eh_frame      0x00000000004b4168       0x18 /work/glibc-obj/libc.a(fxstat.o)
                                         0x30 (size before relaxing)
 .eh_frame      0x00000000004b4180       0x40 /work/glibc-obj/libc.a(open64.o)
                                         0x58 (size before relaxing)
 .eh_frame      0x00000000004b41c0       0x50 /work/glibc-obj/libc.a(read.o)
                                         0x68 (size before relaxing)
 .eh_frame      0x00000000004b4210       0x50 /work/glibc-obj/libc.a(write.o)
                                         0x68 (size before relaxing)
 .eh_frame      0x00000000004b4260       0x18 /work/glibc-obj/libc.a(lseek64.o)
                                         0x30 (size before relaxing)
 .eh_frame      0x00000000004b4278       0x48 /work/glibc-obj/libc.a(fcntl.o)
                                         0x60 (size before relaxing)
 .eh_frame      0x00000000004b42c0       0x40 /work/glibc-obj/libc.a(close.o)
                                         0x58 (size before relaxing)
 .eh_frame      0x00000000004b4300       0x50 /work/glibc-obj/libc.a(getcwd.o)
                                         0x68 (size before relaxing)
 .eh_frame      0x00000000004b4350       0x18 /work/glibc-obj/libc.a(getrlimit64.o)
                                         0x30 (size before relaxing)
 .eh_frame      0x00000000004b4368       0x38 /work/glibc-obj/libc.a(sbrk.o)
                                         0x50 (size before relaxing)
 .eh_frame      0x00000000004b43a0       0x18 /work/glibc-obj/libc.a(getpagesize.o)
                                         0x30 (size before relaxing)
 .eh_frame      0x00000000004b43b8       0x20 /work/glibc-obj/libc.a(getdtsz.o)
                                         0x38 (size before relaxing)
 .eh_frame      0x00000000004b43d8       0x58 /work/glibc-obj/libc.a(mmap64.o)
                                         0x70 (size before relaxing)
 .eh_frame      0x00000000004b4430       0x18 /work/glibc-obj/libc.a(munmap.o)
                                         0x30 (size before relaxing)
 .eh_frame      0x00000000004b4448       0x18 /work/glibc-obj/libc.a(mprotect.o)
                                         0x30 (size before relaxing)
 .eh_frame      0x00000000004b4460       0x18 /work/glibc-obj/libc.a(madvise.o)
                                         0x30 (size before relaxing)
 .eh_frame      0x00000000004b4478      0x160 /work/glibc-obj/libc.a(tsearch.o)
                                        0x178 (size before relaxing)
 .eh_frame      0x00000000004b45d8      0x118 /work/glibc-obj/libc.a(getsysstats.o)
                                        0x130 (size before relaxing)
 .eh_frame      0x00000000004b46f0       0x18 /work/glibc-obj/libc.a(getclktck.o)
                                         0x30 (size before relaxing)
 .eh_frame      0x00000000004b4708       0x30 /work/glibc-obj/libc.a(init-misc.o)
                                         0x48 (size before relaxing)
 .eh_frame      0x00000000004b4738       0x28 /work/glibc-obj/libc.a(clone.o)
                                         0x70 (size before relaxing)
 .eh_frame      0x00000000004b4760       0x18 /work/glibc-obj/libc.a(mremap.o)
                                         0x30 (size before relaxing)
 .eh_frame      0x00000000004b4778       0x18 /work/glibc-obj/libc.a(sysinfo.o)
                                         0x30 (size before relaxing)
 .eh_frame      0x00000000004b4790       0x18 /work/glibc-obj/libc.a(alloca_cutoff.o)
                                         0x30 (size before relaxing)
 .eh_frame      0x00000000004b47a8       0x28 /work/glibc-obj/libc.a(libc-cancellation.o)
                                         0x40 (size before relaxing)
 .eh_frame      0x00000000004b47d0       0x18 /work/glibc-obj/libc.a(libc_pthread_init.o)
                                         0x30 (size before relaxing)
 .eh_frame      0x00000000004b47e8       0xa0 /work/glibc-obj/libc.a(register-atfork.o)
                                         0xb8 (size before relaxing)
 .eh_frame      0x00000000004b4888       0x18 /work/glibc-obj/libc.a(chk_fail.o)
                                         0x30 (size before relaxing)
 .eh_frame      0x00000000004b48a0       0x38 /work/glibc-obj/libc.a(fortify_fail.o)
                                         0x50 (size before relaxing)
 .eh_frame      0x00000000004b48d8       0x20 /work/glibc-obj/libc.a(res_libc.o)
                                         0x38 (size before relaxing)
 .eh_frame      0x00000000004b48f8       0x18 /work/glibc-obj/libc.a(res_randomid.o)
                                         0x30 (size before relaxing)
 .eh_frame      0x00000000004b4910       0x80 /work/glibc-obj/libc.a(res-close.o)
                                         0x98 (size before relaxing)
 .eh_frame      0x00000000004b4990      0x138 /work/glibc-obj/libc.a(resolv_context.o)
                                        0x150 (size before relaxing)
 .eh_frame      0x00000000004b4ac8      0x338 /work/glibc-obj/libc.a(resolv_conf.o)
                                        0x350 (size before relaxing)
 .eh_frame      0x00000000004b4e00       0x28 /work/glibc-obj/libc.a(dl-debug.o)
                                         0x40 (size before relaxing)
 .eh_frame      0x00000000004b4e28      0x1d8 /work/glibc-obj/libc.a(dl-tls.o)
                                        0x1f0 (size before relaxing)
 .eh_frame      0x00000000004b5000       0x28 /work/glibc-obj/libc.a(dl-execstack.o)
                                         0x40 (size before relaxing)
 .eh_frame      0x00000000004b5028       0xb0 /work/glibc-obj/libc.a(dl-tunables.o)
                                         0xc8 (size before relaxing)
 .eh_frame      0x00000000004b50d8       0xa8 /work/glibc-obj/libc.a(dl-support.o)
                                         0xc0 (size before relaxing)
 .eh_frame      0x00000000004b5180       0x40 /work/glibc-obj/libc.a(dl-iteratephdr.o)
                                         0x58 (size before relaxing)
 .eh_frame      0x00000000004b51c0       0x20 /work/glibc-obj/libc.a(enbl-secure.o)
                                         0x38 (size before relaxing)
 .eh_frame      0x00000000004b51e0       0x28 /work/glibc-obj/libc.a(dl-profstub.o)
                                         0x40 (size before relaxing)
 .eh_frame      0x00000000004b5208       0x78 /work/glibc-obj/libc.a(dl-sysdep.o)
                                         0x90 (size before relaxing)
 .eh_frame      0x00000000004b5280       0xc0 /work/glibc-obj/libc.a(dl-error.o)
                                         0xd8 (size before relaxing)
 .eh_frame      0x00000000004b5340       0x48 /work/glibc-obj/libc.a(init-first.o)
                                         0x60 (size before relaxing)
 .eh_frame      0x00000000004b5388       0x18 /work/glibc-obj/libc.a(sysdep.o)
                                         0x30 (size before relaxing)
 .eh_frame      0x00000000004b53a0       0x30 /work/glibc-obj/libc.a(gconv_open.o)
                                         0x48 (size before relaxing)
 .eh_frame      0x00000000004b53d0       0x90 /work/glibc-obj/libc.a(gconv.o)
                                         0xa8 (size before relaxing)
 .eh_frame      0x00000000004b5460       0x40 /work/glibc-obj/libc.a(gconv_close.o)
                                         0x58 (size before relaxing)
 .eh_frame      0x00000000004b54a0      0x238 /work/glibc-obj/libc.a(gconv_db.o)
                                        0x250 (size before relaxing)
 .eh_frame      0x00000000004b56d8      0x198 /work/glibc-obj/libc.a(gconv_conf.o)
                                        0x1b0 (size before relaxing)
 .eh_frame      0x00000000004b5870       0x30 /work/glibc-obj/libc.a(gconv_builtin.o)
                                         0x48 (size before relaxing)
 .eh_frame      0x00000000004b58a0      0x5f8 /work/glibc-obj/libc.a(gconv_simple.o)
                                        0x610 (size before relaxing)
 .eh_frame      0x00000000004b5e98       0x70 /work/glibc-obj/libc.a(gconv_trans.o)
                                         0x88 (size before relaxing)
 .eh_frame      0x00000000004b5f08      0x198 /work/glibc-obj/libc.a(gconv_cache.o)
                                        0x1b0 (size before relaxing)
 .eh_frame      0x00000000004b60a0       0xd8 /work/glibc-obj/libc.a(gconv_dl.o)
                                         0xf0 (size before relaxing)
 .eh_frame      0x00000000004b6178       0xf8 /work/glibc-obj/libc.a(setlocale.o)
                                        0x110 (size before relaxing)
 .eh_frame      0x00000000004b6270       0x80 /work/glibc-obj/libc.a(findlocale.o)
                                         0x98 (size before relaxing)
 .eh_frame      0x00000000004b62f0       0xb8 /work/glibc-obj/libc.a(loadlocale.o)
                                         0xd0 (size before relaxing)
 .eh_frame      0x00000000004b63a8       0x68 /work/glibc-obj/libc.a(loadarchive.o)
                                         0x80 (size before relaxing)
 .eh_frame      0x00000000004b6410       0x18 /work/glibc-obj/libc.a(lc-ctype.o)
                                         0x30 (size before relaxing)
 .eh_frame      0x00000000004b6428       0x18 /work/glibc-obj/libc.a(localename.o)
                                         0x30 (size before relaxing)
 .eh_frame      0x00000000004b6440       0x18 /work/glibc-obj/libc.a(setfpucw.o)
                                         0x30 (size before relaxing)
 .eh_frame      0x00000000004b6458       0x18 /work/glibc-obj/libc.a(setjmp.o)
                                         0x30 (size before relaxing)
 .eh_frame      0x00000000004b6470       0x20 /work/glibc-obj/libc.a(sigjmp.o)
                                         0x38 (size before relaxing)
 .eh_frame      0x00000000004b6490       0x50 /work/glibc-obj/libc.a(qsort.o)
                                         0x68 (size before relaxing)
 .eh_frame      0x00000000004b64e0      0x110 /work/glibc-obj/libc.a(setenv.o)
                                        0x128 (size before relaxing)
 .eh_frame      0x00000000004b65f0       0x18 /work/glibc-obj/libc.a(secure-getenv.o)
                                         0x30 (size before relaxing)
 .eh_frame      0x00000000004b6608       0x28 /work/glibc-obj/libc.a(strtol.o)
                                         0x40 (size before relaxing)
 .eh_frame      0x00000000004b6630       0x80 /work/glibc-obj/libc.a(strtol_l.o)
                                         0x98 (size before relaxing)
 .eh_frame      0x00000000004b66b0      0x1c8 /work/glibc-obj/libc.a(vfprintf.o)
                                        0x1e0 (size before relaxing)
 .eh_frame      0x00000000004b6878      0x108 /work/glibc-obj/libc.a(printf_fp.o)
                                        0x120 (size before relaxing)
 .eh_frame      0x00000000004b6980       0x58 /work/glibc-obj/libc.a(reg-printf.o)
                                         0x70 (size before relaxing)
 .eh_frame      0x00000000004b69d8       0x50 /work/glibc-obj/libc.a(printf_fphex.o)
                                         0x68 (size before relaxing)
 .eh_frame      0x00000000004b6a28      0x108 /work/glibc-obj/libc.a(reg-modifier.o)
                                        0x120 (size before relaxing)
 .eh_frame      0x00000000004b6b30       0x30 /work/glibc-obj/libc.a(reg-type.o)
                                         0x48 (size before relaxing)
 .eh_frame      0x00000000004b6b60      0x1c8 /work/glibc-obj/libc.a(vfwprintf.o)
                                        0x1e0 (size before relaxing)
 .eh_frame      0x00000000004b6d28       0x18 /work/glibc-obj/libc.a(funlockfile.o)
                                         0x30 (size before relaxing)
 .eh_frame      0x00000000004b6d40       0x68 /work/glibc-obj/libc.a(printf-parsemb.o)
                                         0x80 (size before relaxing)
 .eh_frame      0x00000000004b6da8       0x70 /work/glibc-obj/libc.a(printf-parsewc.o)
                                         0x88 (size before relaxing)
 .eh_frame      0x00000000004b6e18       0x38 /work/glibc-obj/libc.a(filedoalloc.o)
                                         0x50 (size before relaxing)
 .eh_frame      0x00000000004b6e50       0x80 /work/glibc-obj/libc.a(iofputs.o)
                                         0xc8 (size before relaxing)
 .eh_frame      0x00000000004b6ed0       0x30 /work/glibc-obj/libc.a(wfiledoalloc.o)
                                         0x48 (size before relaxing)
 .eh_frame      0x00000000004b6f00       0xa8 /work/glibc-obj/libc.a(iogetdelim.o)
                                         0xc8 (size before relaxing)
 .eh_frame      0x00000000004b6fa8       0x60 /work/glibc-obj/libc.a(iogetline.o)
                                         0x78 (size before relaxing)
 .eh_frame      0x00000000004b7008       0x50 /work/glibc-obj/libc.a(iopadn.o)
                                         0x68 (size before relaxing)
 .eh_frame      0x00000000004b7058       0x50 /work/glibc-obj/libc.a(iowpadn.o)
                                         0x68 (size before relaxing)
 .eh_frame      0x00000000004b70a8      0x3f8 /work/glibc-obj/libc.a(wgenops.o)
                                        0x410 (size before relaxing)
 .eh_frame      0x00000000004b74a0      0x1d0 /work/glibc-obj/libc.a(iofwide.o)
                                        0x1e8 (size before relaxing)
 .eh_frame      0x00000000004b7670       0x40 /work/glibc-obj/libc.a(scratch_buffer_grow_preserve.o)
                                         0x58 (size before relaxing)
 .eh_frame      0x00000000004b76b0       0x48 /work/glibc-obj/libc.a(scratch_buffer_set_array_size.o)
                                         0x60 (size before relaxing)
 .eh_frame      0x00000000004b76f8       0x18 /work/glibc-obj/libc.a(dynarray_at_failure.o)
                                         0x30 (size before relaxing)
 .eh_frame      0x00000000004b7710       0x60 /work/glibc-obj/libc.a(dynarray_emplace_enlarge.o)
                                         0x78 (size before relaxing)
 .eh_frame      0x00000000004b7770       0x18 /work/glibc-obj/libc.a(alloc_buffer_alloc_array.o)
                                         0x30 (size before relaxing)
 .eh_frame      0x00000000004b7788       0x30 /work/glibc-obj/libc.a(alloc_buffer_allocate.o)
                                         0x48 (size before relaxing)
 .eh_frame      0x00000000004b77b8       0x30 /work/glibc-obj/libc.a(alloc_buffer_copy_string.o)
                                         0x48 (size before relaxing)
 .eh_frame      0x00000000004b77e8       0x18 /work/glibc-obj/libc.a(alloc_buffer_create_failure.o)
                                         0x30 (size before relaxing)
 .eh_frame      0x00000000004b7800       0x38 /work/glibc-obj/libc.a(strndup.o)
                                         0x50 (size before relaxing)
 .eh_frame      0x00000000004b7838       0x68 /work/glibc-obj/libc.a(_strerror.o)
                                         0x80 (size before relaxing)
 .eh_frame      0x00000000004b78a0       0x18 /work/glibc-obj/libc.a(strnlen.o)
                                         0x30 (size before relaxing)
 .eh_frame      0x00000000004b78b8       0x18 /work/glibc-obj/libc.a(strrchr.o)
                                         0x30 (size before relaxing)
 .eh_frame      0x00000000004b78d0       0x40 /work/glibc-obj/libc.a(strtok_r.o)
                                         0x58 (size before relaxing)
 .eh_frame      0x00000000004b7910      0x108 /work/glibc-obj/libc.a(memmem.o)
                                        0x120 (size before relaxing)
 .eh_frame      0x00000000004b7a18       0x50 /work/glibc-obj/libc.a(argz-ctsep.o)
                                         0x68 (size before relaxing)
 .eh_frame      0x00000000004b7a68       0x50 /work/glibc-obj/libc.a(argz-addsep.o)
                                         0x68 (size before relaxing)
 .eh_frame      0x00000000004b7ab8       0x18 /work/glibc-obj/libc.a(strrchr-sse2.o)
                                         0x30 (size before relaxing)
 .eh_frame      0x00000000004b7ad0       0x18 /work/glibc-obj/libc.a(strrchr-avx2.o)
                                         0x30 (size before relaxing)
 .eh_frame      0x00000000004b7ae8       0x18 /work/glibc-obj/libc.a(strnlen-sse2.o)
                                         0x30 (size before relaxing)
 .eh_frame      0x00000000004b7b00       0x18 /work/glibc-obj/libc.a(strnlen-avx2.o)
                                         0x30 (size before relaxing)
 .eh_frame      0x00000000004b7b18       0x18 /work/glibc-obj/libc.a(wcslen.o)
                                         0x30 (size before relaxing)
 .eh_frame      0x00000000004b7b30       0x18 /work/glibc-obj/libc.a(wmemcpy.o)
                                         0x30 (size before relaxing)
 .eh_frame      0x00000000004b7b48       0x18 /work/glibc-obj/libc.a(wmemmove.o)
                                         0x30 (size before relaxing)
 .eh_frame      0x00000000004b7b60       0x18 /work/glibc-obj/libc.a(wmemset.o)
                                         0x30 (size before relaxing)
 .eh_frame      0x00000000004b7b78       0x50 /work/glibc-obj/libc.a(btowc.o)
                                         0x68 (size before relaxing)
 .eh_frame      0x00000000004b7bc8       0x68 /work/glibc-obj/libc.a(wcrtomb.o)
                                         0x80 (size before relaxing)
 .eh_frame      0x00000000004b7c30       0x70 /work/glibc-obj/libc.a(wcsrtombs.o)
                                         0x88 (size before relaxing)
 .eh_frame      0x00000000004b7ca0       0x18 /work/glibc-obj/libc.a(wcsnlen.o)
                                         0x30 (size before relaxing)
 .eh_frame      0x00000000004b7cb8       0x18 /work/glibc-obj/libc.a(wcschrnul.o)
                                         0x30 (size before relaxing)
 .eh_frame      0x00000000004b7cd0       0x18 /work/glibc-obj/libc.a(wcsnlen-sse4_1.o)
                                         0x30 (size before relaxing)
 .eh_frame      0x00000000004b7ce8       0x18 /work/glibc-obj/libc.a(wcsnlen-c.o)
                                         0x30 (size before relaxing)
 .eh_frame      0x00000000004b7d00       0x18 /work/glibc-obj/libc.a(wcslen-sse2.o)
                                         0x30 (size before relaxing)
 .eh_frame      0x00000000004b7d18       0x18 /work/glibc-obj/libc.a(wcslen-avx2.o)
                                         0x30 (size before relaxing)
 .eh_frame      0x00000000004b7d30       0x18 /work/glibc-obj/libc.a(wcsnlen-avx2.o)
                                         0x30 (size before relaxing)
 .eh_frame      0x00000000004b7d48       0x18 /work/glibc-obj/libc.a(time.o)
                                         0x30 (size before relaxing)
 .eh_frame      0x00000000004b7d60       0x98 /work/glibc-obj/libc.a(opendir.o)
                                         0xb0 (size before relaxing)
 .eh_frame      0x00000000004b7df8       0x20 /work/glibc-obj/libc.a(closedir.o)
                                         0x38 (size before relaxing)
 .eh_frame      0x00000000004b7e18       0x50 /work/glibc-obj/libc.a(readdir.o)
                                         0x68 (size before relaxing)
 .eh_frame      0x00000000004b7e68       0x28 /work/glibc-obj/libc.a(rewinddir.o)
                                         0x40 (size before relaxing)
 .eh_frame      0x00000000004b7e90       0x50 /work/glibc-obj/libc.a(getdents.o)
                                         0x68 (size before relaxing)
 .eh_frame      0x00000000004b7ee0       0x30 /work/glibc-obj/libc.a(fdopendir.o)
                                         0x48 (size before relaxing)
 .eh_frame      0x00000000004b7f10       0x18 /work/glibc-obj/libc.a(uname.o)
                                         0x30 (size before relaxing)
 .eh_frame      0x00000000004b7f28       0x18 /work/glibc-obj/libc.a(getuid.o)
                                         0x30 (size before relaxing)
 .eh_frame      0x00000000004b7f40       0x18 /work/glibc-obj/libc.a(geteuid.o)
                                         0x30 (size before relaxing)
 .eh_frame      0x00000000004b7f58       0x18 /work/glibc-obj/libc.a(getgid.o)
                                         0x30 (size before relaxing)
 .eh_frame      0x00000000004b7f70       0x18 /work/glibc-obj/libc.a(getegid.o)
                                         0x30 (size before relaxing)
 .eh_frame      0x00000000004b7f88       0x18 /work/glibc-obj/libc.a(lxstat.o)
                                         0x30 (size before relaxing)
 .eh_frame      0x00000000004b7fa0       0x18 /work/glibc-obj/libc.a(fxstatat.o)
                                         0x30 (size before relaxing)
 .eh_frame      0x00000000004b7fb8       0x48 /work/glibc-obj/libc.a(openat64.o)
                                         0x60 (size before relaxing)
 .eh_frame      0x00000000004b8000       0x18 /work/glibc-obj/libc.a(isatty.o)
                                         0x30 (size before relaxing)
 .eh_frame      0x00000000004b8018       0x18 /work/glibc-obj/libc.a(tcgetattr.o)
                                         0x30 (size before relaxing)
 .eh_frame      0x00000000004b8030       0x18 /work/glibc-obj/libc.a(brk.o)
                                         0x30 (size before relaxing)
 .eh_frame      0x00000000004b8048       0x50 /work/glibc-obj/libc.a(wctrans.o)
                                         0x68 (size before relaxing)
 .eh_frame      0x00000000004b8098       0x18 /work/glibc-obj/libc.a(towctrans.o)
                                         0x30 (size before relaxing)
 .eh_frame      0x00000000004b80b0       0x58 /work/glibc-obj/libc.a(readonly-area.o)
                                         0x70 (size before relaxing)
 .eh_frame      0x00000000004b8108      0x130 /work/glibc-obj/libc.a(res_init.o)
                                        0x148 (size before relaxing)
 .eh_frame      0x00000000004b8238      0x1f8 /work/glibc-obj/libc.a(res_hconf.o)
                                        0x210 (size before relaxing)
 .eh_frame      0x00000000004b8430      0x4d0 /work/glibc-obj/libc.a(dl-load.o)
                                        0x4e8 (size before relaxing)
 .eh_frame      0x00000000004b8900      0x1b0 /work/glibc-obj/libc.a(dl-lookup.o)
                                        0x1c8 (size before relaxing)
 .eh_frame      0x00000000004b8ab0       0x88 /work/glibc-obj/libc.a(dl-object.o)
                                         0xa0 (size before relaxing)
 .eh_frame      0x00000000004b8b38       0xe0 /work/glibc-obj/libc.a(dl-reloc.o)
                                         0xf8 (size before relaxing)
 .eh_frame      0x00000000004b8c18       0x30 /work/glibc-obj/libc.a(dl-hwcaps.o)
                                         0x48 (size before relaxing)
 .eh_frame      0x00000000004b8c48      0x130 /work/glibc-obj/libc.a(dl-misc.o)
                                        0x148 (size before relaxing)
 .eh_frame      0x00000000004b8d78       0xa8 /work/glibc-obj/libc.a(dl-profile.o)
                                         0xc0 (size before relaxing)
 .eh_frame      0x00000000004b8e20       0x58 /work/glibc-obj/libc.a(dl-origin.o)
                                         0x70 (size before relaxing)
 .eh_frame      0x00000000004b8e78       0x30 /work/glibc-obj/libc.a(dl-scope.o)
                                         0x48 (size before relaxing)
 .eh_frame      0x00000000004b8ea8      0x120 /work/glibc-obj/libc.a(dl-trampoline.o)
 .eh_frame      0x00000000004b8fc8      0x100 /work/glibc-obj/libc.a(dl-exception.o)
                                        0x118 (size before relaxing)
 .eh_frame      0x00000000004b90c8       0x68 /work/glibc-obj/libc.a(dl-cache.o)
                                         0x80 (size before relaxing)
 .eh_frame      0x00000000004b9130       0x60 /work/glibc-obj/libc.a(dl-tlsdesc.o)
                                         0x78 (size before relaxing)
 .eh_frame      0x00000000004b9190      0x1c8 /work/glibc-obj/libc.a(dl-libc.o)
                                        0x1e0 (size before relaxing)
 .eh_frame      0x00000000004b9358       0x18 /work/glibc-obj/libc.a(cmp.o)
                                         0x30 (size before relaxing)
 .eh_frame      0x00000000004b9370       0x50 /work/glibc-obj/libc.a(divrem.o)
                                         0x68 (size before relaxing)
 .eh_frame      0x00000000004b93c0       0x18 /work/glibc-obj/libc.a(lshift.o)
                                         0x30 (size before relaxing)
 .eh_frame      0x00000000004b93d8       0x18 /work/glibc-obj/libc.a(rshift.o)
                                         0x30 (size before relaxing)
 .eh_frame      0x00000000004b93f0       0x38 /work/glibc-obj/libc.a(mul.o)
                                         0x50 (size before relaxing)
 .eh_frame      0x00000000004b9428       0x20 /work/glibc-obj/libc.a(mul_1.o)
                                         0x38 (size before relaxing)
 .eh_frame      0x00000000004b9448      0x168 /work/glibc-obj/libc.a(mul_n.o)
                                        0x180 (size before relaxing)
 .eh_frame      0x00000000004b95b0       0x18 /work/glibc-obj/libc.a(sub_n.o)
                                         0x30 (size before relaxing)
 .eh_frame      0x00000000004b95c8       0x18 /work/glibc-obj/libc.a(submul_1.o)
                                         0x30 (size before relaxing)
 .eh_frame      0x00000000004b95e0       0x18 /work/glibc-obj/libc.a(dbl2mpn.o)
                                         0x30 (size before relaxing)
 .eh_frame      0x00000000004b95f8       0x18 /work/glibc-obj/libc.a(ldbl2mpn.o)
                                         0x30 (size before relaxing)
 .eh_frame      0x00000000004b9610       0x18 /work/glibc-obj/libc.a(float1282mpn.o)
                                         0x30 (size before relaxing)
 .eh_frame      0x00000000004b9628       0x38 /work/glibc-obj/libc.a(_itoa.o)
                                         0x50 (size before relaxing)
 .eh_frame      0x00000000004b9660       0x20 /work/glibc-obj/libc.a(snprintf.o)
                                         0x38 (size before relaxing)
 .eh_frame      0x00000000004b9680       0x18 /work/glibc-obj/libc.a(getline.o)
                                         0x30 (size before relaxing)
 .eh_frame      0x00000000004b9698       0x80 /work/glibc-obj/libc.a(vsnprintf.o)
                                         0x98 (size before relaxing)
 .eh_frame      0x00000000004b9718       0xe0 /work/glibc-obj/libc.a(sdlerror.o)
                                         0xf8 (size before relaxing)
 .eh_frame      0x00000000004b97f8       0x18 /work/glibc-obj/libc.a(sdladdr.o)
                                         0x30 (size before relaxing)
 .eh_frame      0x00000000004b9810       0x18 /work/glibc-obj/libc.a(sdladdr1.o)
                                         0x30 (size before relaxing)
 .eh_frame      0x00000000004b9828       0x58 /work/glibc-obj/libc.a(sdlinfo.o)
                                         0x70 (size before relaxing)
 .eh_frame      0x00000000004b9880       0x40 /work/glibc-obj/libc.a(sdlmopen.o)
                                         0x58 (size before relaxing)
 .eh_frame      0x00000000004b98c0       0x38 /work/glibc-obj/libc.a(alloc_buffer_copy_bytes.o)
                                         0x50 (size before relaxing)
 .eh_frame      0x00000000004b98f8       0x48 /work/glibc-obj/libc.a(strerror.o)
                                         0x60 (size before relaxing)
 .eh_frame      0x00000000004b9940       0x18 /work/glibc-obj/libc.a(strpbrk.o)
                                         0x30 (size before relaxing)
 .eh_frame      0x00000000004b9958       0x18 /work/glibc-obj/libc.a(strspn.o)
                                         0x30 (size before relaxing)
 .eh_frame      0x00000000004b9970       0x18 /work/glibc-obj/libc.a(strcasecmp.o)
                                         0x30 (size before relaxing)
 .eh_frame      0x00000000004b9988       0x18 /work/glibc-obj/libc.a(strncase.o)
                                         0x30 (size before relaxing)
 .eh_frame      0x00000000004b99a0       0x38 /work/glibc-obj/libc.a(strsep.o)
                                         0x50 (size before relaxing)
 .eh_frame      0x00000000004b99d8       0x28 /work/glibc-obj/libc.a(strncase_l-sse2.o)
                                         0x40 (size before relaxing)
 .eh_frame      0x00000000004b9a00       0x28 /work/glibc-obj/libc.a(strncase_l-ssse3.o)
                                         0x40 (size before relaxing)
 .eh_frame      0x00000000004b9a28       0x28 /work/glibc-obj/libc.a(strncase_l-sse4_2.o)
                                         0x40 (size before relaxing)
 .eh_frame      0x00000000004b9a50       0x28 /work/glibc-obj/libc.a(strncase_l-avx.o)
                                         0x40 (size before relaxing)
 .eh_frame      0x00000000004b9a78       0x20 /work/glibc-obj/libc.a(strpbrk-sse2.o)
                                         0x38 (size before relaxing)
 .eh_frame      0x00000000004b9a98       0x20 /work/glibc-obj/libc.a(strspn-sse2.o)
                                         0x38 (size before relaxing)
 .eh_frame      0x00000000004b9ab8       0x18 /work/glibc-obj/libc.a(strpbrk-c.o)
                                         0x30 (size before relaxing)
 .eh_frame      0x00000000004b9ad0       0x18 /work/glibc-obj/libc.a(strspn-c.o)
                                         0x30 (size before relaxing)
 .eh_frame      0x00000000004b9ae8       0x18 /work/glibc-obj/libc.a(strncase_l-nonascii.o)
                                         0x30 (size before relaxing)
 .eh_frame      0x00000000004b9b00       0x18 /work/glibc-obj/libc.a(ioctl.o)
                                         0x30 (size before relaxing)
 .eh_frame      0x00000000004b9b18       0x40 /work/glibc-obj/libc.a(gethostname.o)
                                         0x58 (size before relaxing)
 .eh_frame      0x00000000004b9b58       0x18 /work/glibc-obj/libc.a(socket.o)
                                         0x30 (size before relaxing)
 .eh_frame      0x00000000004b9b70       0x68 /work/glibc-obj/libc.a(profil.o)
                                         0x80 (size before relaxing)
 .eh_frame      0x00000000004b9bd8       0x18 /work/glibc-obj/libc.a(prof-freq.o)
                                         0x30 (size before relaxing)
 .eh_frame      0x00000000004b9bf0       0x18 /work/glibc-obj/libc.a(inet_mkadr.o)
                                         0x30 (size before relaxing)
 .eh_frame      0x00000000004b9c08       0x30 /work/glibc-obj/libc.a(inet6_scopeid_pton.o)
                                         0x48 (size before relaxing)
 .eh_frame      0x00000000004b9c38       0x58 /work/glibc-obj/libc.a(ifreq.o)
                                         0x70 (size before relaxing)
 .eh_frame      0x00000000004b9c90       0x68 /work/glibc-obj/libc.a(inet_addr.o)
                                         0x80 (size before relaxing)
 .eh_frame      0x00000000004b9cf8       0xa0 /work/glibc-obj/libc.a(inet_pton.o)
                                         0xb8 (size before relaxing)
 .eh_frame      0x00000000004b9d98       0x90 /work/glibc-obj/libc.a(dl-runtime.o)
                                         0xa8 (size before relaxing)
 .eh_frame      0x00000000004b9e28      0x140 /work/glibc-obj/libc.a(dl-open.o)
                                        0x158 (size before relaxing)
 .eh_frame      0x00000000004b9f68       0x90 /work/glibc-obj/libc.a(dl-close.o)
                                         0xa8 (size before relaxing)
 .eh_frame      0x00000000004b9ff8       0x30 /work/glibc-obj/libc.a(dl-sort-maps.o)
                                         0x48 (size before relaxing)
 .eh_frame      0x00000000004ba028       0xa0 /work/glibc-obj/libc.a(tlsdesc.o)
                                         0xb8 (size before relaxing)
 .eh_frame      0x00000000004ba0c8       0x50 /work/glibc-obj/libc.a(dl-addr.o)
                                         0x68 (size before relaxing)
 .eh_frame      0x00000000004ba118       0x18 /work/glibc-obj/libc.a(dl-addr-obj.o)
                                         0x30 (size before relaxing)
 .eh_frame      0x00000000004ba130       0x18 /work/glibc-obj/libc.a(add_n.o)
                                         0x30 (size before relaxing)
 .eh_frame      0x00000000004ba148       0x18 /work/glibc-obj/libc.a(addmul_1.o)
                                         0x30 (size before relaxing)
 .eh_frame      0x00000000004ba160       0x40 /work/glibc-obj/libc.a(sdlopen.o)
                                         0x58 (size before relaxing)
 .eh_frame      0x00000000004ba1a0       0x30 /work/glibc-obj/libc.a(sdlclose.o)
                                         0x48 (size before relaxing)
 .eh_frame      0x00000000004ba1d0       0x40 /work/glibc-obj/libc.a(sdlsym.o)
                                         0x58 (size before relaxing)
 .eh_frame      0x00000000004ba210       0x40 /work/glibc-obj/libc.a(sdlvsym.o)
                                         0x58 (size before relaxing)
 .eh_frame      0x00000000004ba250       0x18 /work/glibc-obj/libc.a(setitimer.o)
                                         0x30 (size before relaxing)
 .eh_frame      0x00000000004ba268       0x60 /work/glibc-obj/libc.a(opensock.o)
                                         0x78 (size before relaxing)
 .eh_frame      0x00000000004ba2c8       0xf8 /work/glibc-obj/libc.a(if_index.o)
                                        0x110 (size before relaxing)
 .eh_frame      0x00000000004ba3c0      0x108 /work/glibc-obj/libc.a(ifaddrs.o)
                                        0x148 (size before relaxing)
 .eh_frame      0x00000000004ba4c8       0x60 /work/glibc-obj/libc.a(netlink_assert_response.o)
                                         0x78 (size before relaxing)
 .eh_frame      0x00000000004ba528       0x80 /work/glibc-obj/libc.a(dl-deps.o)
                                         0x98 (size before relaxing)
 .eh_frame      0x00000000004ba5a8       0xa0 /work/glibc-obj/libc.a(dl-init.o)
                                         0xb8 (size before relaxing)
 .eh_frame      0x00000000004ba648       0xb8 /work/glibc-obj/libc.a(dl-version.o)
                                         0xd0 (size before relaxing)
 .eh_frame      0x00000000004ba700       0xc8 /work/glibc-obj/libc.a(dl-sym.o)
                                         0xe0 (size before relaxing)
 .eh_frame      0x00000000004ba7c8       0x18 /work/glibc-obj/libc.a(strncpy.o)
                                         0x30 (size before relaxing)
 .eh_frame      0x00000000004ba7e0       0x38 /work/glibc-obj/libc.a(strncpy-c.o)
                                         0x50 (size before relaxing)
 .eh_frame      0x00000000004ba818       0x18 /work/glibc-obj/libc.a(strncpy-ssse3.o)
                                         0x30 (size before relaxing)
 .eh_frame      0x00000000004ba830       0x18 /work/glibc-obj/libc.a(strncpy-sse2-unaligned.o)
                                         0x30 (size before relaxing)
 .eh_frame      0x00000000004ba848       0x18 /work/glibc-obj/libc.a(access.o)
                                         0x30 (size before relaxing)
 .eh_frame      0x00000000004ba860       0x18 /work/glibc-obj/libc.a(bind.o)
                                         0x30 (size before relaxing)
 .eh_frame      0x00000000004ba878       0x18 /work/glibc-obj/libc.a(getsockname.o)
                                         0x30 (size before relaxing)
 .eh_frame      0x00000000004ba890       0x40 /work/glibc-obj/libc.a(recvmsg.o)
                                         0x58 (size before relaxing)
 .eh_frame      0x00000000004ba8d0       0x60 /work/glibc-obj/libc.a(sendto.o)
                                         0x78 (size before relaxing)
 .eh_frame      0x00000000004ba930       0x28 /usr/lib/gcc/x86_64-redhat-linux/8//libgcc.a(unordtf2.o)
                                         0x40 (size before relaxing)
 .eh_frame      0x00000000004ba958       0x30 /usr/lib/gcc/x86_64-redhat-linux/8//libgcc.a(letf2.o)
                                         0x48 (size before relaxing)
 .eh_frame      0x00000000004ba988       0x18 /usr/lib/gcc/x86_64-redhat-linux/8//libgcc.a(sfp-exceptions.o)
                                         0x30 (size before relaxing)
 .eh_frame      0x00000000004ba9a0       0x9c /usr/lib/gcc/x86_64-redhat-linux/8//libgcc_eh.a(unwind-c.o)
                                         0xd0 (size before relaxing)
 .eh_frame      0x00000000004baa3c        0x4 /usr/lib/gcc/x86_64-redhat-linux/8/crtend.o
 *(.eh_frame.*)

.gcc_except_table
                0x00000000004baa40       0xac
 *(.gcc_except_table .gcc_except_table.*)
 .gcc_except_table
                0x00000000004baa40       0x1b /work/glibc-obj/libc.a(iofclose.o)
 .gcc_except_table
                0x00000000004baa5b       0x1d /work/glibc-obj/libc.a(iofflush.o)
 .gcc_except_table
                0x00000000004baa78       0x13 /work/glibc-obj/libc.a(iofwrite.o)
 .gcc_except_table
                0x00000000004baa8b       0x19 /work/glibc-obj/libc.a(wfileops.o)
 .gcc_except_table
                0x00000000004baaa4       0x22 /work/glibc-obj/libc.a(fileops.o)
 .gcc_except_table
                0x00000000004baac6       0x13 /work/glibc-obj/libc.a(iofputs.o)
 .gcc_except_table
                0x00000000004baad9       0x13 /work/glibc-obj/libc.a(iogetdelim.o)

.gnu_extab
 *(.gnu_extab*)

.exception_ranges
 *(.exception_ranges .exception_ranges*)
                0x00000000006bb9d0                . = DATA_SEGMENT_ALIGN (CONSTANT (MAXPAGESIZE), CONSTANT (COMMONPAGESIZE))

.eh_frame
 *(.eh_frame)
 *(.eh_frame.*)

.gnu_extab
 *(.gnu_extab)

.gcc_except_table
 *(.gcc_except_table .gcc_except_table.*)

.exception_ranges
 *(.exception_ranges .exception_ranges*)

.tdata          0x00000000006bb9d0       0x28
 *(.tdata .tdata.* .gnu.linkonce.td.*)
 .tdata         0x00000000006bb9d0        0x8 /work/glibc-obj/libc.a(res_libc.o)
                0x00000000006bb9d0                __libc_resp
                0x00000000006bb9d0                __resp
 .tdata         0x00000000006bb9d8        0x8 /work/glibc-obj/libc.a(lc-ctype.o)
                0x00000000006bb9d8                _nl_current_LC_CTYPE
 .tdata         0x00000000006bb9e0        0x8 /work/glibc-obj/libc.a(global-locale.o)
                0x00000000006bb9e0                __libc_tsd_LOCALE
 .tdata         0x00000000006bb9e8        0x8 /work/glibc-obj/libc.a(lc-monetary.o)
                0x00000000006bb9e8                _nl_current_LC_MONETARY
 .tdata         0x00000000006bb9f0        0x8 /work/glibc-obj/libc.a(lc-numeric.o)
                0x00000000006bb9f0                _nl_current_LC_NUMERIC

.tbss           0x00000000006bb9f8       0x48
 *(.tbss .tbss.* .gnu.linkonce.tb.*)
 .tbss          0x00000000006bb9f8        0x4 /work/glibc-obj/libc.a(errno.o)
                0x00000000006bb9f8                errno
                0x00000000006bb9f8                __libc_errno
 *fill*         0x00000000006bb9fc        0x4 
 .tbss          0x00000000006bba00       0x18 /work/glibc-obj/libc.a(ctype-info.o)
                0x00000000006bba00                __libc_tsd_CTYPE_TOLOWER
                0x00000000006bba08                __libc_tsd_CTYPE_TOUPPER
                0x00000000006bba10                __libc_tsd_CTYPE_B
 .tbss          0x00000000006bba18       0x18 /work/glibc-obj/libc.a(malloc.o)
 .tbss          0x00000000006bba30        0x8 /work/glibc-obj/libc.a(resolv_context.o)
 .tbss          0x00000000006bba38        0x8 /work/glibc-obj/libc.a(dl-error.o)
 *(.tcommon)

.preinit_array  0x00000000006bb9f8        0x8
                0x00000000006bb9f8                PROVIDE (__preinit_array_start, .)
 *(.preinit_array)
 .preinit_array
                0x00000000006bb9f8        0x8 /work/glibc-obj/nptl/libpthread.a(elision-lock.o)
                0x00000000006bb9f8                __pthread_init_array
                0x00000000006bba00                PROVIDE (__preinit_array_end, .)

.init_array     0x00000000006bba00       0x10
                0x00000000006bba00                PROVIDE (__init_array_start, .)
 *(SORT(.init_array.*) SORT(.ctors.*))
 *(.init_array EXCLUDE_FILE(*crtend?.o *crtend.o *crtbegin?.o *crtbegin.o) .ctors)
 .init_array    0x00000000006bba00        0x8 /usr/lib/gcc/x86_64-redhat-linux/8/crtbeginT.o
 .init_array    0x00000000006bba08        0x8 /work/glibc-obj/libc.a(cacheinfo.o)
                0x00000000006bba10                PROVIDE (__init_array_end, .)

.fini_array     0x00000000006bba10       0x10
                0x00000000006bba10                PROVIDE (__fini_array_start, .)
 *(SORT(.fini_array.*) SORT(.dtors.*))
 *(.fini_array EXCLUDE_FILE(*crtend?.o *crtend.o *crtbegin?.o *crtbegin.o) .dtors)
 .fini_array    0x00000000006bba10        0x8 /usr/lib/gcc/x86_64-redhat-linux/8/crtbeginT.o
 .fini_array    0x00000000006bba18        0x8 /work/glibc-obj/libc.a(sdlerror.o)
                0x00000000006bba20                PROVIDE (__fini_array_end, .)

.ctors
 *crtbegin.o(.ctors)
 *crtbegin?.o(.ctors)
 *(EXCLUDE_FILE(*crtend?.o *crtend.o) .ctors)
 *(SORT(.ctors.*))
 *(.ctors)

.dtors
 *crtbegin.o(.dtors)
 *crtbegin?.o(.dtors)
 *(EXCLUDE_FILE(*crtend?.o *crtend.o) .dtors)
 *(SORT(.dtors.*))
 *(.dtors)

.jcr
 *(.jcr)

.data.rel.ro    0x00000000006bba20      0x5c4
 *(.data.rel.ro.local* .gnu.linkonce.d.rel.ro.local.*)
 *(.data.rel.ro .data.rel.ro.* .gnu.linkonce.d.rel.ro.*)
 .data.rel.ro   0x00000000006bba20      0x4d0 /work/glibc-obj/libc.a(dl-tunables.o)
 *fill*         0x00000000006bbef0       0x10 
 .data.rel.ro   0x00000000006bbf00       0x98 /work/glibc-obj/libc.a(dl-support.o)
                0x00000000006bbf80                _dl_random
                0x00000000006bbf88                _dl_argv
                0x00000000006bbf90                __libc_stack_end
 .data.rel.ro   0x00000000006bbf98        0x4 /work/glibc-obj/libc.a(enbl-secure.o)
                0x00000000006bbf98                __libc_enable_secure
 *fill*         0x00000000006bbf9c        0x4 
 .data.rel.ro   0x00000000006bbfa0       0x44 /work/glibc-obj/libc.a(dl-load.o)
                0x00000000006bbfe0                __stack_prot

.dynamic
 *(.dynamic)

.got            0x00000000006bbfe8        0x8
 *(.got)
 .got           0x00000000006bbfe8        0x8 /work/glibc-obj/csu/crt1.o
 *(.igot)
                0x00000000006bcfe8                . = DATA_SEGMENT_RELRO_END (., (SIZEOF (.got.plt) >= 0x18)?0x18:0x0)

.got.plt        0x00000000006bc000       0xf0
 *(.got.plt)
 .got.plt       0x00000000006bc000       0x18 /work/glibc-obj/csu/crt1.o
                0x00000000006bc000                _GLOBAL_OFFSET_TABLE_
 *(.igot.plt)
 .igot.plt      0x00000000006bc018       0xd8 /work/glibc-obj/csu/crt1.o

.data           0x00000000006bc100     0x1b28
 *(.data .data.* .gnu.linkonce.d.*)
 .data          0x00000000006bc100        0x4 /work/glibc-obj/csu/crt1.o
                0x00000000006bc100                data_start
                0x00000000006bc100                __data_start
 .data          0x00000000006bc104        0x0 /work/glibc-obj/csu/crti.o
 .data          0x00000000006bc104        0x0 /usr/lib/gcc/x86_64-redhat-linux/8/crtbeginT.o
 .data          0x00000000006bc104        0x0 threads.o
 *fill*         0x00000000006bc104        0xc 
 .data          0x00000000006bc110       0x24 /work/glibc-obj/nptl/libpthread.a(pthread_create.o)
                0x00000000006bc130                __nptl_nthreads
 .data          0x00000000006bc134        0x0 /work/glibc-obj/nptl/libpthread.a(pthread_join.o)
 .data          0x00000000006bc134        0x0 /work/glibc-obj/nptl/libpthread.a(pthread_join_common.o)
 .data          0x00000000006bc134        0x0 /work/glibc-obj/nptl/libpthread.a(pthread_mutex_lock.o)
 .data          0x00000000006bc134        0x0 /work/glibc-obj/nptl/libpthread.a(pthread_mutex_trylock.o)
 .data          0x00000000006bc134        0x0 /work/glibc-obj/nptl/libpthread.a(pthread_mutex_unlock.o)
 .data          0x00000000006bc134        0x0 /work/glibc-obj/nptl/libpthread.a(pthread_key_create.o)
 .data          0x00000000006bc134        0x0 /work/glibc-obj/nptl/libpthread.a(pthread_key_delete.o)
 .data          0x00000000006bc134        0x0 /work/glibc-obj/nptl/libpthread.a(pthread_getspecific.o)
 .data          0x00000000006bc134        0x0 /work/glibc-obj/nptl/libpthread.a(pthread_setspecific.o)
 .data          0x00000000006bc134        0x0 /work/glibc-obj/nptl/libpthread.a(pthread_cancel.o)
 .data          0x00000000006bc134        0x0 /work/glibc-obj/nptl/libpthread.a(pthread_once.o)
 .data          0x00000000006bc134        0x0 /work/glibc-obj/nptl/libpthread.a(cleanup_compat.o)
 .data          0x00000000006bc134        0x0 /work/glibc-obj/nptl/libpthread.a(cancellation.o)
 .data          0x00000000006bc134        0x0 /work/glibc-obj/nptl/libpthread.a(lowlevellock.o)
 .data          0x00000000006bc134        0x0 /work/glibc-obj/nptl/libpthread.a(pause.o)
 .data          0x00000000006bc134        0x8 /work/glibc-obj/nptl/libpthread.a(tpp.o)
                0x00000000006bc134                __sched_fifo_max_prio
                0x00000000006bc138                __sched_fifo_min_prio
 *fill*         0x00000000006bc13c        0x4 
 .data          0x00000000006bc140       0x10 /work/glibc-obj/nptl/libpthread.a(elision-lock.o)
                0x00000000006bc140                __elision_aconf
 .data          0x00000000006bc150        0x0 /work/glibc-obj/nptl/libpthread.a(elision-unlock.o)
 .data          0x00000000006bc150        0x0 /work/glibc-obj/nptl/libpthread.a(elision-trylock.o)
 .data          0x00000000006bc150        0x0 /work/glibc-obj/nptl/libpthread.a(nptl-init.o)
 .data          0x00000000006bc150        0x0 /work/glibc-obj/nptl/libpthread.a(vars.o)
 .data          0x00000000006bc150        0x0 /work/glibc-obj/nptl/libpthread.a(events.o)
 .data          0x00000000006bc150        0x0 /work/glibc-obj/nptl/libpthread.a(unwind.o)
 .data          0x00000000006bc150        0x0 /work/glibc-obj/nptl/libpthread.a(sigaction.o)
 .data          0x00000000006bc150        0x0 /usr/lib/gcc/x86_64-redhat-linux/8//libgcc_eh.a(unwind-dw2.o)
 .data          0x00000000006bc150        0x8 /usr/lib/gcc/x86_64-redhat-linux/8//libgcc_eh.a(unwind-dw2-fde-dip.o)
 .data          0x00000000006bc158        0x0 /work/glibc-obj/libc.a(libc-start.o)
 .data          0x00000000006bc158        0x0 /work/glibc-obj/libc.a(check_fds.o)
 .data          0x00000000006bc158        0x8 /work/glibc-obj/libc.a(libc-tls.o)
                0x00000000006bc158                _dl_tls_static_size
 .data          0x00000000006bc160        0x0 /work/glibc-obj/libc.a(elf-init.o)
 .data          0x00000000006bc160        0x0 /work/glibc-obj/libc.a(errno.o)
 .data          0x00000000006bc160        0x0 /work/glibc-obj/libc.a(assert.o)
 .data          0x00000000006bc160        0x0 /work/glibc-obj/libc.a(ctype-info.o)
 .data          0x00000000006bc160        0x0 /work/glibc-obj/libc.a(dcgettext.o)
 .data          0x00000000006bc160        0x8 /work/glibc-obj/libc.a(dcigettext.o)
                0x00000000006bc160                _nl_current_default_domain
 .data          0x00000000006bc168        0x0 /work/glibc-obj/libc.a(finddomain.o)
 .data          0x00000000006bc168        0x0 /work/glibc-obj/libc.a(loadmsgcat.o)
 .data          0x00000000006bc168        0x0 /work/glibc-obj/libc.a(localealias.o)
 .data          0x00000000006bc168        0x0 /work/glibc-obj/libc.a(l10nflist.o)
 .data          0x00000000006bc168        0x0 /work/glibc-obj/libc.a(explodename.o)
 .data          0x00000000006bc168        0x0 /work/glibc-obj/libc.a(plural.o)
 .data          0x00000000006bc168        0x0 /work/glibc-obj/libc.a(plural-exp.o)
 .data          0x00000000006bc168        0x0 /work/glibc-obj/libc.a(hash-string.o)
 .data          0x00000000006bc168        0x0 /work/glibc-obj/libc.a(bsd-_setjmp.o)
 .data          0x00000000006bc168        0x0 /work/glibc-obj/libc.a(longjmp.o)
 .data          0x00000000006bc168        0x0 /work/glibc-obj/libc.a(__longjmp.o)
 .data          0x00000000006bc168        0x0 /work/glibc-obj/libc.a(jmp-unwind.o)
 .data          0x00000000006bc168        0x0 /work/glibc-obj/libc.a(raise.o)
 .data          0x00000000006bc168        0x0 /work/glibc-obj/libc.a(sigprocmask.o)
 .data          0x00000000006bc168        0x0 /work/glibc-obj/libc.a(abort.o)
 .data          0x00000000006bc168        0x0 /work/glibc-obj/libc.a(msort.o)
 .data          0x00000000006bc168        0x0 /work/glibc-obj/libc.a(getenv.o)
 .data          0x00000000006bc168        0x0 /work/glibc-obj/libc.a(exit.o)
 .data          0x00000000006bc168        0x8 /work/glibc-obj/libc.a(cxa_atexit.o)
                0x00000000006bc168                __exit_funcs
 .data          0x00000000006bc170        0x0 /work/glibc-obj/libc.a(strtoul.o)
 .data          0x00000000006bc170        0x0 /work/glibc-obj/libc.a(strtoul_l.o)
 .data          0x00000000006bc170        0x0 /work/glibc-obj/libc.a(grouping.o)
 .data          0x00000000006bc170        0x0 /work/glibc-obj/libc.a(fprintf.o)
 .data          0x00000000006bc170        0x0 /work/glibc-obj/libc.a(asprintf.o)
 .data          0x00000000006bc170        0x0 /work/glibc-obj/libc.a(fxprintf.o)
 .data          0x00000000006bc170        0x0 /work/glibc-obj/libc.a(iofclose.o)
 .data          0x00000000006bc170        0x0 /work/glibc-obj/libc.a(iofflush.o)
 .data          0x00000000006bc170        0x0 /work/glibc-obj/libc.a(iofopen.o)
 .data          0x00000000006bc170        0x0 /work/glibc-obj/libc.a(iofwrite.o)
 .data          0x00000000006bc170        0x0 /work/glibc-obj/libc.a(wfileops.o)
 .data          0x00000000006bc170        0x0 /work/glibc-obj/libc.a(vasprintf.o)
 .data          0x00000000006bc170        0x0 /work/glibc-obj/libc.a(libc_fatal.o)
 .data          0x00000000006bc170        0x0 /work/glibc-obj/libc.a(vtables.o)
 .data          0x00000000006bc170        0x0 /work/glibc-obj/libc.a(iofgets_u.o)
 .data          0x00000000006bc170        0x0 /work/glibc-obj/libc.a(fileops.o)
 .data          0x00000000006bc170        0x0 /work/glibc-obj/libc.a(genops.o)
 *fill*         0x00000000006bc170       0x10 
 .data          0x00000000006bc180      0x678 /work/glibc-obj/libc.a(stdfiles.o)
                0x00000000006bc180                _IO_list_all
                0x00000000006bc1a0                _IO_2_1_stderr_
                0x00000000006bc3c0                _IO_2_1_stdout_
                0x00000000006bc5e0                _IO_2_1_stdin_
 .data          0x00000000006bc7f8       0x18 /work/glibc-obj/libc.a(stdio.o)
                0x00000000006bc7f8                stderr
                0x00000000006bc7f8                _IO_stderr
                0x00000000006bc800                stdout
                0x00000000006bc800                _IO_stdout
                0x00000000006bc808                stdin
                0x00000000006bc808                _IO_stdin
 .data          0x00000000006bc810        0x0 /work/glibc-obj/libc.a(strops.o)
 *fill*         0x00000000006bc810       0x10 
 .data          0x00000000006bc820      0x960 /work/glibc-obj/libc.a(malloc.o)
                0x00000000006bc824                __libc_malloc_initialized
                0x00000000006bc830                __memalign_hook
                0x00000000006bc838                __realloc_hook
                0x00000000006bc840                __malloc_hook
                0x00000000006bd178                __morecore
 .data          0x00000000006bd180        0x0 /work/glibc-obj/libc.a(morecore.o)
 .data          0x00000000006bd180        0x0 /work/glibc-obj/libc.a(thread-freeres.o)
 .data          0x00000000006bd180        0x0 /work/glibc-obj/libc.a(strchr.o)
 .data          0x00000000006bd180        0x0 /work/glibc-obj/libc.a(strcmp.o)
 .data          0x00000000006bd180        0x0 /work/glibc-obj/libc.a(strcpy.o)
 .data          0x00000000006bd180        0x0 /work/glibc-obj/libc.a(strcspn.o)
 .data          0x00000000006bd180        0x0 /work/glibc-obj/libc.a(strdup.o)
 .data          0x00000000006bd180        0x0 /work/glibc-obj/libc.a(strlen.o)
 .data          0x00000000006bd180        0x0 /work/glibc-obj/libc.a(strncmp.o)
 .data          0x00000000006bd180        0x0 /work/glibc-obj/libc.a(strstr.o)
 .data          0x00000000006bd180        0x0 /work/glibc-obj/libc.a(memchr.o)
 .data          0x00000000006bd180        0x0 /work/glibc-obj/libc.a(memcmp.o)
 .data          0x00000000006bd180        0x0 /work/glibc-obj/libc.a(memmove.o)
 .data          0x00000000006bd180        0x0 /work/glibc-obj/libc.a(memset.o)
 .data          0x00000000006bd180        0x0 /work/glibc-obj/libc.a(mempcpy.o)
 .data          0x00000000006bd180        0x0 /work/glibc-obj/libc.a(stpcpy.o)
 .data          0x00000000006bd180        0x0 /work/glibc-obj/libc.a(strcasecmp_l.o)
 .data          0x00000000006bd180        0x0 /work/glibc-obj/libc.a(memcpy.o)
 .data          0x00000000006bd180        0x0 /work/glibc-obj/libc.a(rawmemchr.o)
 .data          0x00000000006bd180        0x0 /work/glibc-obj/libc.a(strchrnul.o)
 .data          0x00000000006bd180        0x0 /work/glibc-obj/libc.a(strcmp-sse2.o)
 .data          0x00000000006bd180        0x0 /work/glibc-obj/libc.a(strcmp-sse2-unaligned.o)
 .data          0x00000000006bd180        0x0 /work/glibc-obj/libc.a(strcmp-ssse3.o)
 .data          0x00000000006bd180        0x0 /work/glibc-obj/libc.a(strncmp-sse2.o)
 .data          0x00000000006bd180        0x0 /work/glibc-obj/libc.a(strncmp-ssse3.o)
 .data          0x00000000006bd180        0x0 /work/glibc-obj/libc.a(strncmp-sse4_2.o)
 .data          0x00000000006bd180        0x0 /work/glibc-obj/libc.a(memchr-sse2.o)
 .data          0x00000000006bd180        0x0 /work/glibc-obj/libc.a(rawmemchr-sse2.o)
 .data          0x00000000006bd180        0x0 /work/glibc-obj/libc.a(memchr-avx2.o)
 .data          0x00000000006bd180        0x0 /work/glibc-obj/libc.a(rawmemchr-avx2.o)
 .data          0x00000000006bd180        0x0 /work/glibc-obj/libc.a(memcmp-sse2.o)
 .data          0x00000000006bd180        0x0 /work/glibc-obj/libc.a(memcmp-avx2-movbe.o)
 .data          0x00000000006bd180        0x0 /work/glibc-obj/libc.a(memcmp-sse4.o)
 .data          0x00000000006bd180        0x0 /work/glibc-obj/libc.a(memcpy-ssse3.o)
 .data          0x00000000006bd180        0x0 /work/glibc-obj/libc.a(memmove-ssse3.o)
 .data          0x00000000006bd180        0x0 /work/glibc-obj/libc.a(memcpy-ssse3-back.o)
 .data          0x00000000006bd180        0x0 /work/glibc-obj/libc.a(memmove-ssse3-back.o)
 .data          0x00000000006bd180        0x0 /work/glibc-obj/libc.a(memmove-avx512-no-vzeroupper.o)
 .data          0x00000000006bd180        0x0 /work/glibc-obj/libc.a(strcasecmp_l-sse2.o)
 .data          0x00000000006bd180        0x0 /work/glibc-obj/libc.a(strcasecmp_l-ssse3.o)
 .data          0x00000000006bd180        0x0 /work/glibc-obj/libc.a(strcasecmp_l-sse4_2.o)
 .data          0x00000000006bd180        0x0 /work/glibc-obj/libc.a(strcasecmp_l-avx.o)
 .data          0x00000000006bd180        0x0 /work/glibc-obj/libc.a(strchr-sse2.o)
 .data          0x00000000006bd180        0x0 /work/glibc-obj/libc.a(strchrnul-sse2.o)
 .data          0x00000000006bd180        0x0 /work/glibc-obj/libc.a(strchr-avx2.o)
 .data          0x00000000006bd180        0x0 /work/glibc-obj/libc.a(strchrnul-avx2.o)
 .data          0x00000000006bd180        0x0 /work/glibc-obj/libc.a(strlen-sse2.o)
 .data          0x00000000006bd180        0x0 /work/glibc-obj/libc.a(strlen-avx2.o)
 .data          0x00000000006bd180        0x0 /work/glibc-obj/libc.a(strcpy-sse2.o)
 .data          0x00000000006bd180        0x0 /work/glibc-obj/libc.a(stpcpy-sse2.o)
 .data          0x00000000006bd180        0x0 /work/glibc-obj/libc.a(strcpy-ssse3.o)
 .data          0x00000000006bd180        0x0 /work/glibc-obj/libc.a(stpcpy-ssse3.o)
 .data          0x00000000006bd180        0x0 /work/glibc-obj/libc.a(strcpy-sse2-unaligned.o)
 .data          0x00000000006bd180        0x0 /work/glibc-obj/libc.a(stpcpy-sse2-unaligned.o)
 .data          0x00000000006bd180        0x0 /work/glibc-obj/libc.a(strchr-sse2-no-bsf.o)
 .data          0x00000000006bd180        0x0 /work/glibc-obj/libc.a(memcmp-ssse3.o)
 .data          0x00000000006bd180        0x0 /work/glibc-obj/libc.a(strstr-sse2-unaligned.o)
 .data          0x00000000006bd180        0x0 /work/glibc-obj/libc.a(strcspn-sse2.o)
 .data          0x00000000006bd180        0x0 /work/glibc-obj/libc.a(strcspn-c.o)
 .data          0x00000000006bd180        0x0 /work/glibc-obj/libc.a(varshift.o)
 .data          0x00000000006bd180        0x0 /work/glibc-obj/libc.a(memset-avx512-no-vzeroupper.o)
 .data          0x00000000006bd180        0x0 /work/glibc-obj/libc.a(memmove-sse2-unaligned-erms.o)
 .data          0x00000000006bd180        0x0 /work/glibc-obj/libc.a(memmove-avx-unaligned-erms.o)
 .data          0x00000000006bd180        0x0 /work/glibc-obj/libc.a(memmove-avx512-unaligned-erms.o)
 .data          0x00000000006bd180        0x0 /work/glibc-obj/libc.a(memset-sse2-unaligned-erms.o)
 .data          0x00000000006bd180        0x0 /work/glibc-obj/libc.a(memset-avx2-unaligned-erms.o)
 .data          0x00000000006bd180        0x0 /work/glibc-obj/libc.a(memset-avx512-unaligned-erms.o)
 .data          0x00000000006bd180       0x40 /work/glibc-obj/libc.a(cacheinfo.o)
                0x00000000006bd180                __x86_raw_shared_cache_size
                0x00000000006bd188                __x86_raw_shared_cache_size_half
                0x00000000006bd190                __x86_shared_cache_size
                0x00000000006bd198                __x86_shared_cache_size_half
                0x00000000006bd1a0                __x86_raw_data_cache_size
                0x00000000006bd1a8                __x86_raw_data_cache_size_half
                0x00000000006bd1b0                __x86_data_cache_size
                0x00000000006bd1b8                __x86_data_cache_size_half
 .data          0x00000000006bd1c0        0x0 /work/glibc-obj/libc.a(strcasecmp_l-nonascii.o)
 .data          0x00000000006bd1c0        0x0 /work/glibc-obj/libc.a(wmempcpy.o)
 .data          0x00000000006bd1c0        0x0 /work/glibc-obj/libc.a(mbsrtowcs.o)
 .data          0x00000000006bd1c0        0x0 /work/glibc-obj/libc.a(wcsmbsload.o)
 .data          0x00000000006bd1c0        0x0 /work/glibc-obj/libc.a(mbsrtowcs_l.o)
 .data          0x00000000006bd1c0        0x0 /work/glibc-obj/libc.a(gettimeofday.o)
 .data          0x00000000006bd1c0        0x0 /work/glibc-obj/libc.a(_exit.o)
 .data          0x00000000006bd1c0        0x0 /work/glibc-obj/libc.a(getpid.o)
 .data          0x00000000006bd1c0        0x0 /work/glibc-obj/libc.a(sysconf.o)
 .data          0x00000000006bd1c0        0x0 /work/glibc-obj/libc.a(sched_getp.o)
 .data          0x00000000006bd1c0        0x0 /work/glibc-obj/libc.a(sched_sets.o)
 .data          0x00000000006bd1c0        0x0 /work/glibc-obj/libc.a(sched_gets.o)
 .data          0x00000000006bd1c0        0x0 /work/glibc-obj/libc.a(sched_yield.o)
 .data          0x00000000006bd1c0        0x0 /work/glibc-obj/libc.a(sched_primax.o)
 .data          0x00000000006bd1c0        0x0 /work/glibc-obj/libc.a(sched_primin.o)
 .data          0x00000000006bd1c0        0x0 /work/glibc-obj/libc.a(get_child_max.o)
 .data          0x00000000006bd1c0        0x0 /work/glibc-obj/libc.a(environ.o)
 .data          0x00000000006bd1c0        0x0 /work/glibc-obj/libc.a(xstat.o)
 .data          0x00000000006bd1c0        0x0 /work/glibc-obj/libc.a(fxstat.o)
 .data          0x00000000006bd1c0        0x0 /work/glibc-obj/libc.a(open64.o)
 .data          0x00000000006bd1c0        0x0 /work/glibc-obj/libc.a(read.o)
 .data          0x00000000006bd1c0        0x0 /work/glibc-obj/libc.a(write.o)
 .data          0x00000000006bd1c0        0x0 /work/glibc-obj/libc.a(lseek64.o)
 .data          0x00000000006bd1c0        0x0 /work/glibc-obj/libc.a(fcntl.o)
 .data          0x00000000006bd1c0        0x0 /work/glibc-obj/libc.a(close.o)
 .data          0x00000000006bd1c0        0x0 /work/glibc-obj/libc.a(getcwd.o)
 .data          0x00000000006bd1c0        0x0 /work/glibc-obj/libc.a(getrlimit64.o)
 .data          0x00000000006bd1c0        0x0 /work/glibc-obj/libc.a(sbrk.o)
 .data          0x00000000006bd1c0        0x0 /work/glibc-obj/libc.a(getpagesize.o)
 .data          0x00000000006bd1c0        0x0 /work/glibc-obj/libc.a(getdtsz.o)
 .data          0x00000000006bd1c0        0x0 /work/glibc-obj/libc.a(mmap64.o)
 .data          0x00000000006bd1c0        0x0 /work/glibc-obj/libc.a(munmap.o)
 .data          0x00000000006bd1c0        0x0 /work/glibc-obj/libc.a(mprotect.o)
 .data          0x00000000006bd1c0        0x0 /work/glibc-obj/libc.a(madvise.o)
 .data          0x00000000006bd1c0        0x0 /work/glibc-obj/libc.a(tsearch.o)
 .data          0x00000000006bd1c0        0x4 /work/glibc-obj/libc.a(getsysstats.o)
 .data          0x00000000006bd1c4        0x0 /work/glibc-obj/libc.a(getclktck.o)
 *fill*         0x00000000006bd1c4        0x4 
 .data          0x00000000006bd1c8       0x10 /work/glibc-obj/libc.a(init-misc.o)
                0x00000000006bd1c8                __progname
                0x00000000006bd1c8                program_invocation_short_name
                0x00000000006bd1d0                program_invocation_name
                0x00000000006bd1d0                __progname_full
 .data          0x00000000006bd1d8        0x0 /work/glibc-obj/libc.a(clone.o)
 .data          0x00000000006bd1d8        0x0 /work/glibc-obj/libc.a(mremap.o)
 .data          0x00000000006bd1d8        0x0 /work/glibc-obj/libc.a(sysinfo.o)
 .data          0x00000000006bd1d8        0x0 /work/glibc-obj/libc.a(alloca_cutoff.o)
 .data          0x00000000006bd1d8        0x0 /work/glibc-obj/libc.a(libc-cancellation.o)
 .data          0x00000000006bd1d8        0x0 /work/glibc-obj/libc.a(libc_pthread_init.o)
 .data          0x00000000006bd1d8        0x0 /work/glibc-obj/libc.a(libc_multiple_threads.o)
 .data          0x00000000006bd1d8        0x0 /work/glibc-obj/libc.a(register-atfork.o)
 .data          0x00000000006bd1d8        0x0 /work/glibc-obj/libc.a(chk_fail.o)
 .data          0x00000000006bd1d8        0x0 /work/glibc-obj/libc.a(fortify_fail.o)
 .data          0x00000000006bd1d8        0x0 /work/glibc-obj/libc.a(res_libc.o)
 .data          0x00000000006bd1d8        0x0 /work/glibc-obj/libc.a(res_randomid.o)
 .data          0x00000000006bd1d8        0x0 /work/glibc-obj/libc.a(res-close.o)
 .data          0x00000000006bd1d8        0x0 /work/glibc-obj/libc.a(resolv_context.o)
 .data          0x00000000006bd1d8        0x0 /work/glibc-obj/libc.a(resolv_conf.o)
 .data          0x00000000006bd1d8        0x0 /work/glibc-obj/libc.a(dl-debug.o)
 .data          0x00000000006bd1d8        0x0 /work/glibc-obj/libc.a(dl-tls.o)
 .data          0x00000000006bd1d8        0x0 /work/glibc-obj/libc.a(dl-execstack.o)
 .data          0x00000000006bd1d8        0x0 /work/glibc-obj/libc.a(dl-tunables.o)
 *fill*         0x00000000006bd1d8        0x8 
 .data          0x00000000006bd1e0      0x600 /work/glibc-obj/libc.a(dl-support.o)
                0x00000000006bd1e0                _dl_load_write_lock
                0x00000000006bd220                _dl_load_lock
                0x00000000006bd248                _dl_make_stack_executable_hook
                0x00000000006bd250                _dl_stack_flags
                0x00000000006bd254                _dl_fpu_control
                0x00000000006bd258                _dl_correct_cache_id
                0x00000000006bd25c                _dl_debug_fd
                0x00000000006bd260                _dl_pagesize
                0x00000000006bd268                _dl_init_static_tls
                0x00000000006bd270                _dl_initial_searchlist
                0x00000000006bd288                _dl_load_adds
                0x00000000006bd290                _dl_nns
                0x00000000006bd2a0                _dl_ns
                0x00000000006bd7d8                _dl_use_load_bias
 .data          0x00000000006bd7e0        0x0 /work/glibc-obj/libc.a(dl-iteratephdr.o)
 .data          0x00000000006bd7e0        0x0 /work/glibc-obj/libc.a(enbl-secure.o)
 .data          0x00000000006bd7e0        0x0 /work/glibc-obj/libc.a(dl-profstub.o)
 .data          0x00000000006bd7e0        0x0 /work/glibc-obj/libc.a(dl-sysdep.o)
 .data          0x00000000006bd7e0        0x0 /work/glibc-obj/libc.a(dl-error.o)
 .data          0x00000000006bd7e0        0x4 /work/glibc-obj/libc.a(init-first.o)
                0x00000000006bd7e0                __libc_multiple_libcs
 .data          0x00000000006bd7e4        0x0 /work/glibc-obj/libc.a(sysdep.o)
 .data          0x00000000006bd7e4        0x0 /work/glibc-obj/libc.a(gconv_open.o)
 .data          0x00000000006bd7e4        0x0 /work/glibc-obj/libc.a(gconv.o)
 .data          0x00000000006bd7e4        0x0 /work/glibc-obj/libc.a(gconv_close.o)
 .data          0x00000000006bd7e4        0x0 /work/glibc-obj/libc.a(gconv_db.o)
 *fill*         0x00000000006bd7e4       0x1c 
 .data          0x00000000006bd800      0x2a0 /work/glibc-obj/libc.a(gconv_conf.o)
 .data          0x00000000006bdaa0        0x0 /work/glibc-obj/libc.a(gconv_builtin.o)
 .data          0x00000000006bdaa0        0x0 /work/glibc-obj/libc.a(gconv_simple.o)
 .data          0x00000000006bdaa0        0x0 /work/glibc-obj/libc.a(gconv_trans.o)
 .data          0x00000000006bdaa0        0x0 /work/glibc-obj/libc.a(gconv_cache.o)
 .data          0x00000000006bdaa0        0x0 /work/glibc-obj/libc.a(gconv_dl.o)
 .data          0x00000000006bdaa0        0x0 /work/glibc-obj/libc.a(setlocale.o)
 .data          0x00000000006bdaa0        0x0 /work/glibc-obj/libc.a(findlocale.o)
 .data          0x00000000006bdaa0        0x0 /work/glibc-obj/libc.a(loadlocale.o)
 .data          0x00000000006bdaa0        0x0 /work/glibc-obj/libc.a(loadarchive.o)
 .data          0x00000000006bdaa0        0x0 /work/glibc-obj/libc.a(lc-ctype.o)
 .data          0x00000000006bdaa0        0x0 /work/glibc-obj/libc.a(C-ctype.o)
 .data          0x00000000006bdaa0        0x0 /work/glibc-obj/libc.a(SYS_libc.o)
 .data          0x00000000006bdaa0        0x0 /work/glibc-obj/libc.a(C_name.o)
 .data          0x00000000006bdaa0        0x0 /work/glibc-obj/libc.a(xlocale.o)
 .data          0x00000000006bdaa0        0x0 /work/glibc-obj/libc.a(localename.o)
 .data          0x00000000006bdaa0       0xe8 /work/glibc-obj/libc.a(global-locale.o)
                0x00000000006bdaa0                _nl_global_locale
 .data          0x00000000006bdb88        0x0 /work/glibc-obj/libc.a(setfpucw.o)
 .data          0x00000000006bdb88        0x2 /work/glibc-obj/libc.a(fpu_control.o)
                0x00000000006bdb88                __fpu_control
 .data          0x00000000006bdb8a        0x0 /work/glibc-obj/libc.a(setjmp.o)
 .data          0x00000000006bdb8a        0x0 /work/glibc-obj/libc.a(sigjmp.o)
 .data          0x00000000006bdb8a        0x0 /work/glibc-obj/libc.a(qsort.o)
 .data          0x00000000006bdb8a        0x0 /work/glibc-obj/libc.a(setenv.o)
 .data          0x00000000006bdb8a        0x0 /work/glibc-obj/libc.a(secure-getenv.o)
 .data          0x00000000006bdb8a        0x0 /work/glibc-obj/libc.a(strtol.o)
 .data          0x00000000006bdb8a        0x0 /work/glibc-obj/libc.a(strtol_l.o)
 .data          0x00000000006bdb8a        0x0 /work/glibc-obj/libc.a(vfprintf.o)
 .data          0x00000000006bdb8a        0x0 /work/glibc-obj/libc.a(printf_fp.o)
 .data          0x00000000006bdb8a        0x0 /work/glibc-obj/libc.a(reg-printf.o)
 .data          0x00000000006bdb8a        0x0 /work/glibc-obj/libc.a(printf_fphex.o)
 .data          0x00000000006bdb8a        0x0 /work/glibc-obj/libc.a(reg-modifier.o)
 *fill*         0x00000000006bdb8a        0x2 
 .data          0x00000000006bdb8c        0x4 /work/glibc-obj/libc.a(reg-type.o)
 .data          0x00000000006bdb90        0x0 /work/glibc-obj/libc.a(vfwprintf.o)
 .data          0x00000000006bdb90        0x0 /work/glibc-obj/libc.a(funlockfile.o)
 .data          0x00000000006bdb90        0x0 /work/glibc-obj/libc.a(printf-parsemb.o)
 .data          0x00000000006bdb90        0x0 /work/glibc-obj/libc.a(printf-parsewc.o)
 .data          0x00000000006bdb90        0x0 /work/glibc-obj/libc.a(filedoalloc.o)
 .data          0x00000000006bdb90        0x0 /work/glibc-obj/libc.a(iofputs.o)
 .data          0x00000000006bdb90        0x0 /work/glibc-obj/libc.a(wfiledoalloc.o)
 .data          0x00000000006bdb90        0x0 /work/glibc-obj/libc.a(iogetdelim.o)
 .data          0x00000000006bdb90        0x0 /work/glibc-obj/libc.a(iogetline.o)
 .data          0x00000000006bdb90        0x0 /work/glibc-obj/libc.a(iopadn.o)
 .data          0x00000000006bdb90        0x0 /work/glibc-obj/libc.a(iowpadn.o)
 .data          0x00000000006bdb90        0x0 /work/glibc-obj/libc.a(wgenops.o)
 .data          0x00000000006bdb90        0x0 /work/glibc-obj/libc.a(iofwide.o)
 .data          0x00000000006bdb90        0x0 /work/glibc-obj/libc.a(scratch_buffer_grow_preserve.o)
 .data          0x00000000006bdb90        0x0 /work/glibc-obj/libc.a(scratch_buffer_set_array_size.o)
 .data          0x00000000006bdb90        0x0 /work/glibc-obj/libc.a(dynarray_at_failure.o)
 .data          0x00000000006bdb90        0x0 /work/glibc-obj/libc.a(dynarray_emplace_enlarge.o)
 .data          0x00000000006bdb90        0x0 /work/glibc-obj/libc.a(alloc_buffer_alloc_array.o)
 .data          0x00000000006bdb90        0x0 /work/glibc-obj/libc.a(alloc_buffer_allocate.o)
 .data          0x00000000006bdb90        0x0 /work/glibc-obj/libc.a(alloc_buffer_copy_string.o)
 .data          0x00000000006bdb90        0x0 /work/glibc-obj/libc.a(alloc_buffer_create_failure.o)
 .data          0x00000000006bdb90        0x0 /work/glibc-obj/libc.a(strndup.o)
 .data          0x00000000006bdb90        0x0 /work/glibc-obj/libc.a(_strerror.o)
 .data          0x00000000006bdb90        0x0 /work/glibc-obj/libc.a(strnlen.o)
 .data          0x00000000006bdb90        0x0 /work/glibc-obj/libc.a(strrchr.o)
 .data          0x00000000006bdb90        0x0 /work/glibc-obj/libc.a(strtok_r.o)
 .data          0x00000000006bdb90        0x0 /work/glibc-obj/libc.a(memmem.o)
 .data          0x00000000006bdb90        0x0 /work/glibc-obj/libc.a(argz-ctsep.o)
 .data          0x00000000006bdb90        0x0 /work/glibc-obj/libc.a(argz-addsep.o)
 .data          0x00000000006bdb90        0x0 /work/glibc-obj/libc.a(strrchr-sse2.o)
 .data          0x00000000006bdb90        0x0 /work/glibc-obj/libc.a(strrchr-avx2.o)
 .data          0x00000000006bdb90        0x0 /work/glibc-obj/libc.a(strnlen-sse2.o)
 .data          0x00000000006bdb90        0x0 /work/glibc-obj/libc.a(strnlen-avx2.o)
 .data          0x00000000006bdb90        0x0 /work/glibc-obj/libc.a(wcslen.o)
 .data          0x00000000006bdb90        0x0 /work/glibc-obj/libc.a(wmemcpy.o)
 .data          0x00000000006bdb90        0x0 /work/glibc-obj/libc.a(wmemmove.o)
 .data          0x00000000006bdb90        0x0 /work/glibc-obj/libc.a(wmemset.o)
 .data          0x00000000006bdb90        0x0 /work/glibc-obj/libc.a(btowc.o)
 .data          0x00000000006bdb90        0x0 /work/glibc-obj/libc.a(wcrtomb.o)
 .data          0x00000000006bdb90        0x0 /work/glibc-obj/libc.a(wcsrtombs.o)
 .data          0x00000000006bdb90        0x0 /work/glibc-obj/libc.a(wcsnlen.o)
 .data          0x00000000006bdb90        0x0 /work/glibc-obj/libc.a(wcschrnul.o)
 .data          0x00000000006bdb90        0x0 /work/glibc-obj/libc.a(wcsnlen-sse4_1.o)
 .data          0x00000000006bdb90        0x0 /work/glibc-obj/libc.a(wcsnlen-c.o)
 .data          0x00000000006bdb90        0x0 /work/glibc-obj/libc.a(wcslen-sse2.o)
 .data          0x00000000006bdb90        0x0 /work/glibc-obj/libc.a(wcslen-avx2.o)
 .data          0x00000000006bdb90        0x0 /work/glibc-obj/libc.a(wcsnlen-avx2.o)
 .data          0x00000000006bdb90        0x0 /work/glibc-obj/libc.a(time.o)
 .data          0x00000000006bdb90        0x0 /work/glibc-obj/libc.a(opendir.o)
 .data          0x00000000006bdb90        0x0 /work/glibc-obj/libc.a(closedir.o)
 .data          0x00000000006bdb90        0x0 /work/glibc-obj/libc.a(readdir.o)
 .data          0x00000000006bdb90        0x0 /work/glibc-obj/libc.a(rewinddir.o)
 .data          0x00000000006bdb90        0x0 /work/glibc-obj/libc.a(getdents.o)
 .data          0x00000000006bdb90        0x0 /work/glibc-obj/libc.a(fdopendir.o)
 .data          0x00000000006bdb90        0x0 /work/glibc-obj/libc.a(uname.o)
 .data          0x00000000006bdb90        0x0 /work/glibc-obj/libc.a(getuid.o)
 .data          0x00000000006bdb90        0x0 /work/glibc-obj/libc.a(geteuid.o)
 .data          0x00000000006bdb90        0x0 /work/glibc-obj/libc.a(getgid.o)
 .data          0x00000000006bdb90        0x0 /work/glibc-obj/libc.a(getegid.o)
 .data          0x00000000006bdb90        0x0 /work/glibc-obj/libc.a(lxstat.o)
 .data          0x00000000006bdb90        0x0 /work/glibc-obj/libc.a(fxstatat.o)
 .data          0x00000000006bdb90        0x0 /work/glibc-obj/libc.a(openat64.o)
 .data          0x00000000006bdb90        0x0 /work/glibc-obj/libc.a(isatty.o)
 .data          0x00000000006bdb90        0x0 /work/glibc-obj/libc.a(tcgetattr.o)
 .data          0x00000000006bdb90        0x0 /work/glibc-obj/libc.a(brk.o)
 .data          0x00000000006bdb90        0x0 /work/glibc-obj/libc.a(wctrans.o)
 .data          0x00000000006bdb90        0x0 /work/glibc-obj/libc.a(towctrans.o)
 .data          0x00000000006bdb90        0x0 /work/glibc-obj/libc.a(readonly-area.o)
 .data          0x00000000006bdb90        0x0 /work/glibc-obj/libc.a(res_init.o)
 .data          0x00000000006bdb90        0x4 /work/glibc-obj/libc.a(res_hconf.o)
 .data          0x00000000006bdb94        0x0 /work/glibc-obj/libc.a(dl-load.o)
 .data          0x00000000006bdb94        0x0 /work/glibc-obj/libc.a(dl-lookup.o)
 .data          0x00000000006bdb94        0x0 /work/glibc-obj/libc.a(dl-object.o)
 .data          0x00000000006bdb94        0x0 /work/glibc-obj/libc.a(dl-reloc.o)
 .data          0x00000000006bdb94        0x0 /work/glibc-obj/libc.a(dl-hwcaps.o)
 .data          0x00000000006bdb94        0x0 /work/glibc-obj/libc.a(dl-misc.o)
 .data          0x00000000006bdb94        0x0 /work/glibc-obj/libc.a(dl-profile.o)
 .data          0x00000000006bdb94        0x0 /work/glibc-obj/libc.a(dl-origin.o)
 .data          0x00000000006bdb94        0x0 /work/glibc-obj/libc.a(dl-scope.o)
 .data          0x00000000006bdb94        0x0 /work/glibc-obj/libc.a(dl-trampoline.o)
 .data          0x00000000006bdb94        0x0 /work/glibc-obj/libc.a(dl-exception.o)
 .data          0x00000000006bdb94        0x0 /work/glibc-obj/libc.a(dl-cache.o)
 .data          0x00000000006bdb94        0x0 /work/glibc-obj/libc.a(dl-tlsdesc.o)
 *fill*         0x00000000006bdb94        0xc 
 .data          0x00000000006bdba0       0x20 /work/glibc-obj/libc.a(dl-libc.o)
 .data          0x00000000006bdbc0        0x0 /work/glibc-obj/libc.a(lc-monetary.o)
 .data          0x00000000006bdbc0        0x0 /work/glibc-obj/libc.a(lc-numeric.o)
 .data          0x00000000006bdbc0        0x0 /work/glibc-obj/libc.a(C-messages.o)
 .data          0x00000000006bdbc0        0x0 /work/glibc-obj/libc.a(C-monetary.o)
 .data          0x00000000006bdbc0        0x0 /work/glibc-obj/libc.a(C-numeric.o)
 .data          0x00000000006bdbc0        0x0 /work/glibc-obj/libc.a(C-time.o)
 .data          0x00000000006bdbc0        0x0 /work/glibc-obj/libc.a(C-paper.o)
 .data          0x00000000006bdbc0        0x0 /work/glibc-obj/libc.a(C-name.o)
 .data          0x00000000006bdbc0        0x0 /work/glibc-obj/libc.a(C-address.o)
 .data          0x00000000006bdbc0        0x0 /work/glibc-obj/libc.a(C-telephone.o)
 .data          0x00000000006bdbc0        0x0 /work/glibc-obj/libc.a(C-measurement.o)
 .data          0x00000000006bdbc0        0x0 /work/glibc-obj/libc.a(C-identification.o)
 .data          0x00000000006bdbc0        0x0 /work/glibc-obj/libc.a(C-collate.o)
 .data          0x00000000006bdbc0        0x0 /work/glibc-obj/libc.a(cmp.o)
 .data          0x00000000006bdbc0        0x0 /work/glibc-obj/libc.a(divrem.o)
 .data          0x00000000006bdbc0        0x0 /work/glibc-obj/libc.a(lshift.o)
 .data          0x00000000006bdbc0        0x0 /work/glibc-obj/libc.a(rshift.o)
 .data          0x00000000006bdbc0        0x0 /work/glibc-obj/libc.a(mul.o)
 .data          0x00000000006bdbc0        0x0 /work/glibc-obj/libc.a(mul_1.o)
 .data          0x00000000006bdbc0        0x0 /work/glibc-obj/libc.a(mul_n.o)
 .data          0x00000000006bdbc0        0x0 /work/glibc-obj/libc.a(sub_n.o)
 .data          0x00000000006bdbc0        0x0 /work/glibc-obj/libc.a(submul_1.o)
 .data          0x00000000006bdbc0        0x0 /work/glibc-obj/libc.a(dbl2mpn.o)
 .data          0x00000000006bdbc0        0x0 /work/glibc-obj/libc.a(ldbl2mpn.o)
 .data          0x00000000006bdbc0        0x0 /work/glibc-obj/libc.a(float1282mpn.o)
 .data          0x00000000006bdbc0        0x0 /work/glibc-obj/libc.a(fpioconst.o)
 .data          0x00000000006bdbc0        0x0 /work/glibc-obj/libc.a(_itoa.o)
 .data          0x00000000006bdbc0        0x0 /work/glibc-obj/libc.a(itoa-digits.o)
 .data          0x00000000006bdbc0        0x0 /work/glibc-obj/libc.a(itoa-udigits.o)
 .data          0x00000000006bdbc0        0x0 /work/glibc-obj/libc.a(itowa-digits.o)
 .data          0x00000000006bdbc0        0x0 /work/glibc-obj/libc.a(snprintf.o)
 .data          0x00000000006bdbc0        0x0 /work/glibc-obj/libc.a(getline.o)
 .data          0x00000000006bdbc0        0x0 /work/glibc-obj/libc.a(errlist.o)
 .data          0x00000000006bdbc0        0x0 /work/glibc-obj/libc.a(vsnprintf.o)
 .data          0x00000000006bdbc0       0x68 /work/glibc-obj/libc.a(sdlerror.o)
 .data          0x00000000006bdc28        0x0 /work/glibc-obj/libc.a(sdladdr.o)
 .data          0x00000000006bdc28        0x0 /work/glibc-obj/libc.a(sdladdr1.o)
 .data          0x00000000006bdc28        0x0 /work/glibc-obj/libc.a(sdlinfo.o)
 .data          0x00000000006bdc28        0x0 /work/glibc-obj/libc.a(sdlmopen.o)
 .data          0x00000000006bdc28        0x0 /work/glibc-obj/libc.a(alloc_buffer_copy_bytes.o)
 .data          0x00000000006bdc28        0x0 /work/glibc-obj/libc.a(strerror.o)
 .data          0x00000000006bdc28        0x0 /work/glibc-obj/libc.a(strpbrk.o)
 .data          0x00000000006bdc28        0x0 /work/glibc-obj/libc.a(strspn.o)
 .data          0x00000000006bdc28        0x0 /work/glibc-obj/libc.a(strcasecmp.o)
 .data          0x00000000006bdc28        0x0 /work/glibc-obj/libc.a(strncase.o)
 .data          0x00000000006bdc28        0x0 /work/glibc-obj/libc.a(strsep.o)
 .data          0x00000000006bdc28        0x0 /work/glibc-obj/libc.a(strncase_l-sse2.o)
 .data          0x00000000006bdc28        0x0 /work/glibc-obj/libc.a(strncase_l-ssse3.o)
 .data          0x00000000006bdc28        0x0 /work/glibc-obj/libc.a(strncase_l-sse4_2.o)
 .data          0x00000000006bdc28        0x0 /work/glibc-obj/libc.a(strncase_l-avx.o)
 .data          0x00000000006bdc28        0x0 /work/glibc-obj/libc.a(strpbrk-sse2.o)
 .data          0x00000000006bdc28        0x0 /work/glibc-obj/libc.a(strspn-sse2.o)
 .data          0x00000000006bdc28        0x0 /work/glibc-obj/libc.a(strpbrk-c.o)
 .data          0x00000000006bdc28        0x0 /work/glibc-obj/libc.a(strspn-c.o)
 .data          0x00000000006bdc28        0x0 /work/glibc-obj/libc.a(strncase_l-nonascii.o)
 .data          0x00000000006bdc28        0x0 /work/glibc-obj/libc.a(ioctl.o)
 .data          0x00000000006bdc28        0x0 /work/glibc-obj/libc.a(gethostname.o)
 .data          0x00000000006bdc28        0x0 /work/glibc-obj/libc.a(socket.o)
 .data          0x00000000006bdc28        0x0 /work/glibc-obj/libc.a(profil.o)
 .data          0x00000000006bdc28        0x0 /work/glibc-obj/libc.a(prof-freq.o)
 .data          0x00000000006bdc28        0x0 /work/glibc-obj/libc.a(inet_mkadr.o)
 .data          0x00000000006bdc28        0x0 /work/glibc-obj/libc.a(inet6_scopeid_pton.o)
 .data          0x00000000006bdc28        0x0 /work/glibc-obj/libc.a(ifreq.o)
 .data          0x00000000006bdc28        0x0 /work/glibc-obj/libc.a(inet_addr.o)
 .data          0x00000000006bdc28        0x0 /work/glibc-obj/libc.a(inet_pton.o)
 .data          0x00000000006bdc28        0x0 /work/glibc-obj/libc.a(dl-runtime.o)
 .data          0x00000000006bdc28        0x0 /work/glibc-obj/libc.a(dl-open.o)
 .data          0x00000000006bdc28        0x0 /work/glibc-obj/libc.a(dl-close.o)
 .data          0x00000000006bdc28        0x0 /work/glibc-obj/libc.a(dl-sort-maps.o)
 .data          0x00000000006bdc28        0x0 /work/glibc-obj/libc.a(tlsdesc.o)
 .data          0x00000000006bdc28        0x0 /work/glibc-obj/libc.a(dl-addr.o)
 .data          0x00000000006bdc28        0x0 /work/glibc-obj/libc.a(dl-addr-obj.o)
 .data          0x00000000006bdc28        0x0 /work/glibc-obj/libc.a(add_n.o)
 .data          0x00000000006bdc28        0x0 /work/glibc-obj/libc.a(addmul_1.o)
 .data          0x00000000006bdc28        0x0 /work/glibc-obj/libc.a(sdlopen.o)
 .data          0x00000000006bdc28        0x0 /work/glibc-obj/libc.a(sdlclose.o)
 .data          0x00000000006bdc28        0x0 /work/glibc-obj/libc.a(sdlsym.o)
 .data          0x00000000006bdc28        0x0 /work/glibc-obj/libc.a(sdlvsym.o)
 .data          0x00000000006bdc28        0x0 /work/glibc-obj/libc.a(setitimer.o)
 .data          0x00000000006bdc28        0x0 /work/glibc-obj/libc.a(opensock.o)
 .data          0x00000000006bdc28        0x0 /work/glibc-obj/libc.a(if_index.o)
 .data          0x00000000006bdc28        0x0 /work/glibc-obj/libc.a(ifaddrs.o)
 .data          0x00000000006bdc28        0x0 /work/glibc-obj/libc.a(netlink_assert_response.o)
 .data          0x00000000006bdc28        0x0 /work/glibc-obj/libc.a(dl-deps.o)
 .data          0x00000000006bdc28        0x0 /work/glibc-obj/libc.a(dl-init.o)
 .data          0x00000000006bdc28        0x0 /work/glibc-obj/libc.a(dl-version.o)
 .data          0x00000000006bdc28        0x0 /work/glibc-obj/libc.a(dl-sym.o)
 .data          0x00000000006bdc28        0x0 /work/glibc-obj/libc.a(strncpy.o)
 .data          0x00000000006bdc28        0x0 /work/glibc-obj/libc.a(strncpy-c.o)
 .data          0x00000000006bdc28        0x0 /work/glibc-obj/libc.a(strncpy-ssse3.o)
 .data          0x00000000006bdc28        0x0 /work/glibc-obj/libc.a(strncpy-sse2-unaligned.o)
 .data          0x00000000006bdc28        0x0 /work/glibc-obj/libc.a(access.o)
 .data          0x00000000006bdc28        0x0 /work/glibc-obj/libc.a(bind.o)
 .data          0x00000000006bdc28        0x0 /work/glibc-obj/libc.a(getsockname.o)
 .data          0x00000000006bdc28        0x0 /work/glibc-obj/libc.a(recvmsg.o)
 .data          0x00000000006bdc28        0x0 /work/glibc-obj/libc.a(sendto.o)
 .data          0x00000000006bdc28        0x0 /usr/lib/gcc/x86_64-redhat-linux/8//libgcc.a(unordtf2.o)
 .data          0x00000000006bdc28        0x0 /usr/lib/gcc/x86_64-redhat-linux/8//libgcc.a(letf2.o)
 .data          0x00000000006bdc28        0x0 /usr/lib/gcc/x86_64-redhat-linux/8//libgcc.a(sfp-exceptions.o)
 .data          0x00000000006bdc28        0x0 /usr/lib/gcc/x86_64-redhat-linux/8//libgcc_eh.a(unwind-c.o)
 .data          0x00000000006bdc28        0x0 /usr/lib/gcc/x86_64-redhat-linux/8/crtend.o
 .data          0x00000000006bdc28        0x0 /work/glibc-obj/csu/crtn.o

.tm_clone_table
                0x00000000006bdc28        0x0
 .tm_clone_table
                0x00000000006bdc28        0x0 /usr/lib/gcc/x86_64-redhat-linux/8/crtbeginT.o
 .tm_clone_table
                0x00000000006bdc28        0x0 /usr/lib/gcc/x86_64-redhat-linux/8/crtend.o

.data1
 *(.data1)
                0x00000000006bdc28                _edata = .
                [!provide]                        PROVIDE (edata, .)
                0x00000000006bdc28                . = .
                0x00000000006bdc28                __bss_start = .

.bss            0x00000000006bdc40     0x63e8
 *(.dynbss)
 *(.bss .bss.* .gnu.linkonce.b.*)
 .bss           0x00000000006bdc40        0x0 /work/glibc-obj/csu/crt1.o
 .bss           0x00000000006bdc40        0x0 /work/glibc-obj/csu/crti.o
 .bss           0x00000000006bdc40       0x50 /usr/lib/gcc/x86_64-redhat-linux/8/crtbeginT.o
 .bss           0x00000000006bdc90        0x0 threads.o
 .bss           0x00000000006bdc90       0x38 /work/glibc-obj/nptl/libpthread.a(pthread_create.o)
                0x00000000006bdc90                __stack_user
 .bss           0x00000000006bdcc8        0x0 /work/glibc-obj/nptl/libpthread.a(pthread_join.o)
 .bss           0x00000000006bdcc8        0x0 /work/glibc-obj/nptl/libpthread.a(pthread_join_common.o)
 .bss           0x00000000006bdcc8        0x0 /work/glibc-obj/nptl/libpthread.a(pthread_mutex_lock.o)
 .bss           0x00000000006bdcc8        0x0 /work/glibc-obj/nptl/libpthread.a(pthread_mutex_trylock.o)
 .bss           0x00000000006bdcc8        0x0 /work/glibc-obj/nptl/libpthread.a(pthread_mutex_unlock.o)
 .bss           0x00000000006bdcc8        0x0 /work/glibc-obj/nptl/libpthread.a(pthread_key_create.o)
 .bss           0x00000000006bdcc8        0x0 /work/glibc-obj/nptl/libpthread.a(pthread_key_delete.o)
 .bss           0x00000000006bdcc8        0x0 /work/glibc-obj/nptl/libpthread.a(pthread_getspecific.o)
 .bss           0x00000000006bdcc8        0x0 /work/glibc-obj/nptl/libpthread.a(pthread_setspecific.o)
 .bss           0x00000000006bdcc8        0x0 /work/glibc-obj/nptl/libpthread.a(pthread_cancel.o)
 .bss           0x00000000006bdcc8        0x0 /work/glibc-obj/nptl/libpthread.a(pthread_once.o)
 .bss           0x00000000006bdcc8        0x0 /work/glibc-obj/nptl/libpthread.a(cleanup_compat.o)
 .bss           0x00000000006bdcc8        0x0 /work/glibc-obj/nptl/libpthread.a(cancellation.o)
 .bss           0x00000000006bdcc8        0x0 /work/glibc-obj/nptl/libpthread.a(lowlevellock.o)
 .bss           0x00000000006bdcc8        0x0 /work/glibc-obj/nptl/libpthread.a(pause.o)
 .bss           0x00000000006bdcc8        0x0 /work/glibc-obj/nptl/libpthread.a(tpp.o)
 .bss           0x00000000006bdcc8        0x4 /work/glibc-obj/nptl/libpthread.a(elision-lock.o)
                0x00000000006bdcc8                __pthread_force_elision
 .bss           0x00000000006bdccc        0x0 /work/glibc-obj/nptl/libpthread.a(elision-unlock.o)
 .bss           0x00000000006bdccc        0x0 /work/glibc-obj/nptl/libpthread.a(elision-trylock.o)
 .bss           0x00000000006bdccc        0x1 /work/glibc-obj/nptl/libpthread.a(nptl-init.o)
 *fill*         0x00000000006bdccd       0x13 
 .bss           0x00000000006bdce0     0x4004 /work/glibc-obj/nptl/libpthread.a(vars.o)
                0x00000000006bdce0                __pthread_keys
                0x00000000006c1ce0                __default_pthread_attr_lock
 .bss           0x00000000006c1ce4        0x0 /work/glibc-obj/nptl/libpthread.a(events.o)
 .bss           0x00000000006c1ce4        0x0 /work/glibc-obj/nptl/libpthread.a(unwind.o)
 .bss           0x00000000006c1ce4        0x0 /work/glibc-obj/nptl/libpthread.a(sigaction.o)
 *fill*         0x00000000006c1ce4        0xc 
 .bss           0x00000000006c1cf0       0x22 /usr/lib/gcc/x86_64-redhat-linux/8//libgcc_eh.a(unwind-dw2.o)
 *fill*         0x00000000006c1d12        0xe 
 .bss           0x00000000006c1d20      0x1e0 /usr/lib/gcc/x86_64-redhat-linux/8//libgcc_eh.a(unwind-dw2-fde-dip.o)
 .bss           0x00000000006c1f00        0x0 /work/glibc-obj/libc.a(libc-start.o)
 .bss           0x00000000006c1f00        0x0 /work/glibc-obj/libc.a(check_fds.o)
 .bss           0x00000000006c1f00      0x410 /work/glibc-obj/libc.a(libc-tls.o)
 .bss           0x00000000006c2310        0x0 /work/glibc-obj/libc.a(elf-init.o)
 .bss           0x00000000006c2310        0x0 /work/glibc-obj/libc.a(errno.o)
 .bss           0x00000000006c2310        0x0 /work/glibc-obj/libc.a(assert.o)
 .bss           0x00000000006c2310        0x0 /work/glibc-obj/libc.a(ctype-info.o)
 .bss           0x00000000006c2310        0x0 /work/glibc-obj/libc.a(dcgettext.o)
 *fill*         0x00000000006c2310       0x10 
 .bss           0x00000000006c2320       0xb8 /work/glibc-obj/libc.a(dcigettext.o)
                0x00000000006c2320                _nl_state_lock
 *fill*         0x00000000006c23d8        0x8 
 .bss           0x00000000006c23e0       0x40 /work/glibc-obj/libc.a(finddomain.o)
 .bss           0x00000000006c2420       0x10 /work/glibc-obj/libc.a(loadmsgcat.o)
 .bss           0x00000000006c2430       0x2c /work/glibc-obj/libc.a(localealias.o)
 .bss           0x00000000006c245c        0x0 /work/glibc-obj/libc.a(l10nflist.o)
 .bss           0x00000000006c245c        0x0 /work/glibc-obj/libc.a(explodename.o)
 .bss           0x00000000006c245c        0x0 /work/glibc-obj/libc.a(plural.o)
 .bss           0x00000000006c245c        0x0 /work/glibc-obj/libc.a(plural-exp.o)
 .bss           0x00000000006c245c        0x0 /work/glibc-obj/libc.a(hash-string.o)
 .bss           0x00000000006c245c        0x0 /work/glibc-obj/libc.a(bsd-_setjmp.o)
 .bss           0x00000000006c245c        0x0 /work/glibc-obj/libc.a(longjmp.o)
 .bss           0x00000000006c245c        0x0 /work/glibc-obj/libc.a(__longjmp.o)
 .bss           0x00000000006c245c        0x0 /work/glibc-obj/libc.a(jmp-unwind.o)
 .bss           0x00000000006c245c        0x0 /work/glibc-obj/libc.a(raise.o)
 .bss           0x00000000006c245c        0x0 /work/glibc-obj/libc.a(sigprocmask.o)
 *fill*         0x00000000006c245c        0x4 
 .bss           0x00000000006c2460       0x24 /work/glibc-obj/libc.a(abort.o)
                0x00000000006c2460                __abort_msg
 *fill*         0x00000000006c2484        0x4 
 .bss           0x00000000006c2488        0xc /work/glibc-obj/libc.a(msort.o)
 .bss           0x00000000006c2494        0x0 /work/glibc-obj/libc.a(getenv.o)
 .bss           0x00000000006c2494        0x1 /work/glibc-obj/libc.a(exit.o)
                0x00000000006c2494                __exit_funcs_done
 *fill*         0x00000000006c2495        0xb 
 .bss           0x00000000006c24a0      0x410 /work/glibc-obj/libc.a(cxa_atexit.o)
 .bss           0x00000000006c28b0        0x0 /work/glibc-obj/libc.a(strtoul.o)
 .bss           0x00000000006c28b0        0x0 /work/glibc-obj/libc.a(strtoul_l.o)
 .bss           0x00000000006c28b0        0x0 /work/glibc-obj/libc.a(grouping.o)
 .bss           0x00000000006c28b0        0x0 /work/glibc-obj/libc.a(fprintf.o)
 .bss           0x00000000006c28b0        0x0 /work/glibc-obj/libc.a(asprintf.o)
 .bss           0x00000000006c28b0        0x0 /work/glibc-obj/libc.a(fxprintf.o)
 .bss           0x00000000006c28b0        0x0 /work/glibc-obj/libc.a(iofclose.o)
 .bss           0x00000000006c28b0        0x0 /work/glibc-obj/libc.a(iofflush.o)
 .bss           0x00000000006c28b0        0x0 /work/glibc-obj/libc.a(iofopen.o)
 .bss           0x00000000006c28b0        0x0 /work/glibc-obj/libc.a(iofwrite.o)
 .bss           0x00000000006c28b0        0x0 /work/glibc-obj/libc.a(wfileops.o)
 .bss           0x00000000006c28b0        0x0 /work/glibc-obj/libc.a(vasprintf.o)
 .bss           0x00000000006c28b0        0x0 /work/glibc-obj/libc.a(libc_fatal.o)
 .bss           0x00000000006c28b0        0x0 /work/glibc-obj/libc.a(vtables.o)
 .bss           0x00000000006c28b0        0x0 /work/glibc-obj/libc.a(iofgets_u.o)
 .bss           0x00000000006c28b0        0x0 /work/glibc-obj/libc.a(fileops.o)
 .bss           0x00000000006c28b0       0x30 /work/glibc-obj/libc.a(genops.o)
 .bss           0x00000000006c28e0       0x30 /work/glibc-obj/libc.a(stdfiles.o)
 .bss           0x00000000006c2910        0x0 /work/glibc-obj/libc.a(stdio.o)
 .bss           0x00000000006c2910        0x0 /work/glibc-obj/libc.a(strops.o)
 .bss           0x00000000006c2910       0x50 /work/glibc-obj/libc.a(malloc.o)
                0x00000000006c2910                __after_morecore_hook
                0x00000000006c2918                __free_hook
 .bss           0x00000000006c2960        0x0 /work/glibc-obj/libc.a(morecore.o)
 .bss           0x00000000006c2960        0x0 /work/glibc-obj/libc.a(thread-freeres.o)
 .bss           0x00000000006c2960        0x0 /work/glibc-obj/libc.a(strchr.o)
 .bss           0x00000000006c2960        0x0 /work/glibc-obj/libc.a(strcmp.o)
 .bss           0x00000000006c2960        0x0 /work/glibc-obj/libc.a(strcpy.o)
 .bss           0x00000000006c2960        0x0 /work/glibc-obj/libc.a(strcspn.o)
 .bss           0x00000000006c2960        0x0 /work/glibc-obj/libc.a(strdup.o)
 .bss           0x00000000006c2960        0x0 /work/glibc-obj/libc.a(strlen.o)
 .bss           0x00000000006c2960        0x0 /work/glibc-obj/libc.a(strncmp.o)
 .bss           0x00000000006c2960        0x0 /work/glibc-obj/libc.a(strstr.o)
 .bss           0x00000000006c2960        0x0 /work/glibc-obj/libc.a(memchr.o)
 .bss           0x00000000006c2960        0x0 /work/glibc-obj/libc.a(memcmp.o)
 .bss           0x00000000006c2960        0x0 /work/glibc-obj/libc.a(memmove.o)
 .bss           0x00000000006c2960        0x0 /work/glibc-obj/libc.a(memset.o)
 .bss           0x00000000006c2960        0x0 /work/glibc-obj/libc.a(mempcpy.o)
 .bss           0x00000000006c2960        0x0 /work/glibc-obj/libc.a(stpcpy.o)
 .bss           0x00000000006c2960        0x0 /work/glibc-obj/libc.a(strcasecmp_l.o)
 .bss           0x00000000006c2960        0x0 /work/glibc-obj/libc.a(memcpy.o)
 .bss           0x00000000006c2960        0x0 /work/glibc-obj/libc.a(rawmemchr.o)
 .bss           0x00000000006c2960        0x0 /work/glibc-obj/libc.a(strchrnul.o)
 .bss           0x00000000006c2960        0x0 /work/glibc-obj/libc.a(strcmp-sse2.o)
 .bss           0x00000000006c2960        0x0 /work/glibc-obj/libc.a(strcmp-sse2-unaligned.o)
 .bss           0x00000000006c2960        0x0 /work/glibc-obj/libc.a(strcmp-ssse3.o)
 .bss           0x00000000006c2960        0x0 /work/glibc-obj/libc.a(strncmp-sse2.o)
 .bss           0x00000000006c2960        0x0 /work/glibc-obj/libc.a(strncmp-ssse3.o)
 .bss           0x00000000006c2960        0x0 /work/glibc-obj/libc.a(strncmp-sse4_2.o)
 .bss           0x00000000006c2960        0x0 /work/glibc-obj/libc.a(memchr-sse2.o)
 .bss           0x00000000006c2960        0x0 /work/glibc-obj/libc.a(rawmemchr-sse2.o)
 .bss           0x00000000006c2960        0x0 /work/glibc-obj/libc.a(memchr-avx2.o)
 .bss           0x00000000006c2960        0x0 /work/glibc-obj/libc.a(rawmemchr-avx2.o)
 .bss           0x00000000006c2960        0x0 /work/glibc-obj/libc.a(memcmp-sse2.o)
 .bss           0x00000000006c2960        0x0 /work/glibc-obj/libc.a(memcmp-avx2-movbe.o)
 .bss           0x00000000006c2960        0x0 /work/glibc-obj/libc.a(memcmp-sse4.o)
 .bss           0x00000000006c2960        0x0 /work/glibc-obj/libc.a(memcpy-ssse3.o)
 .bss           0x00000000006c2960        0x0 /work/glibc-obj/libc.a(memmove-ssse3.o)
 .bss           0x00000000006c2960        0x0 /work/glibc-obj/libc.a(memcpy-ssse3-back.o)
 .bss           0x00000000006c2960        0x0 /work/glibc-obj/libc.a(memmove-ssse3-back.o)
 .bss           0x00000000006c2960        0x0 /work/glibc-obj/libc.a(memmove-avx512-no-vzeroupper.o)
 .bss           0x00000000006c2960        0x0 /work/glibc-obj/libc.a(strcasecmp_l-sse2.o)
 .bss           0x00000000006c2960        0x0 /work/glibc-obj/libc.a(strcasecmp_l-ssse3.o)
 .bss           0x00000000006c2960        0x0 /work/glibc-obj/libc.a(strcasecmp_l-sse4_2.o)
 .bss           0x00000000006c2960        0x0 /work/glibc-obj/libc.a(strcasecmp_l-avx.o)
 .bss           0x00000000006c2960        0x0 /work/glibc-obj/libc.a(strchr-sse2.o)
 .bss           0x00000000006c2960        0x0 /work/glibc-obj/libc.a(strchrnul-sse2.o)
 .bss           0x00000000006c2960        0x0 /work/glibc-obj/libc.a(strchr-avx2.o)
 .bss           0x00000000006c2960        0x0 /work/glibc-obj/libc.a(strchrnul-avx2.o)
 .bss           0x00000000006c2960        0x0 /work/glibc-obj/libc.a(strlen-sse2.o)
 .bss           0x00000000006c2960        0x0 /work/glibc-obj/libc.a(strlen-avx2.o)
 .bss           0x00000000006c2960        0x0 /work/glibc-obj/libc.a(strcpy-sse2.o)
 .bss           0x00000000006c2960        0x0 /work/glibc-obj/libc.a(stpcpy-sse2.o)
 .bss           0x00000000006c2960        0x0 /work/glibc-obj/libc.a(strcpy-ssse3.o)
 .bss           0x00000000006c2960        0x0 /work/glibc-obj/libc.a(stpcpy-ssse3.o)
 .bss           0x00000000006c2960        0x0 /work/glibc-obj/libc.a(strcpy-sse2-unaligned.o)
 .bss           0x00000000006c2960        0x0 /work/glibc-obj/libc.a(stpcpy-sse2-unaligned.o)
 .bss           0x00000000006c2960        0x0 /work/glibc-obj/libc.a(strchr-sse2-no-bsf.o)
 .bss           0x00000000006c2960        0x0 /work/glibc-obj/libc.a(memcmp-ssse3.o)
 .bss           0x00000000006c2960        0x0 /work/glibc-obj/libc.a(strstr-sse2-unaligned.o)
 .bss           0x00000000006c2960        0x0 /work/glibc-obj/libc.a(strcspn-sse2.o)
 .bss           0x00000000006c2960        0x0 /work/glibc-obj/libc.a(strcspn-c.o)
 .bss           0x00000000006c2960        0x0 /work/glibc-obj/libc.a(varshift.o)
 .bss           0x00000000006c2960        0x0 /work/glibc-obj/libc.a(memset-avx512-no-vzeroupper.o)
 .bss           0x00000000006c2960        0x0 /work/glibc-obj/libc.a(memmove-sse2-unaligned-erms.o)
 .bss           0x00000000006c2960        0x0 /work/glibc-obj/libc.a(memmove-avx-unaligned-erms.o)
 .bss           0x00000000006c2960        0x0 /work/glibc-obj/libc.a(memmove-avx512-unaligned-erms.o)
 .bss           0x00000000006c2960        0x0 /work/glibc-obj/libc.a(memset-sse2-unaligned-erms.o)
 .bss           0x00000000006c2960        0x0 /work/glibc-obj/libc.a(memset-avx2-unaligned-erms.o)
 .bss           0x00000000006c2960        0x0 /work/glibc-obj/libc.a(memset-avx512-unaligned-erms.o)
 .bss           0x00000000006c2960        0x0 /work/glibc-obj/libc.a(cacheinfo.o)
 .bss           0x00000000006c2960        0x0 /work/glibc-obj/libc.a(strcasecmp_l-nonascii.o)
 .bss           0x00000000006c2960        0x0 /work/glibc-obj/libc.a(wmempcpy.o)
 .bss           0x00000000006c2960        0x8 /work/glibc-obj/libc.a(mbsrtowcs.o)
 .bss           0x00000000006c2968        0x0 /work/glibc-obj/libc.a(wcsmbsload.o)
 .bss           0x00000000006c2968        0x0 /work/glibc-obj/libc.a(mbsrtowcs_l.o)
 .bss           0x00000000006c2968        0x0 /work/glibc-obj/libc.a(gettimeofday.o)
 .bss           0x00000000006c2968        0x0 /work/glibc-obj/libc.a(_exit.o)
 .bss           0x00000000006c2968        0x0 /work/glibc-obj/libc.a(getpid.o)
 .bss           0x00000000006c2968        0x0 /work/glibc-obj/libc.a(sysconf.o)
 .bss           0x00000000006c2968        0x0 /work/glibc-obj/libc.a(sched_getp.o)
 .bss           0x00000000006c2968        0x0 /work/glibc-obj/libc.a(sched_sets.o)
 .bss           0x00000000006c2968        0x0 /work/glibc-obj/libc.a(sched_gets.o)
 .bss           0x00000000006c2968        0x0 /work/glibc-obj/libc.a(sched_yield.o)
 .bss           0x00000000006c2968        0x0 /work/glibc-obj/libc.a(sched_primax.o)
 .bss           0x00000000006c2968        0x0 /work/glibc-obj/libc.a(sched_primin.o)
 .bss           0x00000000006c2968        0x0 /work/glibc-obj/libc.a(get_child_max.o)
 .bss           0x00000000006c2968        0x8 /work/glibc-obj/libc.a(environ.o)
                0x00000000006c2968                _environ
                0x00000000006c2968                __environ
                0x00000000006c2968                environ
 .bss           0x00000000006c2970        0x0 /work/glibc-obj/libc.a(xstat.o)
 .bss           0x00000000006c2970        0x0 /work/glibc-obj/libc.a(fxstat.o)
 .bss           0x00000000006c2970        0x0 /work/glibc-obj/libc.a(open64.o)
 .bss           0x00000000006c2970        0x0 /work/glibc-obj/libc.a(read.o)
 .bss           0x00000000006c2970        0x0 /work/glibc-obj/libc.a(write.o)
 .bss           0x00000000006c2970        0x0 /work/glibc-obj/libc.a(lseek64.o)
 .bss           0x00000000006c2970        0x0 /work/glibc-obj/libc.a(fcntl.o)
 .bss           0x00000000006c2970        0x0 /work/glibc-obj/libc.a(close.o)
 .bss           0x00000000006c2970        0x0 /work/glibc-obj/libc.a(getcwd.o)
 .bss           0x00000000006c2970        0x0 /work/glibc-obj/libc.a(getrlimit64.o)
 .bss           0x00000000006c2970        0x0 /work/glibc-obj/libc.a(sbrk.o)
 .bss           0x00000000006c2970        0x0 /work/glibc-obj/libc.a(getpagesize.o)
 .bss           0x00000000006c2970        0x0 /work/glibc-obj/libc.a(getdtsz.o)
 .bss           0x00000000006c2970        0x0 /work/glibc-obj/libc.a(mmap64.o)
 .bss           0x00000000006c2970        0x0 /work/glibc-obj/libc.a(munmap.o)
 .bss           0x00000000006c2970        0x0 /work/glibc-obj/libc.a(mprotect.o)
 .bss           0x00000000006c2970        0x0 /work/glibc-obj/libc.a(madvise.o)
 .bss           0x00000000006c2970        0x0 /work/glibc-obj/libc.a(tsearch.o)
 .bss           0x00000000006c2970        0x8 /work/glibc-obj/libc.a(getsysstats.o)
 .bss           0x00000000006c2978        0x0 /work/glibc-obj/libc.a(getclktck.o)
 .bss           0x00000000006c2978        0x0 /work/glibc-obj/libc.a(init-misc.o)
 .bss           0x00000000006c2978        0x0 /work/glibc-obj/libc.a(clone.o)
 .bss           0x00000000006c2978        0x0 /work/glibc-obj/libc.a(mremap.o)
 .bss           0x00000000006c2978        0x0 /work/glibc-obj/libc.a(sysinfo.o)
 .bss           0x00000000006c2978        0x0 /work/glibc-obj/libc.a(alloca_cutoff.o)
 .bss           0x00000000006c2978        0x0 /work/glibc-obj/libc.a(libc-cancellation.o)
 .bss           0x00000000006c2978        0x0 /work/glibc-obj/libc.a(libc_pthread_init.o)
 .bss           0x00000000006c2978        0x0 /work/glibc-obj/libc.a(libc_multiple_threads.o)
 *fill*         0x00000000006c2978        0x8 
 .bss           0x00000000006c2980      0x928 /work/glibc-obj/libc.a(register-atfork.o)
                0x00000000006c2980                __fork_lock
 .bss           0x00000000006c32a8        0x0 /work/glibc-obj/libc.a(chk_fail.o)
 .bss           0x00000000006c32a8        0x0 /work/glibc-obj/libc.a(fortify_fail.o)
 *fill*         0x00000000006c32a8       0x18 
 .bss           0x00000000006c32c0      0x238 /work/glibc-obj/libc.a(res_libc.o)
                0x00000000006c32c0                _res
 .bss           0x00000000006c34f8        0x0 /work/glibc-obj/libc.a(res_randomid.o)
 .bss           0x00000000006c34f8        0x0 /work/glibc-obj/libc.a(res-close.o)
 .bss           0x00000000006c34f8        0x0 /work/glibc-obj/libc.a(resolv_context.o)
 .bss           0x00000000006c34f8       0x10 /work/glibc-obj/libc.a(resolv_conf.o)
 .bss           0x00000000006c3508        0x0 /work/glibc-obj/libc.a(dl-debug.o)
 .bss           0x00000000006c3508        0x0 /work/glibc-obj/libc.a(dl-tls.o)
 .bss           0x00000000006c3508        0x0 /work/glibc-obj/libc.a(dl-execstack.o)
 .bss           0x00000000006c3508        0x0 /work/glibc-obj/libc.a(dl-tunables.o)
 *fill*         0x00000000006c3508       0x18 
 .bss           0x00000000006c3520       0x90 /work/glibc-obj/libc.a(dl-support.o)
                0x00000000006c3520                _dl_hwcap2
                0x00000000006c3528                _dl_hwcap
                0x00000000006c3540                _dl_x86_cpu_features
 .bss           0x00000000006c35b0        0x0 /work/glibc-obj/libc.a(dl-iteratephdr.o)
 .bss           0x00000000006c35b0        0x0 /work/glibc-obj/libc.a(enbl-secure.o)
 .bss           0x00000000006c35b0        0x0 /work/glibc-obj/libc.a(dl-profstub.o)
 .bss           0x00000000006c35b0        0x0 /work/glibc-obj/libc.a(dl-sysdep.o)
 .bss           0x00000000006c35b0        0x0 /work/glibc-obj/libc.a(dl-error.o)
 .bss           0x00000000006c35b0        0x0 /work/glibc-obj/libc.a(init-first.o)
 .bss           0x00000000006c35b0        0x0 /work/glibc-obj/libc.a(sysdep.o)
 .bss           0x00000000006c35b0        0x0 /work/glibc-obj/libc.a(gconv_open.o)
 .bss           0x00000000006c35b0        0x0 /work/glibc-obj/libc.a(gconv.o)
 .bss           0x00000000006c35b0        0x0 /work/glibc-obj/libc.a(gconv_close.o)
 .bss           0x00000000006c35b0       0x10 /work/glibc-obj/libc.a(gconv_db.o)
 .bss           0x00000000006c35c0        0x8 /work/glibc-obj/libc.a(gconv_conf.o)
 .bss           0x00000000006c35c8        0x0 /work/glibc-obj/libc.a(gconv_builtin.o)
 .bss           0x00000000006c35c8        0x0 /work/glibc-obj/libc.a(gconv_simple.o)
 .bss           0x00000000006c35c8        0x0 /work/glibc-obj/libc.a(gconv_trans.o)
 .bss           0x00000000006c35c8       0x18 /work/glibc-obj/libc.a(gconv_cache.o)
 .bss           0x00000000006c35e0       0x10 /work/glibc-obj/libc.a(gconv_dl.o)
 *fill*         0x00000000006c35f0       0x10 
 .bss           0x00000000006c3600       0x38 /work/glibc-obj/libc.a(setlocale.o)
                0x00000000006c3600                __libc_setlocale_lock
 .bss           0x00000000006c3638        0x0 /work/glibc-obj/libc.a(findlocale.o)
 .bss           0x00000000006c3638        0x0 /work/glibc-obj/libc.a(loadlocale.o)
 *fill*         0x00000000006c3638        0x8 
 .bss           0x00000000006c3640       0xd0 /work/glibc-obj/libc.a(loadarchive.o)
 .bss           0x00000000006c3710        0x0 /work/glibc-obj/libc.a(lc-ctype.o)
 .bss           0x00000000006c3710        0x0 /work/glibc-obj/libc.a(C-ctype.o)
 .bss           0x00000000006c3710        0x0 /work/glibc-obj/libc.a(SYS_libc.o)
 .bss           0x00000000006c3710        0x0 /work/glibc-obj/libc.a(C_name.o)
 .bss           0x00000000006c3710        0x0 /work/glibc-obj/libc.a(xlocale.o)
 .bss           0x00000000006c3710        0x0 /work/glibc-obj/libc.a(localename.o)
 .bss           0x00000000006c3710        0x0 /work/glibc-obj/libc.a(global-locale.o)
 .bss           0x00000000006c3710        0x0 /work/glibc-obj/libc.a(setfpucw.o)
 .bss           0x00000000006c3710        0x0 /work/glibc-obj/libc.a(fpu_control.o)
 .bss           0x00000000006c3710        0x0 /work/glibc-obj/libc.a(setjmp.o)
 .bss           0x00000000006c3710        0x0 /work/glibc-obj/libc.a(sigjmp.o)
 .bss           0x00000000006c3710        0x0 /work/glibc-obj/libc.a(qsort.o)
 .bss           0x00000000006c3710       0x14 /work/glibc-obj/libc.a(setenv.o)
 .bss           0x00000000006c3724        0x0 /work/glibc-obj/libc.a(secure-getenv.o)
 .bss           0x00000000006c3724        0x0 /work/glibc-obj/libc.a(strtol.o)
 .bss           0x00000000006c3724        0x0 /work/glibc-obj/libc.a(strtol_l.o)
 .bss           0x00000000006c3724        0x0 /work/glibc-obj/libc.a(vfprintf.o)
 .bss           0x00000000006c3724        0x0 /work/glibc-obj/libc.a(printf_fp.o)
 .bss           0x00000000006c3724        0x4 /work/glibc-obj/libc.a(reg-printf.o)
 .bss           0x00000000006c3728        0x0 /work/glibc-obj/libc.a(printf_fphex.o)
 .bss           0x00000000006c3728        0x8 /work/glibc-obj/libc.a(reg-modifier.o)
 .bss           0x00000000006c3730        0x4 /work/glibc-obj/libc.a(reg-type.o)
 .bss           0x00000000006c3734        0x0 /work/glibc-obj/libc.a(vfwprintf.o)
 .bss           0x00000000006c3734        0x0 /work/glibc-obj/libc.a(funlockfile.o)
 .bss           0x00000000006c3734        0x0 /work/glibc-obj/libc.a(printf-parsemb.o)
 .bss           0x00000000006c3734        0x0 /work/glibc-obj/libc.a(printf-parsewc.o)
 .bss           0x00000000006c3734        0x0 /work/glibc-obj/libc.a(filedoalloc.o)
 .bss           0x00000000006c3734        0x0 /work/glibc-obj/libc.a(iofputs.o)
 .bss           0x00000000006c3734        0x0 /work/glibc-obj/libc.a(wfiledoalloc.o)
 .bss           0x00000000006c3734        0x0 /work/glibc-obj/libc.a(iogetdelim.o)
 .bss           0x00000000006c3734        0x0 /work/glibc-obj/libc.a(iogetline.o)
 .bss           0x00000000006c3734        0x0 /work/glibc-obj/libc.a(iopadn.o)
 .bss           0x00000000006c3734        0x0 /work/glibc-obj/libc.a(iowpadn.o)
 .bss           0x00000000006c3734        0x0 /work/glibc-obj/libc.a(wgenops.o)
 .bss           0x00000000006c3734        0x0 /work/glibc-obj/libc.a(iofwide.o)
 .bss           0x00000000006c3734        0x0 /work/glibc-obj/libc.a(scratch_buffer_grow_preserve.o)
 .bss           0x00000000006c3734        0x0 /work/glibc-obj/libc.a(scratch_buffer_set_array_size.o)
 .bss           0x00000000006c3734        0x0 /work/glibc-obj/libc.a(dynarray_at_failure.o)
 .bss           0x00000000006c3734        0x0 /work/glibc-obj/libc.a(dynarray_emplace_enlarge.o)
 .bss           0x00000000006c3734        0x0 /work/glibc-obj/libc.a(alloc_buffer_alloc_array.o)
 .bss           0x00000000006c3734        0x0 /work/glibc-obj/libc.a(alloc_buffer_allocate.o)
 .bss           0x00000000006c3734        0x0 /work/glibc-obj/libc.a(alloc_buffer_copy_string.o)
 .bss           0x00000000006c3734        0x0 /work/glibc-obj/libc.a(alloc_buffer_create_failure.o)
 .bss           0x00000000006c3734        0x0 /work/glibc-obj/libc.a(strndup.o)
 .bss           0x00000000006c3734        0x0 /work/glibc-obj/libc.a(_strerror.o)
 .bss           0x00000000006c3734        0x0 /work/glibc-obj/libc.a(strnlen.o)
 .bss           0x00000000006c3734        0x0 /work/glibc-obj/libc.a(strrchr.o)
 .bss           0x00000000006c3734        0x0 /work/glibc-obj/libc.a(strtok_r.o)
 .bss           0x00000000006c3734        0x0 /work/glibc-obj/libc.a(memmem.o)
 .bss           0x00000000006c3734        0x0 /work/glibc-obj/libc.a(argz-ctsep.o)
 .bss           0x00000000006c3734        0x0 /work/glibc-obj/libc.a(argz-addsep.o)
 .bss           0x00000000006c3734        0x0 /work/glibc-obj/libc.a(strrchr-sse2.o)
 .bss           0x00000000006c3734        0x0 /work/glibc-obj/libc.a(strrchr-avx2.o)
 .bss           0x00000000006c3734        0x0 /work/glibc-obj/libc.a(strnlen-sse2.o)
 .bss           0x00000000006c3734        0x0 /work/glibc-obj/libc.a(strnlen-avx2.o)
 .bss           0x00000000006c3734        0x0 /work/glibc-obj/libc.a(wcslen.o)
 .bss           0x00000000006c3734        0x0 /work/glibc-obj/libc.a(wmemcpy.o)
 .bss           0x00000000006c3734        0x0 /work/glibc-obj/libc.a(wmemmove.o)
 .bss           0x00000000006c3734        0x0 /work/glibc-obj/libc.a(wmemset.o)
 .bss           0x00000000006c3734        0x0 /work/glibc-obj/libc.a(btowc.o)
 *fill*         0x00000000006c3734        0x4 
 .bss           0x00000000006c3738        0x8 /work/glibc-obj/libc.a(wcrtomb.o)
 .bss           0x00000000006c3740        0x8 /work/glibc-obj/libc.a(wcsrtombs.o)
 .bss           0x00000000006c3748        0x0 /work/glibc-obj/libc.a(wcsnlen.o)
 .bss           0x00000000006c3748        0x0 /work/glibc-obj/libc.a(wcschrnul.o)
 .bss           0x00000000006c3748        0x0 /work/glibc-obj/libc.a(wcsnlen-sse4_1.o)
 .bss           0x00000000006c3748        0x0 /work/glibc-obj/libc.a(wcsnlen-c.o)
 .bss           0x00000000006c3748        0x0 /work/glibc-obj/libc.a(wcslen-sse2.o)
 .bss           0x00000000006c3748        0x0 /work/glibc-obj/libc.a(wcslen-avx2.o)
 .bss           0x00000000006c3748        0x0 /work/glibc-obj/libc.a(wcsnlen-avx2.o)
 .bss           0x00000000006c3748        0x0 /work/glibc-obj/libc.a(time.o)
 .bss           0x00000000006c3748        0x0 /work/glibc-obj/libc.a(opendir.o)
 .bss           0x00000000006c3748        0x0 /work/glibc-obj/libc.a(closedir.o)
 .bss           0x00000000006c3748        0x0 /work/glibc-obj/libc.a(readdir.o)
 .bss           0x00000000006c3748        0x0 /work/glibc-obj/libc.a(rewinddir.o)
 .bss           0x00000000006c3748        0x0 /work/glibc-obj/libc.a(getdents.o)
 .bss           0x00000000006c3748        0x0 /work/glibc-obj/libc.a(fdopendir.o)
 .bss           0x00000000006c3748        0x0 /work/glibc-obj/libc.a(uname.o)
 .bss           0x00000000006c3748        0x0 /work/glibc-obj/libc.a(getuid.o)
 .bss           0x00000000006c3748        0x0 /work/glibc-obj/libc.a(geteuid.o)
 .bss           0x00000000006c3748        0x0 /work/glibc-obj/libc.a(getgid.o)
 .bss           0x00000000006c3748        0x0 /work/glibc-obj/libc.a(getegid.o)
 .bss           0x00000000006c3748        0x0 /work/glibc-obj/libc.a(lxstat.o)
 .bss           0x00000000006c3748        0x0 /work/glibc-obj/libc.a(fxstatat.o)
 .bss           0x00000000006c3748        0x0 /work/glibc-obj/libc.a(openat64.o)
 .bss           0x00000000006c3748        0x0 /work/glibc-obj/libc.a(isatty.o)
 .bss           0x00000000006c3748        0x0 /work/glibc-obj/libc.a(tcgetattr.o)
 .bss           0x00000000006c3748        0x8 /work/glibc-obj/libc.a(brk.o)
                0x00000000006c3748                __curbrk
 .bss           0x00000000006c3750        0x0 /work/glibc-obj/libc.a(wctrans.o)
 .bss           0x00000000006c3750        0x0 /work/glibc-obj/libc.a(towctrans.o)
 .bss           0x00000000006c3750        0x0 /work/glibc-obj/libc.a(readonly-area.o)
 .bss           0x00000000006c3750        0x0 /work/glibc-obj/libc.a(res_init.o)
 .bss           0x00000000006c3750        0x8 /work/glibc-obj/libc.a(res_hconf.o)
 .bss           0x00000000006c3758        0x8 /work/glibc-obj/libc.a(dl-load.o)
 .bss           0x00000000006c3760        0x0 /work/glibc-obj/libc.a(dl-lookup.o)
 .bss           0x00000000006c3760        0x0 /work/glibc-obj/libc.a(dl-object.o)
 .bss           0x00000000006c3760        0x0 /work/glibc-obj/libc.a(dl-reloc.o)
 .bss           0x00000000006c3760        0x0 /work/glibc-obj/libc.a(dl-hwcaps.o)
 .bss           0x00000000006c3760        0x0 /work/glibc-obj/libc.a(dl-misc.o)
 .bss           0x00000000006c3760       0x48 /work/glibc-obj/libc.a(dl-profile.o)
 .bss           0x00000000006c37a8        0x0 /work/glibc-obj/libc.a(dl-origin.o)
 .bss           0x00000000006c37a8        0x0 /work/glibc-obj/libc.a(dl-scope.o)
 .bss           0x00000000006c37a8        0x0 /work/glibc-obj/libc.a(dl-trampoline.o)
 .bss           0x00000000006c37a8        0x0 /work/glibc-obj/libc.a(dl-exception.o)
 .bss           0x00000000006c37a8       0x18 /work/glibc-obj/libc.a(dl-cache.o)
 .bss           0x00000000006c37c0        0x0 /work/glibc-obj/libc.a(dl-tlsdesc.o)
 .bss           0x00000000006c37c0        0x0 /work/glibc-obj/libc.a(dl-libc.o)
 .bss           0x00000000006c37c0        0x0 /work/glibc-obj/libc.a(lc-monetary.o)
 .bss           0x00000000006c37c0        0x0 /work/glibc-obj/libc.a(lc-numeric.o)
 .bss           0x00000000006c37c0        0x0 /work/glibc-obj/libc.a(C-messages.o)
 .bss           0x00000000006c37c0        0x0 /work/glibc-obj/libc.a(C-monetary.o)
 .bss           0x00000000006c37c0        0x0 /work/glibc-obj/libc.a(C-numeric.o)
 .bss           0x00000000006c37c0        0x0 /work/glibc-obj/libc.a(C-time.o)
 .bss           0x00000000006c37c0        0x0 /work/glibc-obj/libc.a(C-paper.o)
 .bss           0x00000000006c37c0        0x0 /work/glibc-obj/libc.a(C-name.o)
 .bss           0x00000000006c37c0        0x0 /work/glibc-obj/libc.a(C-address.o)
 .bss           0x00000000006c37c0        0x0 /work/glibc-obj/libc.a(C-telephone.o)
 .bss           0x00000000006c37c0        0x0 /work/glibc-obj/libc.a(C-measurement.o)
 .bss           0x00000000006c37c0        0x0 /work/glibc-obj/libc.a(C-identification.o)
 .bss           0x00000000006c37c0        0x0 /work/glibc-obj/libc.a(C-collate.o)
 .bss           0x00000000006c37c0        0x0 /work/glibc-obj/libc.a(cmp.o)
 .bss           0x00000000006c37c0        0x0 /work/glibc-obj/libc.a(divrem.o)
 .bss           0x00000000006c37c0        0x0 /work/glibc-obj/libc.a(lshift.o)
 .bss           0x00000000006c37c0        0x0 /work/glibc-obj/libc.a(rshift.o)
 .bss           0x00000000006c37c0        0x0 /work/glibc-obj/libc.a(mul.o)
 .bss           0x00000000006c37c0        0x0 /work/glibc-obj/libc.a(mul_1.o)
 .bss           0x00000000006c37c0        0x0 /work/glibc-obj/libc.a(mul_n.o)
 .bss           0x00000000006c37c0        0x0 /work/glibc-obj/libc.a(sub_n.o)
 .bss           0x00000000006c37c0        0x0 /work/glibc-obj/libc.a(submul_1.o)
 .bss           0x00000000006c37c0        0x0 /work/glibc-obj/libc.a(dbl2mpn.o)
 .bss           0x00000000006c37c0        0x0 /work/glibc-obj/libc.a(ldbl2mpn.o)
 .bss           0x00000000006c37c0        0x0 /work/glibc-obj/libc.a(float1282mpn.o)
 .bss           0x00000000006c37c0        0x0 /work/glibc-obj/libc.a(fpioconst.o)
 .bss           0x00000000006c37c0        0x0 /work/glibc-obj/libc.a(_itoa.o)
 .bss           0x00000000006c37c0        0x0 /work/glibc-obj/libc.a(itoa-digits.o)
 .bss           0x00000000006c37c0        0x0 /work/glibc-obj/libc.a(itoa-udigits.o)
 .bss           0x00000000006c37c0        0x0 /work/glibc-obj/libc.a(itowa-digits.o)
 .bss           0x00000000006c37c0        0x0 /work/glibc-obj/libc.a(snprintf.o)
 .bss           0x00000000006c37c0        0x0 /work/glibc-obj/libc.a(getline.o)
 .bss           0x00000000006c37c0        0x0 /work/glibc-obj/libc.a(errlist.o)
 .bss           0x00000000006c37c0        0x0 /work/glibc-obj/libc.a(vsnprintf.o)
 .bss           0x00000000006c37c0       0x40 /work/glibc-obj/libc.a(sdlerror.o)
 .bss           0x00000000006c3800        0x0 /work/glibc-obj/libc.a(sdladdr.o)
 .bss           0x00000000006c3800        0x0 /work/glibc-obj/libc.a(sdladdr1.o)
 .bss           0x00000000006c3800        0x0 /work/glibc-obj/libc.a(sdlinfo.o)
 .bss           0x00000000006c3800        0x0 /work/glibc-obj/libc.a(sdlmopen.o)
 .bss           0x00000000006c3800        0x0 /work/glibc-obj/libc.a(alloc_buffer_copy_bytes.o)
 .bss           0x00000000006c3800        0x0 /work/glibc-obj/libc.a(strerror.o)
 .bss           0x00000000006c3800        0x0 /work/glibc-obj/libc.a(strpbrk.o)
 .bss           0x00000000006c3800        0x0 /work/glibc-obj/libc.a(strspn.o)
 .bss           0x00000000006c3800        0x0 /work/glibc-obj/libc.a(strcasecmp.o)
 .bss           0x00000000006c3800        0x0 /work/glibc-obj/libc.a(strncase.o)
 .bss           0x00000000006c3800        0x0 /work/glibc-obj/libc.a(strsep.o)
 .bss           0x00000000006c3800        0x0 /work/glibc-obj/libc.a(strncase_l-sse2.o)
 .bss           0x00000000006c3800        0x0 /work/glibc-obj/libc.a(strncase_l-ssse3.o)
 .bss           0x00000000006c3800        0x0 /work/glibc-obj/libc.a(strncase_l-sse4_2.o)
 .bss           0x00000000006c3800        0x0 /work/glibc-obj/libc.a(strncase_l-avx.o)
 .bss           0x00000000006c3800        0x0 /work/glibc-obj/libc.a(strpbrk-sse2.o)
 .bss           0x00000000006c3800        0x0 /work/glibc-obj/libc.a(strspn-sse2.o)
 .bss           0x00000000006c3800        0x0 /work/glibc-obj/libc.a(strpbrk-c.o)
 .bss           0x00000000006c3800        0x0 /work/glibc-obj/libc.a(strspn-c.o)
 .bss           0x00000000006c3800        0x0 /work/glibc-obj/libc.a(strncase_l-nonascii.o)
 .bss           0x00000000006c3800        0x0 /work/glibc-obj/libc.a(ioctl.o)
 .bss           0x00000000006c3800        0x0 /work/glibc-obj/libc.a(gethostname.o)
 .bss           0x00000000006c3800        0x0 /work/glibc-obj/libc.a(socket.o)
 .bss           0x00000000006c3800       0xe0 /work/glibc-obj/libc.a(profil.o)
 .bss           0x00000000006c38e0        0x0 /work/glibc-obj/libc.a(prof-freq.o)
 .bss           0x00000000006c38e0        0x0 /work/glibc-obj/libc.a(inet_mkadr.o)
 .bss           0x00000000006c38e0        0x0 /work/glibc-obj/libc.a(inet6_scopeid_pton.o)
 .bss           0x00000000006c38e0        0x0 /work/glibc-obj/libc.a(ifreq.o)
 .bss           0x00000000006c38e0        0x0 /work/glibc-obj/libc.a(inet_addr.o)
 .bss           0x00000000006c38e0        0x0 /work/glibc-obj/libc.a(inet_pton.o)
 .bss           0x00000000006c38e0        0x0 /work/glibc-obj/libc.a(dl-runtime.o)
 .bss           0x00000000006c38e0        0x0 /work/glibc-obj/libc.a(dl-open.o)
 .bss           0x00000000006c38e0        0x4 /work/glibc-obj/libc.a(dl-close.o)
 .bss           0x00000000006c38e4        0x0 /work/glibc-obj/libc.a(dl-sort-maps.o)
 .bss           0x00000000006c38e4        0x0 /work/glibc-obj/libc.a(tlsdesc.o)
 .bss           0x00000000006c38e4        0x0 /work/glibc-obj/libc.a(dl-addr.o)
 .bss           0x00000000006c38e4        0x0 /work/glibc-obj/libc.a(dl-addr-obj.o)
 .bss           0x00000000006c38e4        0x0 /work/glibc-obj/libc.a(add_n.o)
 .bss           0x00000000006c38e4        0x0 /work/glibc-obj/libc.a(addmul_1.o)
 .bss           0x00000000006c38e4        0x0 /work/glibc-obj/libc.a(sdlopen.o)
 .bss           0x00000000006c38e4        0x0 /work/glibc-obj/libc.a(sdlclose.o)
 .bss           0x00000000006c38e4        0x0 /work/glibc-obj/libc.a(sdlsym.o)
 .bss           0x00000000006c38e4        0x0 /work/glibc-obj/libc.a(sdlvsym.o)
 .bss           0x00000000006c38e4        0x0 /work/glibc-obj/libc.a(setitimer.o)
 .bss           0x00000000006c38e4        0x8 /work/glibc-obj/libc.a(opensock.o)
 .bss           0x00000000006c38ec        0x0 /work/glibc-obj/libc.a(if_index.o)
 .bss           0x00000000006c38ec        0x0 /work/glibc-obj/libc.a(ifaddrs.o)
 .bss           0x00000000006c38ec        0x0 /work/glibc-obj/libc.a(netlink_assert_response.o)
 .bss           0x00000000006c38ec        0x0 /work/glibc-obj/libc.a(dl-deps.o)
 .bss           0x00000000006c38ec        0x0 /work/glibc-obj/libc.a(dl-init.o)
 .bss           0x00000000006c38ec        0x0 /work/glibc-obj/libc.a(dl-version.o)
 .bss           0x00000000006c38ec        0x0 /work/glibc-obj/libc.a(dl-sym.o)
 .bss           0x00000000006c38ec        0x0 /work/glibc-obj/libc.a(strncpy.o)
 .bss           0x00000000006c38ec        0x0 /work/glibc-obj/libc.a(strncpy-c.o)
 .bss           0x00000000006c38ec        0x0 /work/glibc-obj/libc.a(strncpy-ssse3.o)
 .bss           0x00000000006c38ec        0x0 /work/glibc-obj/libc.a(strncpy-sse2-unaligned.o)
 .bss           0x00000000006c38ec        0x0 /work/glibc-obj/libc.a(access.o)
 .bss           0x00000000006c38ec        0x0 /work/glibc-obj/libc.a(bind.o)
 .bss           0x00000000006c38ec        0x0 /work/glibc-obj/libc.a(getsockname.o)
 .bss           0x00000000006c38ec        0x0 /work/glibc-obj/libc.a(recvmsg.o)
 .bss           0x00000000006c38ec        0x0 /work/glibc-obj/libc.a(sendto.o)
 .bss           0x00000000006c38ec        0x0 /usr/lib/gcc/x86_64-redhat-linux/8//libgcc.a(unordtf2.o)
 .bss           0x00000000006c38ec        0x0 /usr/lib/gcc/x86_64-redhat-linux/8//libgcc.a(letf2.o)
 .bss           0x00000000006c38ec        0x0 /usr/lib/gcc/x86_64-redhat-linux/8//libgcc.a(sfp-exceptions.o)
 .bss           0x00000000006c38ec        0x0 /usr/lib/gcc/x86_64-redhat-linux/8//libgcc_eh.a(unwind-c.o)
 .bss           0x00000000006c38ec        0x0 /usr/lib/gcc/x86_64-redhat-linux/8/crtend.o
 .bss           0x00000000006c38ec        0x0 /work/glibc-obj/csu/crtn.o
 *(COMMON)
 COMMON         0x00000000006c38ec        0x4 /work/glibc-obj/nptl/libpthread.a(pthread_create.o)
                0x00000000006c38ec                __pthread_debug
 COMMON         0x00000000006c38f0        0x8 /work/glibc-obj/nptl/libpthread.a(pthread_once.o)
                0x00000000006c38f0                __fork_generation
 COMMON         0x00000000006c38f8       0x20 /work/glibc-obj/nptl/libpthread.a(nptl-init.o)
                0x00000000006c38f8                __static_tls_align_m1
                0x00000000006c3900                __static_tls_size
                0x00000000006c3908                __libc_multiple_threads_ptr
                0x00000000006c3910                __xidcmd
 *fill*         0x00000000006c3918        0x8 
 COMMON         0x00000000006c3920       0x58 /work/glibc-obj/nptl/libpthread.a(vars.o)
                0x00000000006c3920                __is_smp
                0x00000000006c3924                __pthread_multiple_threads
                0x00000000006c3940                __default_pthread_attr
 *fill*         0x00000000006c3978        0x8 
 COMMON         0x00000000006c3980      0x440 /work/glibc-obj/libc.a(libc-tls.o)
                0x00000000006c3980                _dl_tls_static_used
                0x00000000006c3988                _dl_tls_static_align
                0x00000000006c3990                _dl_tls_max_dtv_idx
                0x00000000006c39a0                _dl_static_dtv
                0x00000000006c3da0                _dl_tls_dtv_slotinfo_list
                0x00000000006c3da8                _dl_tls_dtv_gaps
                0x00000000006c3db0                _dl_tls_generation
                0x00000000006c3db8                _dl_tls_static_nelem
 COMMON         0x00000000006c3dc0        0x8 /work/glibc-obj/libc.a(dcigettext.o)
                0x00000000006c3dc0                _nl_domain_bindings
 COMMON         0x00000000006c3dc8        0x4 /work/glibc-obj/libc.a(loadmsgcat.o)
                0x00000000006c3dc8                _nl_msg_cat_cntr
 *fill*         0x00000000006c3dcc        0x4 
 COMMON         0x00000000006c3dd0       0x10 /work/glibc-obj/libc.a(cxa_atexit.o)
                0x00000000006c3dd0                __exit_funcs_lock
                0x00000000006c3dd8                __new_exitfn_called
 COMMON         0x00000000006c3de0        0xc /work/glibc-obj/libc.a(cacheinfo.o)
                0x00000000006c3de0                __x86_shared_non_temporal_threshold
                0x00000000006c3de8                __x86_prefetchw
 *fill*         0x00000000006c3dec        0x4 
 COMMON         0x00000000006c3df0        0x8 /work/glibc-obj/libc.a(libc_pthread_init.o)
                0x00000000006c3df0                __fork_generation_pointer
 COMMON         0x00000000006c3df8        0x4 /work/glibc-obj/libc.a(libc_multiple_threads.o)
                0x00000000006c3df8                __libc_multiple_threads
 *fill*         0x00000000006c3dfc        0x4 
 COMMON         0x00000000006c3e00        0x8 /work/glibc-obj/libc.a(register-atfork.o)
                0x00000000006c3e00                __fork_handlers
 *fill*         0x00000000006c3e08       0x18 
 COMMON         0x00000000006c3e20       0x28 /work/glibc-obj/libc.a(dl-debug.o)
                0x00000000006c3e20                _r_debug
 COMMON         0x00000000006c3e48       0xc8 /work/glibc-obj/libc.a(dl-support.o)
                0x00000000006c3e48                _dl_profile_output
                0x00000000006c3e50                _dl_platformlen
                0x00000000006c3e58                _dl_debug_mask
                0x00000000006c3e60                _dl_wait_lookup_done
                0x00000000006c3e68                _dl_profile
                0x00000000006c3e70                _dl_cpuclock_offset
                0x00000000006c3e78                _dl_bind_not
                0x00000000006c3e80                _dl_auxv
                0x00000000006c3e88                _dl_platform
                0x00000000006c3e90                _dl_lazy
                0x00000000006c3e98                _dl_sysinfo_map
                0x00000000006c3ea0                _dl_inhibit_cache
                0x00000000006c3ea8                _dl_phdr
                0x00000000006c3eb0                _dl_scope_free_list
                0x00000000006c3eb8                _dl_origin_path
                0x00000000006c3ec0                _dl_clktck
                0x00000000006c3ec4                _dl_dynamic_weak
                0x00000000006c3ec8                _dl_sysinfo_dso
                0x00000000006c3ed0                _dl_init_all_dirs
                0x00000000006c3ed8                _dl_verbose
                0x00000000006c3ee0                _dl_phnum
                0x00000000006c3ee8                _dl_profile_map
                0x00000000006c3ef0                _dl_initfirst
                0x00000000006c3ef8                _dl_all_dirs
                0x00000000006c3f00                _dl_osversion
                0x00000000006c3f08                _dl_inhibit_rpath
 COMMON         0x00000000006c3f10        0x4 /work/glibc-obj/libc.a(enbl-secure.o)
                0x00000000006c3f10                __libc_enable_secure_decided
 *fill*         0x00000000006c3f14        0x4 
 COMMON         0x00000000006c3f18       0x10 /work/glibc-obj/libc.a(init-first.o)
                0x00000000006c3f18                __libc_argc
                0x00000000006c3f20                __libc_argv
 COMMON         0x00000000006c3f28       0x18 /work/glibc-obj/libc.a(gconv_db.o)
                0x00000000006c3f28                __gconv_modules_db
                0x00000000006c3f30                __gconv_lock
                0x00000000006c3f38                __gconv_alias_db
 COMMON         0x00000000006c3f40       0x18 /work/glibc-obj/libc.a(gconv_conf.o)
                0x00000000006c3f40                __gconv_path_envvar
                0x00000000006c3f48                __gconv_max_path_elem_len
                0x00000000006c3f50                __gconv_path_elem
 *fill*         0x00000000006c3f58        0x8 
 COMMON         0x00000000006c3f60       0x68 /work/glibc-obj/libc.a(findlocale.o)
                0x00000000006c3f60                _nl_locale_file_list
 COMMON         0x00000000006c3fc8        0x8 /work/glibc-obj/libc.a(reg-printf.o)
                0x00000000006c3fc8                __printf_function_table
 COMMON         0x00000000006c3fd0        0x8 /work/glibc-obj/libc.a(reg-modifier.o)
                0x00000000006c3fd0                __printf_modifier_table
 *fill*         0x00000000006c3fd8        0x8 
 COMMON         0x00000000006c3fe0       0x48 /work/glibc-obj/libc.a(res_hconf.o)
                0x00000000006c3fe0                _res_hconf
                0x00000000006c4028                . = ALIGN ((. != 0x0)?0x8:0x1)

__libc_freeres_ptrs
                0x00000000006c4028       0x30
 __libc_freeres_ptrs
                0x00000000006c4028       0x10 /work/glibc-obj/libc.a(localealias.o)
 __libc_freeres_ptrs
                0x00000000006c4038        0x8 /work/glibc-obj/libc.a(reg-printf.o)
                0x00000000006c4038                __printf_arginfo_table
 __libc_freeres_ptrs
                0x00000000006c4040        0x8 /work/glibc-obj/libc.a(reg-type.o)
                0x00000000006c4040                __printf_va_arg_table
 __libc_freeres_ptrs
                0x00000000006c4048        0x8 /work/glibc-obj/libc.a(res_hconf.o)
 __libc_freeres_ptrs
                0x00000000006c4050        0x8 /work/glibc-obj/libc.a(strerror.o)

.lbss
 *(.dynlbss)
 *(.lbss .lbss.* .gnu.linkonce.lb.*)
 *(LARGE_COMMON)
                0x00000000006c4058                . = ALIGN (0x8)
                0x00000000006c4058                . = SEGMENT_START ("ldata-segment", .)

.lrodata
 *(.lrodata .lrodata.* .gnu.linkonce.lr.*)

.ldata          0x0000000000ac4058        0x0
 *(.ldata .ldata.* .gnu.linkonce.l.*)
                0x0000000000ac4058                . = ALIGN ((. != 0x0)?0x8:0x1)
                0x0000000000ac4058                . = ALIGN (0x8)
                0x0000000000ac4058                _end = .
                [!provide]                        PROVIDE (end, .)
                0x0000000000ac4058                . = DATA_SEGMENT_END (.)

.stab
 *(.stab)

.stabstr
 *(.stabstr)

.stab.excl
 *(.stab.excl)

.stab.exclstr
 *(.stab.exclstr)

.stab.index
 *(.stab.index)

.stab.indexstr
 *(.stab.indexstr)

.comment        0x0000000000000000       0x2c
 *(.comment)
 .comment       0x0000000000000000       0x2c /work/glibc-obj/csu/crt1.o
                                         0x5a (size before relaxing)
 .comment       0x000000000000002c       0x2d /usr/lib/gcc/x86_64-redhat-linux/8/crtbeginT.o
 .comment       0x000000000000002c       0x2d threads.o
 .comment       0x000000000000002c       0x2d /work/glibc-obj/nptl/libpthread.a(pthread_create.o)
 .comment       0x000000000000002c       0x2d /work/glibc-obj/nptl/libpthread.a(pthread_join.o)
 .comment       0x000000000000002c       0x2d /work/glibc-obj/nptl/libpthread.a(pthread_join_common.o)
 .comment       0x000000000000002c       0x2d /work/glibc-obj/nptl/libpthread.a(pthread_mutex_lock.o)
 .comment       0x000000000000002c       0x2d /work/glibc-obj/nptl/libpthread.a(pthread_mutex_trylock.o)
 .comment       0x000000000000002c       0x2d /work/glibc-obj/nptl/libpthread.a(pthread_mutex_unlock.o)
 .comment       0x000000000000002c       0x2d /work/glibc-obj/nptl/libpthread.a(pthread_key_create.o)
 .comment       0x000000000000002c       0x2d /work/glibc-obj/nptl/libpthread.a(pthread_key_delete.o)
 .comment       0x000000000000002c       0x2d /work/glibc-obj/nptl/libpthread.a(pthread_getspecific.o)
 .comment       0x000000000000002c       0x2d /work/glibc-obj/nptl/libpthread.a(pthread_setspecific.o)
 .comment       0x000000000000002c       0x2d /work/glibc-obj/nptl/libpthread.a(pthread_cancel.o)
 .comment       0x000000000000002c       0x2d /work/glibc-obj/nptl/libpthread.a(pthread_once.o)
 .comment       0x000000000000002c       0x2d /work/glibc-obj/nptl/libpthread.a(cleanup_compat.o)
 .comment       0x000000000000002c       0x2d /work/glibc-obj/nptl/libpthread.a(pause.o)
 .comment       0x000000000000002c       0x2d /work/glibc-obj/nptl/libpthread.a(tpp.o)
 .comment       0x000000000000002c       0x2d /work/glibc-obj/nptl/libpthread.a(elision-lock.o)
 .comment       0x000000000000002c       0x2d /work/glibc-obj/nptl/libpthread.a(elision-unlock.o)
 .comment       0x000000000000002c       0x2d /work/glibc-obj/nptl/libpthread.a(elision-trylock.o)
 .comment       0x000000000000002c       0x2d /work/glibc-obj/nptl/libpthread.a(nptl-init.o)
 .comment       0x000000000000002c       0x2d /work/glibc-obj/nptl/libpthread.a(vars.o)
 .comment       0x000000000000002c       0x2d /work/glibc-obj/nptl/libpthread.a(events.o)
 .comment       0x000000000000002c       0x2d /work/glibc-obj/nptl/libpthread.a(unwind.o)
 .comment       0x000000000000002c       0x2d /work/glibc-obj/nptl/libpthread.a(sigaction.o)
 .comment       0x000000000000002c       0x2d /usr/lib/gcc/x86_64-redhat-linux/8//libgcc_eh.a(unwind-dw2.o)
 .comment       0x000000000000002c       0x2d /usr/lib/gcc/x86_64-redhat-linux/8//libgcc_eh.a(unwind-dw2-fde-dip.o)
 .comment       0x000000000000002c       0x2d /work/glibc-obj/libc.a(libc-start.o)
 .comment       0x000000000000002c       0x2d /work/glibc-obj/libc.a(check_fds.o)
 .comment       0x000000000000002c       0x2d /work/glibc-obj/libc.a(libc-tls.o)
 .comment       0x000000000000002c       0x2d /work/glibc-obj/libc.a(elf-init.o)
 .comment       0x000000000000002c       0x2d /work/glibc-obj/libc.a(errno.o)
 .comment       0x000000000000002c       0x2d /work/glibc-obj/libc.a(assert.o)
 .comment       0x000000000000002c       0x2d /work/glibc-obj/libc.a(ctype-info.o)
 .comment       0x000000000000002c       0x2d /work/glibc-obj/libc.a(dcgettext.o)
 .comment       0x000000000000002c       0x2d /work/glibc-obj/libc.a(dcigettext.o)
 .comment       0x000000000000002c       0x2d /work/glibc-obj/libc.a(finddomain.o)
 .comment       0x000000000000002c       0x2d /work/glibc-obj/libc.a(loadmsgcat.o)
 .comment       0x000000000000002c       0x2d /work/glibc-obj/libc.a(localealias.o)
 .comment       0x000000000000002c       0x2d /work/glibc-obj/libc.a(l10nflist.o)
 .comment       0x000000000000002c       0x2d /work/glibc-obj/libc.a(explodename.o)
 .comment       0x000000000000002c       0x2d /work/glibc-obj/libc.a(plural.o)
 .comment       0x000000000000002c       0x2d /work/glibc-obj/libc.a(plural-exp.o)
 .comment       0x000000000000002c       0x2d /work/glibc-obj/libc.a(hash-string.o)
 .comment       0x000000000000002c       0x2d /work/glibc-obj/libc.a(longjmp.o)
 .comment       0x000000000000002c       0x2d /work/glibc-obj/libc.a(jmp-unwind.o)
 .comment       0x000000000000002c       0x2d /work/glibc-obj/libc.a(raise.o)
 .comment       0x000000000000002c       0x2d /work/glibc-obj/libc.a(sigprocmask.o)
 .comment       0x000000000000002c       0x2d /work/glibc-obj/libc.a(abort.o)
 .comment       0x000000000000002c       0x2d /work/glibc-obj/libc.a(msort.o)
 .comment       0x000000000000002c       0x2d /work/glibc-obj/libc.a(getenv.o)
 .comment       0x000000000000002c       0x2d /work/glibc-obj/libc.a(exit.o)
 .comment       0x000000000000002c       0x2d /work/glibc-obj/libc.a(cxa_atexit.o)
 .comment       0x000000000000002c       0x2d /work/glibc-obj/libc.a(strtoul.o)
 .comment       0x000000000000002c       0x2d /work/glibc-obj/libc.a(strtoul_l.o)
 .comment       0x000000000000002c       0x2d /work/glibc-obj/libc.a(grouping.o)
 .comment       0x000000000000002c       0x2d /work/glibc-obj/libc.a(fprintf.o)
 .comment       0x000000000000002c       0x2d /work/glibc-obj/libc.a(asprintf.o)
 .comment       0x000000000000002c       0x2d /work/glibc-obj/libc.a(fxprintf.o)
 .comment       0x000000000000002c       0x2d /work/glibc-obj/libc.a(iofclose.o)
 .comment       0x000000000000002c       0x2d /work/glibc-obj/libc.a(iofflush.o)
 .comment       0x000000000000002c       0x2d /work/glibc-obj/libc.a(iofopen.o)
 .comment       0x000000000000002c       0x2d /work/glibc-obj/libc.a(iofwrite.o)
 .comment       0x000000000000002c       0x2d /work/glibc-obj/libc.a(wfileops.o)
 .comment       0x000000000000002c       0x2d /work/glibc-obj/libc.a(vasprintf.o)
 .comment       0x000000000000002c       0x2d /work/glibc-obj/libc.a(libc_fatal.o)
 .comment       0x000000000000002c       0x2d /work/glibc-obj/libc.a(vtables.o)
 .comment       0x000000000000002c       0x2d /work/glibc-obj/libc.a(iofgets_u.o)
 .comment       0x000000000000002c       0x2d /work/glibc-obj/libc.a(fileops.o)
 .comment       0x000000000000002c       0x2d /work/glibc-obj/libc.a(genops.o)
 .comment       0x000000000000002c       0x2d /work/glibc-obj/libc.a(stdfiles.o)
 .comment       0x000000000000002c       0x2d /work/glibc-obj/libc.a(stdio.o)
 .comment       0x000000000000002c       0x2d /work/glibc-obj/libc.a(strops.o)
 .comment       0x000000000000002c       0x2d /work/glibc-obj/libc.a(malloc.o)
 .comment       0x000000000000002c       0x2d /work/glibc-obj/libc.a(morecore.o)
 .comment       0x000000000000002c       0x2d /work/glibc-obj/libc.a(thread-freeres.o)
 .comment       0x000000000000002c       0x2d /work/glibc-obj/libc.a(strchr.o)
 .comment       0x000000000000002c       0x2d /work/glibc-obj/libc.a(strcmp.o)
 .comment       0x000000000000002c       0x2d /work/glibc-obj/libc.a(strcpy.o)
 .comment       0x000000000000002c       0x2d /work/glibc-obj/libc.a(strcspn.o)
 .comment       0x000000000000002c       0x2d /work/glibc-obj/libc.a(strdup.o)
 .comment       0x000000000000002c       0x2d /work/glibc-obj/libc.a(strlen.o)
 .comment       0x000000000000002c       0x2d /work/glibc-obj/libc.a(strncmp.o)
 .comment       0x000000000000002c       0x2d /work/glibc-obj/libc.a(strstr.o)
 .comment       0x000000000000002c       0x2d /work/glibc-obj/libc.a(memchr.o)
 .comment       0x000000000000002c       0x2d /work/glibc-obj/libc.a(memcmp.o)
 .comment       0x000000000000002c       0x2d /work/glibc-obj/libc.a(memmove.o)
 .comment       0x000000000000002c       0x2d /work/glibc-obj/libc.a(memset.o)
 .comment       0x000000000000002c       0x2d /work/glibc-obj/libc.a(mempcpy.o)
 .comment       0x000000000000002c       0x2d /work/glibc-obj/libc.a(stpcpy.o)
 .comment       0x000000000000002c       0x2d /work/glibc-obj/libc.a(strcasecmp_l.o)
 .comment       0x000000000000002c       0x2d /work/glibc-obj/libc.a(memcpy.o)
 .comment       0x000000000000002c       0x2d /work/glibc-obj/libc.a(rawmemchr.o)
 .comment       0x000000000000002c       0x2d /work/glibc-obj/libc.a(strchrnul.o)
 .comment       0x000000000000002c       0x2d /work/glibc-obj/libc.a(strcspn-c.o)
 .comment       0x000000000000002c       0x2d /work/glibc-obj/libc.a(varshift.o)
 .comment       0x000000000000002c       0x2d /work/glibc-obj/libc.a(cacheinfo.o)
 .comment       0x000000000000002c       0x2d /work/glibc-obj/libc.a(strcasecmp_l-nonascii.o)
 .comment       0x000000000000002c       0x2d /work/glibc-obj/libc.a(wmempcpy.o)
 .comment       0x000000000000002c       0x2d /work/glibc-obj/libc.a(mbsrtowcs.o)
 .comment       0x000000000000002c       0x2d /work/glibc-obj/libc.a(wcsmbsload.o)
 .comment       0x000000000000002c       0x2d /work/glibc-obj/libc.a(mbsrtowcs_l.o)
 .comment       0x000000000000002c       0x2d /work/glibc-obj/libc.a(gettimeofday.o)
 .comment       0x000000000000002c       0x2d /work/glibc-obj/libc.a(_exit.o)
 .comment       0x000000000000002c       0x2d /work/glibc-obj/libc.a(sysconf.o)
 .comment       0x000000000000002c       0x2d /work/glibc-obj/libc.a(get_child_max.o)
 .comment       0x000000000000002c       0x2d /work/glibc-obj/libc.a(environ.o)
 .comment       0x000000000000002c       0x2d /work/glibc-obj/libc.a(xstat.o)
 .comment       0x000000000000002c       0x2d /work/glibc-obj/libc.a(fxstat.o)
 .comment       0x000000000000002c       0x2d /work/glibc-obj/libc.a(open64.o)
 .comment       0x000000000000002c       0x2d /work/glibc-obj/libc.a(read.o)
 .comment       0x000000000000002c       0x2d /work/glibc-obj/libc.a(write.o)
 .comment       0x000000000000002c       0x2d /work/glibc-obj/libc.a(lseek64.o)
 .comment       0x000000000000002c       0x2d /work/glibc-obj/libc.a(fcntl.o)
 .comment       0x000000000000002c       0x2d /work/glibc-obj/libc.a(close.o)
 .comment       0x000000000000002c       0x2d /work/glibc-obj/libc.a(getcwd.o)
 .comment       0x000000000000002c       0x2d /work/glibc-obj/libc.a(getrlimit64.o)
 .comment       0x000000000000002c       0x2d /work/glibc-obj/libc.a(sbrk.o)
 .comment       0x000000000000002c       0x2d /work/glibc-obj/libc.a(getpagesize.o)
 .comment       0x000000000000002c       0x2d /work/glibc-obj/libc.a(getdtsz.o)
 .comment       0x000000000000002c       0x2d /work/glibc-obj/libc.a(mmap64.o)
 .comment       0x000000000000002c       0x2d /work/glibc-obj/libc.a(tsearch.o)
 .comment       0x000000000000002c       0x2d /work/glibc-obj/libc.a(getsysstats.o)
 .comment       0x000000000000002c       0x2d /work/glibc-obj/libc.a(getclktck.o)
 .comment       0x000000000000002c       0x2d /work/glibc-obj/libc.a(init-misc.o)
 .comment       0x000000000000002c       0x2d /work/glibc-obj/libc.a(alloca_cutoff.o)
 .comment       0x000000000000002c       0x2d /work/glibc-obj/libc.a(libc_pthread_init.o)
 .comment       0x000000000000002c       0x2d /work/glibc-obj/libc.a(libc_multiple_threads.o)
 .comment       0x000000000000002c       0x2d /work/glibc-obj/libc.a(register-atfork.o)
 .comment       0x000000000000002c       0x2d /work/glibc-obj/libc.a(chk_fail.o)
 .comment       0x000000000000002c       0x2d /work/glibc-obj/libc.a(fortify_fail.o)
 .comment       0x000000000000002c       0x2d /work/glibc-obj/libc.a(res_libc.o)
 .comment       0x000000000000002c       0x2d /work/glibc-obj/libc.a(res_randomid.o)
 .comment       0x000000000000002c       0x2d /work/glibc-obj/libc.a(res-close.o)
 .comment       0x000000000000002c       0x2d /work/glibc-obj/libc.a(resolv_context.o)
 .comment       0x000000000000002c       0x2d /work/glibc-obj/libc.a(resolv_conf.o)
 .comment       0x000000000000002c       0x2d /work/glibc-obj/libc.a(dl-debug.o)
 .comment       0x000000000000002c       0x2d /work/glibc-obj/libc.a(dl-tls.o)
 .comment       0x000000000000002c       0x2d /work/glibc-obj/libc.a(dl-execstack.o)
 .comment       0x000000000000002c       0x2d /work/glibc-obj/libc.a(dl-tunables.o)
 .comment       0x000000000000002c       0x2d /work/glibc-obj/libc.a(dl-support.o)
 .comment       0x000000000000002c       0x2d /work/glibc-obj/libc.a(dl-iteratephdr.o)
 .comment       0x000000000000002c       0x2d /work/glibc-obj/libc.a(enbl-secure.o)
 .comment       0x000000000000002c       0x2d /work/glibc-obj/libc.a(dl-profstub.o)
 .comment       0x000000000000002c       0x2d /work/glibc-obj/libc.a(dl-sysdep.o)
 .comment       0x000000000000002c       0x2d /work/glibc-obj/libc.a(dl-error.o)
 .comment       0x000000000000002c       0x2d /work/glibc-obj/libc.a(init-first.o)
 .comment       0x000000000000002c       0x2d /work/glibc-obj/libc.a(gconv_open.o)
 .comment       0x000000000000002c       0x2d /work/glibc-obj/libc.a(gconv.o)
 .comment       0x000000000000002c       0x2d /work/glibc-obj/libc.a(gconv_close.o)
 .comment       0x000000000000002c       0x2d /work/glibc-obj/libc.a(gconv_db.o)
 .comment       0x000000000000002c       0x2d /work/glibc-obj/libc.a(gconv_conf.o)
 .comment       0x000000000000002c       0x2d /work/glibc-obj/libc.a(gconv_builtin.o)
 .comment       0x000000000000002c       0x2d /work/glibc-obj/libc.a(gconv_simple.o)
 .comment       0x000000000000002c       0x2d /work/glibc-obj/libc.a(gconv_trans.o)
 .comment       0x000000000000002c       0x2d /work/glibc-obj/libc.a(gconv_cache.o)
 .comment       0x000000000000002c       0x2d /work/glibc-obj/libc.a(gconv_dl.o)
 .comment       0x000000000000002c       0x2d /work/glibc-obj/libc.a(setlocale.o)
 .comment       0x000000000000002c       0x2d /work/glibc-obj/libc.a(findlocale.o)
 .comment       0x000000000000002c       0x2d /work/glibc-obj/libc.a(loadlocale.o)
 .comment       0x000000000000002c       0x2d /work/glibc-obj/libc.a(loadarchive.o)
 .comment       0x000000000000002c       0x2d /work/glibc-obj/libc.a(lc-ctype.o)
 .comment       0x000000000000002c       0x2d /work/glibc-obj/libc.a(C-ctype.o)
 .comment       0x000000000000002c       0x2d /work/glibc-obj/libc.a(SYS_libc.o)
 .comment       0x000000000000002c       0x2d /work/glibc-obj/libc.a(C_name.o)
 .comment       0x000000000000002c       0x2d /work/glibc-obj/libc.a(xlocale.o)
 .comment       0x000000000000002c       0x2d /work/glibc-obj/libc.a(localename.o)
 .comment       0x000000000000002c       0x2d /work/glibc-obj/libc.a(global-locale.o)
 .comment       0x000000000000002c       0x2d /work/glibc-obj/libc.a(setfpucw.o)
 .comment       0x000000000000002c       0x2d /work/glibc-obj/libc.a(fpu_control.o)
 .comment       0x000000000000002c       0x2d /work/glibc-obj/libc.a(sigjmp.o)
 .comment       0x000000000000002c       0x2d /work/glibc-obj/libc.a(qsort.o)
 .comment       0x000000000000002c       0x2d /work/glibc-obj/libc.a(setenv.o)
 .comment       0x000000000000002c       0x2d /work/glibc-obj/libc.a(secure-getenv.o)
 .comment       0x000000000000002c       0x2d /work/glibc-obj/libc.a(strtol.o)
 .comment       0x000000000000002c       0x2d /work/glibc-obj/libc.a(strtol_l.o)
 .comment       0x000000000000002c       0x2d /work/glibc-obj/libc.a(vfprintf.o)
 .comment       0x000000000000002c       0x2d /work/glibc-obj/libc.a(printf_fp.o)
 .comment       0x000000000000002c       0x2d /work/glibc-obj/libc.a(reg-printf.o)
 .comment       0x000000000000002c       0x2d /work/glibc-obj/libc.a(printf_fphex.o)
 .comment       0x000000000000002c       0x2d /work/glibc-obj/libc.a(reg-modifier.o)
 .comment       0x000000000000002c       0x2d /work/glibc-obj/libc.a(reg-type.o)
 .comment       0x000000000000002c       0x2d /work/glibc-obj/libc.a(vfwprintf.o)
 .comment       0x000000000000002c       0x2d /work/glibc-obj/libc.a(funlockfile.o)
 .comment       0x000000000000002c       0x2d /work/glibc-obj/libc.a(printf-parsemb.o)
 .comment       0x000000000000002c       0x2d /work/glibc-obj/libc.a(printf-parsewc.o)
 .comment       0x000000000000002c       0x2d /work/glibc-obj/libc.a(filedoalloc.o)
 .comment       0x000000000000002c       0x2d /work/glibc-obj/libc.a(iofputs.o)
 .comment       0x000000000000002c       0x2d /work/glibc-obj/libc.a(wfiledoalloc.o)
 .comment       0x000000000000002c       0x2d /work/glibc-obj/libc.a(iogetdelim.o)
 .comment       0x000000000000002c       0x2d /work/glibc-obj/libc.a(iogetline.o)
 .comment       0x000000000000002c       0x2d /work/glibc-obj/libc.a(iopadn.o)
 .comment       0x000000000000002c       0x2d /work/glibc-obj/libc.a(iowpadn.o)
 .comment       0x000000000000002c       0x2d /work/glibc-obj/libc.a(wgenops.o)
 .comment       0x000000000000002c       0x2d /work/glibc-obj/libc.a(iofwide.o)
 .comment       0x000000000000002c       0x2d /work/glibc-obj/libc.a(scratch_buffer_grow_preserve.o)
 .comment       0x000000000000002c       0x2d /work/glibc-obj/libc.a(scratch_buffer_set_array_size.o)
 .comment       0x000000000000002c       0x2d /work/glibc-obj/libc.a(dynarray_at_failure.o)
 .comment       0x000000000000002c       0x2d /work/glibc-obj/libc.a(dynarray_emplace_enlarge.o)
 .comment       0x000000000000002c       0x2d /work/glibc-obj/libc.a(alloc_buffer_alloc_array.o)
 .comment       0x000000000000002c       0x2d /work/glibc-obj/libc.a(alloc_buffer_allocate.o)
 .comment       0x000000000000002c       0x2d /work/glibc-obj/libc.a(alloc_buffer_copy_string.o)
 .comment       0x000000000000002c       0x2d /work/glibc-obj/libc.a(alloc_buffer_create_failure.o)
 .comment       0x000000000000002c       0x2d /work/glibc-obj/libc.a(strndup.o)
 .comment       0x000000000000002c       0x2d /work/glibc-obj/libc.a(_strerror.o)
 .comment       0x000000000000002c       0x2d /work/glibc-obj/libc.a(strnlen.o)
 .comment       0x000000000000002c       0x2d /work/glibc-obj/libc.a(strrchr.o)
 .comment       0x000000000000002c       0x2d /work/glibc-obj/libc.a(strtok_r.o)
 .comment       0x000000000000002c       0x2d /work/glibc-obj/libc.a(memmem.o)
 .comment       0x000000000000002c       0x2d /work/glibc-obj/libc.a(argz-ctsep.o)
 .comment       0x000000000000002c       0x2d /work/glibc-obj/libc.a(argz-addsep.o)
 .comment       0x000000000000002c       0x2d /work/glibc-obj/libc.a(wcslen.o)
 .comment       0x000000000000002c       0x2d /work/glibc-obj/libc.a(wmemcpy.o)
 .comment       0x000000000000002c       0x2d /work/glibc-obj/libc.a(wmemmove.o)
 .comment       0x000000000000002c       0x2d /work/glibc-obj/libc.a(wmemset.o)
 .comment       0x000000000000002c       0x2d /work/glibc-obj/libc.a(btowc.o)
 .comment       0x000000000000002c       0x2d /work/glibc-obj/libc.a(wcrtomb.o)
 .comment       0x000000000000002c       0x2d /work/glibc-obj/libc.a(wcsrtombs.o)
 .comment       0x000000000000002c       0x2d /work/glibc-obj/libc.a(wcsnlen.o)
 .comment       0x000000000000002c       0x2d /work/glibc-obj/libc.a(wcschrnul.o)
 .comment       0x000000000000002c       0x2d /work/glibc-obj/libc.a(wcsnlen-c.o)
 .comment       0x000000000000002c       0x2d /work/glibc-obj/libc.a(time.o)
 .comment       0x000000000000002c       0x2d /work/glibc-obj/libc.a(opendir.o)
 .comment       0x000000000000002c       0x2d /work/glibc-obj/libc.a(closedir.o)
 .comment       0x000000000000002c       0x2d /work/glibc-obj/libc.a(readdir.o)
 .comment       0x000000000000002c       0x2d /work/glibc-obj/libc.a(rewinddir.o)
 .comment       0x000000000000002c       0x2d /work/glibc-obj/libc.a(getdents.o)
 .comment       0x000000000000002c       0x2d /work/glibc-obj/libc.a(fdopendir.o)
 .comment       0x000000000000002c       0x2d /work/glibc-obj/libc.a(lxstat.o)
 .comment       0x000000000000002c       0x2d /work/glibc-obj/libc.a(fxstatat.o)
 .comment       0x000000000000002c       0x2d /work/glibc-obj/libc.a(openat64.o)
 .comment       0x000000000000002c       0x2d /work/glibc-obj/libc.a(isatty.o)
 .comment       0x000000000000002c       0x2d /work/glibc-obj/libc.a(tcgetattr.o)
 .comment       0x000000000000002c       0x2d /work/glibc-obj/libc.a(brk.o)
 .comment       0x000000000000002c       0x2d /work/glibc-obj/libc.a(wctrans.o)
 .comment       0x000000000000002c       0x2d /work/glibc-obj/libc.a(towctrans.o)
 .comment       0x000000000000002c       0x2d /work/glibc-obj/libc.a(readonly-area.o)
 .comment       0x000000000000002c       0x2d /work/glibc-obj/libc.a(res_init.o)
 .comment       0x000000000000002c       0x2d /work/glibc-obj/libc.a(res_hconf.o)
 .comment       0x000000000000002c       0x2d /work/glibc-obj/libc.a(dl-load.o)
 .comment       0x000000000000002c       0x2d /work/glibc-obj/libc.a(dl-lookup.o)
 .comment       0x000000000000002c       0x2d /work/glibc-obj/libc.a(dl-object.o)
 .comment       0x000000000000002c       0x2d /work/glibc-obj/libc.a(dl-reloc.o)
 .comment       0x000000000000002c       0x2d /work/glibc-obj/libc.a(dl-hwcaps.o)
 .comment       0x000000000000002c       0x2d /work/glibc-obj/libc.a(dl-misc.o)
 .comment       0x000000000000002c       0x2d /work/glibc-obj/libc.a(dl-profile.o)
 .comment       0x000000000000002c       0x2d /work/glibc-obj/libc.a(dl-origin.o)
 .comment       0x000000000000002c       0x2d /work/glibc-obj/libc.a(dl-scope.o)
 .comment       0x000000000000002c       0x2d /work/glibc-obj/libc.a(dl-exception.o)
 .comment       0x000000000000002c       0x2d /work/glibc-obj/libc.a(dl-cache.o)
 .comment       0x000000000000002c       0x2d /work/glibc-obj/libc.a(dl-libc.o)
 .comment       0x000000000000002c       0x2d /work/glibc-obj/libc.a(lc-monetary.o)
 .comment       0x000000000000002c       0x2d /work/glibc-obj/libc.a(lc-numeric.o)
 .comment       0x000000000000002c       0x2d /work/glibc-obj/libc.a(C-messages.o)
 .comment       0x000000000000002c       0x2d /work/glibc-obj/libc.a(C-monetary.o)
 .comment       0x000000000000002c       0x2d /work/glibc-obj/libc.a(C-numeric.o)
 .comment       0x000000000000002c       0x2d /work/glibc-obj/libc.a(C-time.o)
 .comment       0x000000000000002c       0x2d /work/glibc-obj/libc.a(C-paper.o)
 .comment       0x000000000000002c       0x2d /work/glibc-obj/libc.a(C-name.o)
 .comment       0x000000000000002c       0x2d /work/glibc-obj/libc.a(C-address.o)
 .comment       0x000000000000002c       0x2d /work/glibc-obj/libc.a(C-telephone.o)
 .comment       0x000000000000002c       0x2d /work/glibc-obj/libc.a(C-measurement.o)
 .comment       0x000000000000002c       0x2d /work/glibc-obj/libc.a(C-identification.o)
 .comment       0x000000000000002c       0x2d /work/glibc-obj/libc.a(C-collate.o)
 .comment       0x000000000000002c       0x2d /work/glibc-obj/libc.a(cmp.o)
 .comment       0x000000000000002c       0x2d /work/glibc-obj/libc.a(divrem.o)
 .comment       0x000000000000002c       0x2d /work/glibc-obj/libc.a(mul.o)
 .comment       0x000000000000002c       0x2d /work/glibc-obj/libc.a(mul_n.o)
 .comment       0x000000000000002c       0x2d /work/glibc-obj/libc.a(dbl2mpn.o)
 .comment       0x000000000000002c       0x2d /work/glibc-obj/libc.a(ldbl2mpn.o)
 .comment       0x000000000000002c       0x2d /work/glibc-obj/libc.a(float1282mpn.o)
 .comment       0x000000000000002c       0x2d /work/glibc-obj/libc.a(fpioconst.o)
 .comment       0x000000000000002c       0x2d /work/glibc-obj/libc.a(_itoa.o)
 .comment       0x000000000000002c       0x2d /work/glibc-obj/libc.a(itoa-digits.o)
 .comment       0x000000000000002c       0x2d /work/glibc-obj/libc.a(itoa-udigits.o)
 .comment       0x000000000000002c       0x2d /work/glibc-obj/libc.a(itowa-digits.o)
 .comment       0x000000000000002c       0x2d /work/glibc-obj/libc.a(snprintf.o)
 .comment       0x000000000000002c       0x2d /work/glibc-obj/libc.a(getline.o)
 .comment       0x000000000000002c       0x2d /work/glibc-obj/libc.a(errlist.o)
 .comment       0x000000000000002c       0x2d /work/glibc-obj/libc.a(vsnprintf.o)
 .comment       0x000000000000002c       0x2d /work/glibc-obj/libc.a(sdlerror.o)
 .comment       0x000000000000002c       0x2d /work/glibc-obj/libc.a(sdladdr.o)
 .comment       0x000000000000002c       0x2d /work/glibc-obj/libc.a(sdladdr1.o)
 .comment       0x000000000000002c       0x2d /work/glibc-obj/libc.a(sdlinfo.o)
 .comment       0x000000000000002c       0x2d /work/glibc-obj/libc.a(sdlmopen.o)
 .comment       0x000000000000002c       0x2d /work/glibc-obj/libc.a(alloc_buffer_copy_bytes.o)
 .comment       0x000000000000002c       0x2d /work/glibc-obj/libc.a(strerror.o)
 .comment       0x000000000000002c       0x2d /work/glibc-obj/libc.a(strpbrk.o)
 .comment       0x000000000000002c       0x2d /work/glibc-obj/libc.a(strspn.o)
 .comment       0x000000000000002c       0x2d /work/glibc-obj/libc.a(strcasecmp.o)
 .comment       0x000000000000002c       0x2d /work/glibc-obj/libc.a(strncase.o)
 .comment       0x000000000000002c       0x2d /work/glibc-obj/libc.a(strsep.o)
 .comment       0x000000000000002c       0x2d /work/glibc-obj/libc.a(strpbrk-c.o)
 .comment       0x000000000000002c       0x2d /work/glibc-obj/libc.a(strspn-c.o)
 .comment       0x000000000000002c       0x2d /work/glibc-obj/libc.a(strncase_l-nonascii.o)
 .comment       0x000000000000002c       0x2d /work/glibc-obj/libc.a(gethostname.o)
 .comment       0x000000000000002c       0x2d /work/glibc-obj/libc.a(profil.o)
 .comment       0x000000000000002c       0x2d /work/glibc-obj/libc.a(prof-freq.o)
 .comment       0x000000000000002c       0x2d /work/glibc-obj/libc.a(inet_mkadr.o)
 .comment       0x000000000000002c       0x2d /work/glibc-obj/libc.a(inet6_scopeid_pton.o)
 .comment       0x000000000000002c       0x2d /work/glibc-obj/libc.a(ifreq.o)
 .comment       0x000000000000002c       0x2d /work/glibc-obj/libc.a(inet_addr.o)
 .comment       0x000000000000002c       0x2d /work/glibc-obj/libc.a(inet_pton.o)
 .comment       0x000000000000002c       0x2d /work/glibc-obj/libc.a(dl-runtime.o)
 .comment       0x000000000000002c       0x2d /work/glibc-obj/libc.a(dl-open.o)
 .comment       0x000000000000002c       0x2d /work/glibc-obj/libc.a(dl-close.o)
 .comment       0x000000000000002c       0x2d /work/glibc-obj/libc.a(dl-sort-maps.o)
 .comment       0x000000000000002c       0x2d /work/glibc-obj/libc.a(tlsdesc.o)
 .comment       0x000000000000002c       0x2d /work/glibc-obj/libc.a(dl-addr.o)
 .comment       0x000000000000002c       0x2d /work/glibc-obj/libc.a(dl-addr-obj.o)
 .comment       0x000000000000002c       0x2d /work/glibc-obj/libc.a(sdlopen.o)
 .comment       0x000000000000002c       0x2d /work/glibc-obj/libc.a(sdlclose.o)
 .comment       0x000000000000002c       0x2d /work/glibc-obj/libc.a(sdlsym.o)
 .comment       0x000000000000002c       0x2d /work/glibc-obj/libc.a(sdlvsym.o)
 .comment       0x000000000000002c       0x2d /work/glibc-obj/libc.a(opensock.o)
 .comment       0x000000000000002c       0x2d /work/glibc-obj/libc.a(if_index.o)
 .comment       0x000000000000002c       0x2d /work/glibc-obj/libc.a(ifaddrs.o)
 .comment       0x000000000000002c       0x2d /work/glibc-obj/libc.a(netlink_assert_response.o)
 .comment       0x000000000000002c       0x2d /work/glibc-obj/libc.a(dl-deps.o)
 .comment       0x000000000000002c       0x2d /work/glibc-obj/libc.a(dl-init.o)
 .comment       0x000000000000002c       0x2d /work/glibc-obj/libc.a(dl-version.o)
 .comment       0x000000000000002c       0x2d /work/glibc-obj/libc.a(dl-sym.o)
 .comment       0x000000000000002c       0x2d /work/glibc-obj/libc.a(strncpy.o)
 .comment       0x000000000000002c       0x2d /work/glibc-obj/libc.a(strncpy-c.o)
 .comment       0x000000000000002c       0x2d /work/glibc-obj/libc.a(access.o)
 .comment       0x000000000000002c       0x2d /work/glibc-obj/libc.a(recvmsg.o)
 .comment       0x000000000000002c       0x2d /work/glibc-obj/libc.a(sendto.o)
 .comment       0x000000000000002c       0x2d /usr/lib/gcc/x86_64-redhat-linux/8//libgcc.a(unordtf2.o)
 .comment       0x000000000000002c       0x2d /usr/lib/gcc/x86_64-redhat-linux/8//libgcc.a(letf2.o)
 .comment       0x000000000000002c       0x2d /usr/lib/gcc/x86_64-redhat-linux/8//libgcc.a(sfp-exceptions.o)
 .comment       0x000000000000002c       0x2d /usr/lib/gcc/x86_64-redhat-linux/8//libgcc_eh.a(unwind-c.o)
 .comment       0x000000000000002c       0x2d /usr/lib/gcc/x86_64-redhat-linux/8/crtend.o

.note.stapsdt   0x0000000000000000       0x48
 .note.stapsdt  0x0000000000000000       0x48 /usr/lib/gcc/x86_64-redhat-linux/8//libgcc_eh.a(unwind-dw2.o)

.debug
 *(.debug)

.line
 *(.line)

.debug_srcinfo
 *(.debug_srcinfo)

.debug_sfnames
 *(.debug_sfnames)

.debug_aranges  0x0000000000000000     0x50b0
 *(.debug_aranges)
 .debug_aranges
                0x0000000000000000       0x50 /work/glibc-obj/csu/crt1.o
 .debug_aranges
                0x0000000000000050       0x40 /work/glibc-obj/csu/crti.o
 .debug_aranges
                0x0000000000000090       0x30 threads.o
 .debug_aranges
                0x00000000000000c0       0x40 /work/glibc-obj/nptl/libpthread.a(pthread_create.o)
 .debug_aranges
                0x0000000000000100       0x30 /work/glibc-obj/nptl/libpthread.a(pthread_join.o)
 .debug_aranges
                0x0000000000000130       0x30 /work/glibc-obj/nptl/libpthread.a(pthread_join_common.o)
 .debug_aranges
                0x0000000000000160       0x30 /work/glibc-obj/nptl/libpthread.a(pthread_mutex_lock.o)
 .debug_aranges
                0x0000000000000190       0x30 /work/glibc-obj/nptl/libpthread.a(pthread_mutex_trylock.o)
 .debug_aranges
                0x00000000000001c0       0x30 /work/glibc-obj/nptl/libpthread.a(pthread_mutex_unlock.o)
 .debug_aranges
                0x00000000000001f0       0x30 /work/glibc-obj/nptl/libpthread.a(pthread_key_create.o)
 .debug_aranges
                0x0000000000000220       0x30 /work/glibc-obj/nptl/libpthread.a(pthread_key_delete.o)
 .debug_aranges
                0x0000000000000250       0x30 /work/glibc-obj/nptl/libpthread.a(pthread_getspecific.o)
 .debug_aranges
                0x0000000000000280       0x30 /work/glibc-obj/nptl/libpthread.a(pthread_setspecific.o)
 .debug_aranges
                0x00000000000002b0       0x30 /work/glibc-obj/nptl/libpthread.a(pthread_cancel.o)
 .debug_aranges
                0x00000000000002e0       0x30 /work/glibc-obj/nptl/libpthread.a(pthread_once.o)
 .debug_aranges
                0x0000000000000310       0x30 /work/glibc-obj/nptl/libpthread.a(cleanup_compat.o)
 .debug_aranges
                0x0000000000000340       0x30 /work/glibc-obj/nptl/libpthread.a(cancellation.o)
 .debug_aranges
                0x0000000000000370       0x30 /work/glibc-obj/nptl/libpthread.a(lowlevellock.o)
 .debug_aranges
                0x00000000000003a0       0x30 /work/glibc-obj/nptl/libpthread.a(pause.o)
 .debug_aranges
                0x00000000000003d0       0x30 /work/glibc-obj/nptl/libpthread.a(tpp.o)
 .debug_aranges
                0x0000000000000400       0x30 /work/glibc-obj/nptl/libpthread.a(elision-lock.o)
 .debug_aranges
                0x0000000000000430       0x30 /work/glibc-obj/nptl/libpthread.a(elision-unlock.o)
 .debug_aranges
                0x0000000000000460       0x30 /work/glibc-obj/nptl/libpthread.a(elision-trylock.o)
 .debug_aranges
                0x0000000000000490       0x30 /work/glibc-obj/nptl/libpthread.a(nptl-init.o)
 .debug_aranges
                0x00000000000004c0       0x20 /work/glibc-obj/nptl/libpthread.a(vars.o)
 .debug_aranges
                0x00000000000004e0       0x30 /work/glibc-obj/nptl/libpthread.a(events.o)
 .debug_aranges
                0x0000000000000510       0x30 /work/glibc-obj/nptl/libpthread.a(unwind.o)
 .debug_aranges
                0x0000000000000540       0x30 /work/glibc-obj/nptl/libpthread.a(sigaction.o)
 .debug_aranges
                0x0000000000000570       0x30 /work/glibc-obj/libc.a(libc-start.o)
 .debug_aranges
                0x00000000000005a0       0x30 /work/glibc-obj/libc.a(check_fds.o)
 .debug_aranges
                0x00000000000005d0       0x30 /work/glibc-obj/libc.a(libc-tls.o)
 .debug_aranges
                0x0000000000000600       0x30 /work/glibc-obj/libc.a(elf-init.o)
 .debug_aranges
                0x0000000000000630       0x20 /work/glibc-obj/libc.a(errno.o)
 .debug_aranges
                0x0000000000000650       0x40 /work/glibc-obj/libc.a(assert.o)
 .debug_aranges
                0x0000000000000690       0x30 /work/glibc-obj/libc.a(ctype-info.o)
 .debug_aranges
                0x00000000000006c0       0x30 /work/glibc-obj/libc.a(dcgettext.o)
 .debug_aranges
                0x00000000000006f0       0x40 /work/glibc-obj/libc.a(dcigettext.o)
 .debug_aranges
                0x0000000000000730       0x40 /work/glibc-obj/libc.a(finddomain.o)
 .debug_aranges
                0x0000000000000770       0x50 /work/glibc-obj/libc.a(loadmsgcat.o)
 .debug_aranges
                0x00000000000007c0       0x30 /work/glibc-obj/libc.a(localealias.o)
 .debug_aranges
                0x00000000000007f0       0x30 /work/glibc-obj/libc.a(l10nflist.o)
 .debug_aranges
                0x0000000000000820       0x30 /work/glibc-obj/libc.a(explodename.o)
 .debug_aranges
                0x0000000000000850       0x30 /work/glibc-obj/libc.a(plural.o)
 .debug_aranges
                0x0000000000000880       0x30 /work/glibc-obj/libc.a(plural-exp.o)
 .debug_aranges
                0x00000000000008b0       0x30 /work/glibc-obj/libc.a(hash-string.o)
 .debug_aranges
                0x00000000000008e0       0x30 /work/glibc-obj/libc.a(bsd-_setjmp.o)
 .debug_aranges
                0x0000000000000910       0x30 /work/glibc-obj/libc.a(longjmp.o)
 .debug_aranges
                0x0000000000000940       0x30 /work/glibc-obj/libc.a(__longjmp.o)
 .debug_aranges
                0x0000000000000970       0x30 /work/glibc-obj/libc.a(jmp-unwind.o)
 .debug_aranges
                0x00000000000009a0       0x30 /work/glibc-obj/libc.a(raise.o)
 .debug_aranges
                0x00000000000009d0       0x30 /work/glibc-obj/libc.a(sigprocmask.o)
 .debug_aranges
                0x0000000000000a00       0x30 /work/glibc-obj/libc.a(abort.o)
 .debug_aranges
                0x0000000000000a30       0x30 /work/glibc-obj/libc.a(msort.o)
 .debug_aranges
                0x0000000000000a60       0x30 /work/glibc-obj/libc.a(getenv.o)
 .debug_aranges
                0x0000000000000a90       0x30 /work/glibc-obj/libc.a(exit.o)
 .debug_aranges
                0x0000000000000ac0       0x30 /work/glibc-obj/libc.a(cxa_atexit.o)
 .debug_aranges
                0x0000000000000af0       0x30 /work/glibc-obj/libc.a(strtoul.o)
 .debug_aranges
                0x0000000000000b20       0x30 /work/glibc-obj/libc.a(strtoul_l.o)
 .debug_aranges
                0x0000000000000b50       0x30 /work/glibc-obj/libc.a(grouping.o)
 .debug_aranges
                0x0000000000000b80       0x30 /work/glibc-obj/libc.a(fprintf.o)
 .debug_aranges
                0x0000000000000bb0       0x30 /work/glibc-obj/libc.a(asprintf.o)
 .debug_aranges
                0x0000000000000be0       0x30 /work/glibc-obj/libc.a(fxprintf.o)
 .debug_aranges
                0x0000000000000c10       0x40 /work/glibc-obj/libc.a(iofclose.o)
 .debug_aranges
                0x0000000000000c50       0x40 /work/glibc-obj/libc.a(iofflush.o)
 .debug_aranges
                0x0000000000000c90       0x30 /work/glibc-obj/libc.a(iofopen.o)
 .debug_aranges
                0x0000000000000cc0       0x40 /work/glibc-obj/libc.a(iofwrite.o)
 .debug_aranges
                0x0000000000000d00       0x40 /work/glibc-obj/libc.a(wfileops.o)
 .debug_aranges
                0x0000000000000d40       0x30 /work/glibc-obj/libc.a(vasprintf.o)
 .debug_aranges
                0x0000000000000d70       0x30 /work/glibc-obj/libc.a(libc_fatal.o)
 .debug_aranges
                0x0000000000000da0       0x30 /work/glibc-obj/libc.a(vtables.o)
 .debug_aranges
                0x0000000000000dd0       0x30 /work/glibc-obj/libc.a(iofgets_u.o)
 .debug_aranges
                0x0000000000000e00       0x40 /work/glibc-obj/libc.a(fileops.o)
 .debug_aranges
                0x0000000000000e40       0x40 /work/glibc-obj/libc.a(genops.o)
 .debug_aranges
                0x0000000000000e80       0x20 /work/glibc-obj/libc.a(stdfiles.o)
 .debug_aranges
                0x0000000000000ea0       0x20 /work/glibc-obj/libc.a(stdio.o)
 .debug_aranges
                0x0000000000000ec0       0x30 /work/glibc-obj/libc.a(strops.o)
 .debug_aranges
                0x0000000000000ef0       0x40 /work/glibc-obj/libc.a(malloc.o)
 .debug_aranges
                0x0000000000000f30       0x30 /work/glibc-obj/libc.a(morecore.o)
 .debug_aranges
                0x0000000000000f60       0x30 /work/glibc-obj/libc.a(thread-freeres.o)
 .debug_aranges
                0x0000000000000f90       0x30 /work/glibc-obj/libc.a(strchr.o)
 .debug_aranges
                0x0000000000000fc0       0x30 /work/glibc-obj/libc.a(strcmp.o)
 .debug_aranges
                0x0000000000000ff0       0x30 /work/glibc-obj/libc.a(strcpy.o)
 .debug_aranges
                0x0000000000001020       0x30 /work/glibc-obj/libc.a(strcspn.o)
 .debug_aranges
                0x0000000000001050       0x30 /work/glibc-obj/libc.a(strdup.o)
 .debug_aranges
                0x0000000000001080       0x30 /work/glibc-obj/libc.a(strlen.o)
 .debug_aranges
                0x00000000000010b0       0x30 /work/glibc-obj/libc.a(strncmp.o)
 .debug_aranges
                0x00000000000010e0       0x30 /work/glibc-obj/libc.a(strstr.o)
 .debug_aranges
                0x0000000000001110       0x30 /work/glibc-obj/libc.a(memchr.o)
 .debug_aranges
                0x0000000000001140       0x30 /work/glibc-obj/libc.a(memcmp.o)
 .debug_aranges
                0x0000000000001170       0x30 /work/glibc-obj/libc.a(memmove.o)
 .debug_aranges
                0x00000000000011a0       0x30 /work/glibc-obj/libc.a(memset.o)
 .debug_aranges
                0x00000000000011d0       0x30 /work/glibc-obj/libc.a(mempcpy.o)
 .debug_aranges
                0x0000000000001200       0x30 /work/glibc-obj/libc.a(stpcpy.o)
 .debug_aranges
                0x0000000000001230       0x30 /work/glibc-obj/libc.a(strcasecmp_l.o)
 .debug_aranges
                0x0000000000001260       0x30 /work/glibc-obj/libc.a(memcpy.o)
 .debug_aranges
                0x0000000000001290       0x30 /work/glibc-obj/libc.a(rawmemchr.o)
 .debug_aranges
                0x00000000000012c0       0x30 /work/glibc-obj/libc.a(strchrnul.o)
 .debug_aranges
                0x00000000000012f0       0x30 /work/glibc-obj/libc.a(strcmp-sse2.o)
 .debug_aranges
                0x0000000000001320       0x30 /work/glibc-obj/libc.a(strcmp-sse2-unaligned.o)
 .debug_aranges
                0x0000000000001350       0x30 /work/glibc-obj/libc.a(strcmp-ssse3.o)
 .debug_aranges
                0x0000000000001380       0x30 /work/glibc-obj/libc.a(strncmp-sse2.o)
 .debug_aranges
                0x00000000000013b0       0x30 /work/glibc-obj/libc.a(strncmp-ssse3.o)
 .debug_aranges
                0x00000000000013e0       0x30 /work/glibc-obj/libc.a(strncmp-sse4_2.o)
 .debug_aranges
                0x0000000000001410       0x30 /work/glibc-obj/libc.a(memchr-sse2.o)
 .debug_aranges
                0x0000000000001440       0x30 /work/glibc-obj/libc.a(rawmemchr-sse2.o)
 .debug_aranges
                0x0000000000001470       0x30 /work/glibc-obj/libc.a(memchr-avx2.o)
 .debug_aranges
                0x00000000000014a0       0x30 /work/glibc-obj/libc.a(rawmemchr-avx2.o)
 .debug_aranges
                0x00000000000014d0       0x30 /work/glibc-obj/libc.a(memcmp-sse2.o)
 .debug_aranges
                0x0000000000001500       0x30 /work/glibc-obj/libc.a(memcmp-avx2-movbe.o)
 .debug_aranges
                0x0000000000001530       0x30 /work/glibc-obj/libc.a(memcmp-sse4.o)
 .debug_aranges
                0x0000000000001560       0x30 /work/glibc-obj/libc.a(memcpy-ssse3.o)
 .debug_aranges
                0x0000000000001590       0x30 /work/glibc-obj/libc.a(memmove-ssse3.o)
 .debug_aranges
                0x00000000000015c0       0x30 /work/glibc-obj/libc.a(memcpy-ssse3-back.o)
 .debug_aranges
                0x00000000000015f0       0x30 /work/glibc-obj/libc.a(memmove-ssse3-back.o)
 .debug_aranges
                0x0000000000001620       0x30 /work/glibc-obj/libc.a(memmove-avx512-no-vzeroupper.o)
 .debug_aranges
                0x0000000000001650       0x30 /work/glibc-obj/libc.a(strcasecmp_l-sse2.o)
 .debug_aranges
                0x0000000000001680       0x30 /work/glibc-obj/libc.a(strcasecmp_l-ssse3.o)
 .debug_aranges
                0x00000000000016b0       0x30 /work/glibc-obj/libc.a(strcasecmp_l-sse4_2.o)
 .debug_aranges
                0x00000000000016e0       0x30 /work/glibc-obj/libc.a(strcasecmp_l-avx.o)
 .debug_aranges
                0x0000000000001710       0x30 /work/glibc-obj/libc.a(strchr-sse2.o)
 .debug_aranges
                0x0000000000001740       0x30 /work/glibc-obj/libc.a(strchrnul-sse2.o)
 .debug_aranges
                0x0000000000001770       0x30 /work/glibc-obj/libc.a(strchr-avx2.o)
 .debug_aranges
                0x00000000000017a0       0x30 /work/glibc-obj/libc.a(strchrnul-avx2.o)
 .debug_aranges
                0x00000000000017d0       0x30 /work/glibc-obj/libc.a(strlen-sse2.o)
 .debug_aranges
                0x0000000000001800       0x30 /work/glibc-obj/libc.a(strlen-avx2.o)
 .debug_aranges
                0x0000000000001830       0x30 /work/glibc-obj/libc.a(strcpy-sse2.o)
 .debug_aranges
                0x0000000000001860       0x30 /work/glibc-obj/libc.a(stpcpy-sse2.o)
 .debug_aranges
                0x0000000000001890       0x30 /work/glibc-obj/libc.a(strcpy-ssse3.o)
 .debug_aranges
                0x00000000000018c0       0x30 /work/glibc-obj/libc.a(stpcpy-ssse3.o)
 .debug_aranges
                0x00000000000018f0       0x30 /work/glibc-obj/libc.a(strcpy-sse2-unaligned.o)
 .debug_aranges
                0x0000000000001920       0x30 /work/glibc-obj/libc.a(stpcpy-sse2-unaligned.o)
 .debug_aranges
                0x0000000000001950       0x30 /work/glibc-obj/libc.a(strchr-sse2-no-bsf.o)
 .debug_aranges
                0x0000000000001980       0x30 /work/glibc-obj/libc.a(memcmp-ssse3.o)
 .debug_aranges
                0x00000000000019b0       0x30 /work/glibc-obj/libc.a(strstr-sse2-unaligned.o)
 .debug_aranges
                0x00000000000019e0       0x30 /work/glibc-obj/libc.a(strcspn-sse2.o)
 .debug_aranges
                0x0000000000001a10       0x30 /work/glibc-obj/libc.a(strcspn-c.o)
 .debug_aranges
                0x0000000000001a40       0x20 /work/glibc-obj/libc.a(varshift.o)
 .debug_aranges
                0x0000000000001a60       0x30 /work/glibc-obj/libc.a(memset-avx512-no-vzeroupper.o)
 .debug_aranges
                0x0000000000001a90       0x30 /work/glibc-obj/libc.a(memmove-sse2-unaligned-erms.o)
 .debug_aranges
                0x0000000000001ac0       0x30 /work/glibc-obj/libc.a(memmove-avx-unaligned-erms.o)
 .debug_aranges
                0x0000000000001af0       0x30 /work/glibc-obj/libc.a(memmove-avx512-unaligned-erms.o)
 .debug_aranges
                0x0000000000001b20       0x30 /work/glibc-obj/libc.a(memset-sse2-unaligned-erms.o)
 .debug_aranges
                0x0000000000001b50       0x30 /work/glibc-obj/libc.a(memset-avx2-unaligned-erms.o)
 .debug_aranges
                0x0000000000001b80       0x30 /work/glibc-obj/libc.a(memset-avx512-unaligned-erms.o)
 .debug_aranges
                0x0000000000001bb0       0x40 /work/glibc-obj/libc.a(cacheinfo.o)
 .debug_aranges
                0x0000000000001bf0       0x30 /work/glibc-obj/libc.a(strcasecmp_l-nonascii.o)
 .debug_aranges
                0x0000000000001c20       0x30 /work/glibc-obj/libc.a(wmempcpy.o)
 .debug_aranges
                0x0000000000001c50       0x30 /work/glibc-obj/libc.a(mbsrtowcs.o)
 .debug_aranges
                0x0000000000001c80       0x30 /work/glibc-obj/libc.a(wcsmbsload.o)
 .debug_aranges
                0x0000000000001cb0       0x30 /work/glibc-obj/libc.a(mbsrtowcs_l.o)
 .debug_aranges
                0x0000000000001ce0       0x30 /work/glibc-obj/libc.a(gettimeofday.o)
 .debug_aranges
                0x0000000000001d10       0x30 /work/glibc-obj/libc.a(_exit.o)
 .debug_aranges
                0x0000000000001d40       0x30 /work/glibc-obj/libc.a(getpid.o)
 .debug_aranges
                0x0000000000001d70       0x30 /work/glibc-obj/libc.a(sysconf.o)
 .debug_aranges
                0x0000000000001da0       0x30 /work/glibc-obj/libc.a(sched_getp.o)
 .debug_aranges
                0x0000000000001dd0       0x30 /work/glibc-obj/libc.a(sched_sets.o)
 .debug_aranges
                0x0000000000001e00       0x30 /work/glibc-obj/libc.a(sched_gets.o)
 .debug_aranges
                0x0000000000001e30       0x30 /work/glibc-obj/libc.a(sched_yield.o)
 .debug_aranges
                0x0000000000001e60       0x30 /work/glibc-obj/libc.a(sched_primax.o)
 .debug_aranges
                0x0000000000001e90       0x30 /work/glibc-obj/libc.a(sched_primin.o)
 .debug_aranges
                0x0000000000001ec0       0x30 /work/glibc-obj/libc.a(get_child_max.o)
 .debug_aranges
                0x0000000000001ef0       0x20 /work/glibc-obj/libc.a(environ.o)
 .debug_aranges
                0x0000000000001f10       0x30 /work/glibc-obj/libc.a(xstat.o)
 .debug_aranges
                0x0000000000001f40       0x30 /work/glibc-obj/libc.a(fxstat.o)
 .debug_aranges
                0x0000000000001f70       0x30 /work/glibc-obj/libc.a(open64.o)
 .debug_aranges
                0x0000000000001fa0       0x30 /work/glibc-obj/libc.a(read.o)
 .debug_aranges
                0x0000000000001fd0       0x30 /work/glibc-obj/libc.a(write.o)
 .debug_aranges
                0x0000000000002000       0x30 /work/glibc-obj/libc.a(lseek64.o)
 .debug_aranges
                0x0000000000002030       0x30 /work/glibc-obj/libc.a(fcntl.o)
 .debug_aranges
                0x0000000000002060       0x30 /work/glibc-obj/libc.a(close.o)
 .debug_aranges
                0x0000000000002090       0x30 /work/glibc-obj/libc.a(getcwd.o)
 .debug_aranges
                0x00000000000020c0       0x30 /work/glibc-obj/libc.a(getrlimit64.o)
 .debug_aranges
                0x00000000000020f0       0x30 /work/glibc-obj/libc.a(sbrk.o)
 .debug_aranges
                0x0000000000002120       0x30 /work/glibc-obj/libc.a(getpagesize.o)
 .debug_aranges
                0x0000000000002150       0x30 /work/glibc-obj/libc.a(getdtsz.o)
 .debug_aranges
                0x0000000000002180       0x30 /work/glibc-obj/libc.a(mmap64.o)
 .debug_aranges
                0x00000000000021b0       0x30 /work/glibc-obj/libc.a(munmap.o)
 .debug_aranges
                0x00000000000021e0       0x30 /work/glibc-obj/libc.a(mprotect.o)
 .debug_aranges
                0x0000000000002210       0x30 /work/glibc-obj/libc.a(madvise.o)
 .debug_aranges
                0x0000000000002240       0x30 /work/glibc-obj/libc.a(tsearch.o)
 .debug_aranges
                0x0000000000002270       0x30 /work/glibc-obj/libc.a(getsysstats.o)
 .debug_aranges
                0x00000000000022a0       0x30 /work/glibc-obj/libc.a(getclktck.o)
 .debug_aranges
                0x00000000000022d0       0x30 /work/glibc-obj/libc.a(init-misc.o)
 .debug_aranges
                0x0000000000002300       0x30 /work/glibc-obj/libc.a(clone.o)
 .debug_aranges
                0x0000000000002330       0x30 /work/glibc-obj/libc.a(mremap.o)
 .debug_aranges
                0x0000000000002360       0x30 /work/glibc-obj/libc.a(sysinfo.o)
 .debug_aranges
                0x0000000000002390       0x30 /work/glibc-obj/libc.a(alloca_cutoff.o)
 .debug_aranges
                0x00000000000023c0       0x30 /work/glibc-obj/libc.a(libc-cancellation.o)
 .debug_aranges
                0x00000000000023f0       0x30 /work/glibc-obj/libc.a(libc_pthread_init.o)
 .debug_aranges
                0x0000000000002420       0x20 /work/glibc-obj/libc.a(libc_multiple_threads.o)
 .debug_aranges
                0x0000000000002440       0x40 /work/glibc-obj/libc.a(register-atfork.o)
 .debug_aranges
                0x0000000000002480       0x30 /work/glibc-obj/libc.a(chk_fail.o)
 .debug_aranges
                0x00000000000024b0       0x30 /work/glibc-obj/libc.a(fortify_fail.o)
 .debug_aranges
                0x00000000000024e0       0x30 /work/glibc-obj/libc.a(res_libc.o)
 .debug_aranges
                0x0000000000002510       0x30 /work/glibc-obj/libc.a(res_randomid.o)
 .debug_aranges
                0x0000000000002540       0x40 /work/glibc-obj/libc.a(res-close.o)
 .debug_aranges
                0x0000000000002580       0x30 /work/glibc-obj/libc.a(resolv_context.o)
 .debug_aranges
                0x00000000000025b0       0x50 /work/glibc-obj/libc.a(resolv_conf.o)
 .debug_aranges
                0x0000000000002600       0x30 /work/glibc-obj/libc.a(dl-debug.o)
 .debug_aranges
                0x0000000000002630       0x30 /work/glibc-obj/libc.a(dl-tls.o)
 .debug_aranges
                0x0000000000002660       0x30 /work/glibc-obj/libc.a(dl-execstack.o)
 .debug_aranges
                0x0000000000002690       0x30 /work/glibc-obj/libc.a(dl-tunables.o)
 .debug_aranges
                0x00000000000026c0       0x30 /work/glibc-obj/libc.a(dl-support.o)
 .debug_aranges
                0x00000000000026f0       0x30 /work/glibc-obj/libc.a(dl-iteratephdr.o)
 .debug_aranges
                0x0000000000002720       0x30 /work/glibc-obj/libc.a(enbl-secure.o)
 .debug_aranges
                0x0000000000002750       0x30 /work/glibc-obj/libc.a(dl-profstub.o)
 .debug_aranges
                0x0000000000002780       0x30 /work/glibc-obj/libc.a(dl-sysdep.o)
 .debug_aranges
                0x00000000000027b0       0x30 /work/glibc-obj/libc.a(dl-error.o)
 .debug_aranges
                0x00000000000027e0       0x40 /work/glibc-obj/libc.a(init-first.o)
 .debug_aranges
                0x0000000000002820       0x30 /work/glibc-obj/libc.a(sysdep.o)
 .debug_aranges
                0x0000000000002850       0x30 /work/glibc-obj/libc.a(gconv_open.o)
 .debug_aranges
                0x0000000000002880       0x30 /work/glibc-obj/libc.a(gconv.o)
 .debug_aranges
                0x00000000000028b0       0x30 /work/glibc-obj/libc.a(gconv_close.o)
 .debug_aranges
                0x00000000000028e0       0x60 /work/glibc-obj/libc.a(gconv_db.o)
 .debug_aranges
                0x0000000000002940       0x40 /work/glibc-obj/libc.a(gconv_conf.o)
 .debug_aranges
                0x0000000000002980       0x30 /work/glibc-obj/libc.a(gconv_builtin.o)
 .debug_aranges
                0x00000000000029b0       0x30 /work/glibc-obj/libc.a(gconv_simple.o)
 .debug_aranges
                0x00000000000029e0       0x30 /work/glibc-obj/libc.a(gconv_trans.o)
 .debug_aranges
                0x0000000000002a10       0x40 /work/glibc-obj/libc.a(gconv_cache.o)
 .debug_aranges
                0x0000000000002a50       0x50 /work/glibc-obj/libc.a(gconv_dl.o)
 .debug_aranges
                0x0000000000002aa0       0x50 /work/glibc-obj/libc.a(setlocale.o)
 .debug_aranges
                0x0000000000002af0       0x30 /work/glibc-obj/libc.a(findlocale.o)
 .debug_aranges
                0x0000000000002b20       0x30 /work/glibc-obj/libc.a(loadlocale.o)
 .debug_aranges
                0x0000000000002b50       0x40 /work/glibc-obj/libc.a(loadarchive.o)
 .debug_aranges
                0x0000000000002b90       0x30 /work/glibc-obj/libc.a(lc-ctype.o)
 .debug_aranges
                0x0000000000002bc0       0x20 /work/glibc-obj/libc.a(C-ctype.o)
 .debug_aranges
                0x0000000000002be0       0x20 /work/glibc-obj/libc.a(SYS_libc.o)
 .debug_aranges
                0x0000000000002c00       0x20 /work/glibc-obj/libc.a(C_name.o)
 .debug_aranges
                0x0000000000002c20       0x20 /work/glibc-obj/libc.a(xlocale.o)
 .debug_aranges
                0x0000000000002c40       0x30 /work/glibc-obj/libc.a(localename.o)
 .debug_aranges
                0x0000000000002c70       0x20 /work/glibc-obj/libc.a(global-locale.o)
 .debug_aranges
                0x0000000000002c90       0x30 /work/glibc-obj/libc.a(setfpucw.o)
 .debug_aranges
                0x0000000000002cc0       0x20 /work/glibc-obj/libc.a(fpu_control.o)
 .debug_aranges
                0x0000000000002ce0       0x30 /work/glibc-obj/libc.a(setjmp.o)
 .debug_aranges
                0x0000000000002d10       0x30 /work/glibc-obj/libc.a(sigjmp.o)
 .debug_aranges
                0x0000000000002d40       0x30 /work/glibc-obj/libc.a(qsort.o)
 .debug_aranges
                0x0000000000002d70       0x40 /work/glibc-obj/libc.a(setenv.o)
 .debug_aranges
                0x0000000000002db0       0x30 /work/glibc-obj/libc.a(secure-getenv.o)
 .debug_aranges
                0x0000000000002de0       0x30 /work/glibc-obj/libc.a(strtol.o)
 .debug_aranges
                0x0000000000002e10       0x30 /work/glibc-obj/libc.a(strtol_l.o)
 .debug_aranges
                0x0000000000002e40       0x30 /work/glibc-obj/libc.a(vfprintf.o)
 .debug_aranges
                0x0000000000002e70       0x30 /work/glibc-obj/libc.a(printf_fp.o)
 .debug_aranges
                0x0000000000002ea0       0x30 /work/glibc-obj/libc.a(reg-printf.o)
 .debug_aranges
                0x0000000000002ed0       0x30 /work/glibc-obj/libc.a(printf_fphex.o)
 .debug_aranges
                0x0000000000002f00       0x40 /work/glibc-obj/libc.a(reg-modifier.o)
 .debug_aranges
                0x0000000000002f40       0x30 /work/glibc-obj/libc.a(reg-type.o)
 .debug_aranges
                0x0000000000002f70       0x30 /work/glibc-obj/libc.a(vfwprintf.o)
 .debug_aranges
                0x0000000000002fa0       0x30 /work/glibc-obj/libc.a(funlockfile.o)
 .debug_aranges
                0x0000000000002fd0       0x30 /work/glibc-obj/libc.a(printf-parsemb.o)
 .debug_aranges
                0x0000000000003000       0x30 /work/glibc-obj/libc.a(printf-parsewc.o)
 .debug_aranges
                0x0000000000003030       0x30 /work/glibc-obj/libc.a(filedoalloc.o)
 .debug_aranges
                0x0000000000003060       0x40 /work/glibc-obj/libc.a(iofputs.o)
 .debug_aranges
                0x00000000000030a0       0x30 /work/glibc-obj/libc.a(wfiledoalloc.o)
 .debug_aranges
                0x00000000000030d0       0x40 /work/glibc-obj/libc.a(iogetdelim.o)
 .debug_aranges
                0x0000000000003110       0x30 /work/glibc-obj/libc.a(iogetline.o)
 .debug_aranges
                0x0000000000003140       0x30 /work/glibc-obj/libc.a(iopadn.o)
 .debug_aranges
                0x0000000000003170       0x30 /work/glibc-obj/libc.a(iowpadn.o)
 .debug_aranges
                0x00000000000031a0       0x30 /work/glibc-obj/libc.a(wgenops.o)
 .debug_aranges
                0x00000000000031d0       0x30 /work/glibc-obj/libc.a(iofwide.o)
 .debug_aranges
                0x0000000000003200       0x30 /work/glibc-obj/libc.a(scratch_buffer_grow_preserve.o)
 .debug_aranges
                0x0000000000003230       0x30 /work/glibc-obj/libc.a(scratch_buffer_set_array_size.o)
 .debug_aranges
                0x0000000000003260       0x30 /work/glibc-obj/libc.a(dynarray_at_failure.o)
 .debug_aranges
                0x0000000000003290       0x30 /work/glibc-obj/libc.a(dynarray_emplace_enlarge.o)
 .debug_aranges
                0x00000000000032c0       0x30 /work/glibc-obj/libc.a(alloc_buffer_alloc_array.o)
 .debug_aranges
                0x00000000000032f0       0x30 /work/glibc-obj/libc.a(alloc_buffer_allocate.o)
 .debug_aranges
                0x0000000000003320       0x30 /work/glibc-obj/libc.a(alloc_buffer_copy_string.o)
 .debug_aranges
                0x0000000000003350       0x30 /work/glibc-obj/libc.a(alloc_buffer_create_failure.o)
 .debug_aranges
                0x0000000000003380       0x30 /work/glibc-obj/libc.a(strndup.o)
 .debug_aranges
                0x00000000000033b0       0x30 /work/glibc-obj/libc.a(_strerror.o)
 .debug_aranges
                0x00000000000033e0       0x30 /work/glibc-obj/libc.a(strnlen.o)
 .debug_aranges
                0x0000000000003410       0x30 /work/glibc-obj/libc.a(strrchr.o)
 .debug_aranges
                0x0000000000003440       0x30 /work/glibc-obj/libc.a(strtok_r.o)
 .debug_aranges
                0x0000000000003470       0x30 /work/glibc-obj/libc.a(memmem.o)
 .debug_aranges
                0x00000000000034a0       0x30 /work/glibc-obj/libc.a(argz-ctsep.o)
 .debug_aranges
                0x00000000000034d0       0x30 /work/glibc-obj/libc.a(argz-addsep.o)
 .debug_aranges
                0x0000000000003500       0x30 /work/glibc-obj/libc.a(strrchr-sse2.o)
 .debug_aranges
                0x0000000000003530       0x30 /work/glibc-obj/libc.a(strrchr-avx2.o)
 .debug_aranges
                0x0000000000003560       0x30 /work/glibc-obj/libc.a(strnlen-sse2.o)
 .debug_aranges
                0x0000000000003590       0x30 /work/glibc-obj/libc.a(strnlen-avx2.o)
 .debug_aranges
                0x00000000000035c0       0x30 /work/glibc-obj/libc.a(wcslen.o)
 .debug_aranges
                0x00000000000035f0       0x30 /work/glibc-obj/libc.a(wmemcpy.o)
 .debug_aranges
                0x0000000000003620       0x30 /work/glibc-obj/libc.a(wmemmove.o)
 .debug_aranges
                0x0000000000003650       0x30 /work/glibc-obj/libc.a(wmemset.o)
 .debug_aranges
                0x0000000000003680       0x30 /work/glibc-obj/libc.a(btowc.o)
 .debug_aranges
                0x00000000000036b0       0x30 /work/glibc-obj/libc.a(wcrtomb.o)
 .debug_aranges
                0x00000000000036e0       0x30 /work/glibc-obj/libc.a(wcsrtombs.o)
 .debug_aranges
                0x0000000000003710       0x30 /work/glibc-obj/libc.a(wcsnlen.o)
 .debug_aranges
                0x0000000000003740       0x30 /work/glibc-obj/libc.a(wcschrnul.o)
 .debug_aranges
                0x0000000000003770       0x30 /work/glibc-obj/libc.a(wcsnlen-sse4_1.o)
 .debug_aranges
                0x00000000000037a0       0x30 /work/glibc-obj/libc.a(wcsnlen-c.o)
 .debug_aranges
                0x00000000000037d0       0x30 /work/glibc-obj/libc.a(wcslen-sse2.o)
 .debug_aranges
                0x0000000000003800       0x30 /work/glibc-obj/libc.a(wcslen-avx2.o)
 .debug_aranges
                0x0000000000003830       0x30 /work/glibc-obj/libc.a(wcsnlen-avx2.o)
 .debug_aranges
                0x0000000000003860       0x30 /work/glibc-obj/libc.a(time.o)
 .debug_aranges
                0x0000000000003890       0x30 /work/glibc-obj/libc.a(opendir.o)
 .debug_aranges
                0x00000000000038c0       0x30 /work/glibc-obj/libc.a(closedir.o)
 .debug_aranges
                0x00000000000038f0       0x30 /work/glibc-obj/libc.a(readdir.o)
 .debug_aranges
                0x0000000000003920       0x30 /work/glibc-obj/libc.a(rewinddir.o)
 .debug_aranges
                0x0000000000003950       0x30 /work/glibc-obj/libc.a(getdents.o)
 .debug_aranges
                0x0000000000003980       0x30 /work/glibc-obj/libc.a(fdopendir.o)
 .debug_aranges
                0x00000000000039b0       0x30 /work/glibc-obj/libc.a(uname.o)
 .debug_aranges
                0x00000000000039e0       0x30 /work/glibc-obj/libc.a(getuid.o)
 .debug_aranges
                0x0000000000003a10       0x30 /work/glibc-obj/libc.a(geteuid.o)
 .debug_aranges
                0x0000000000003a40       0x30 /work/glibc-obj/libc.a(getgid.o)
 .debug_aranges
                0x0000000000003a70       0x30 /work/glibc-obj/libc.a(getegid.o)
 .debug_aranges
                0x0000000000003aa0       0x30 /work/glibc-obj/libc.a(lxstat.o)
 .debug_aranges
                0x0000000000003ad0       0x30 /work/glibc-obj/libc.a(fxstatat.o)
 .debug_aranges
                0x0000000000003b00       0x30 /work/glibc-obj/libc.a(openat64.o)
 .debug_aranges
                0x0000000000003b30       0x30 /work/glibc-obj/libc.a(isatty.o)
 .debug_aranges
                0x0000000000003b60       0x30 /work/glibc-obj/libc.a(tcgetattr.o)
 .debug_aranges
                0x0000000000003b90       0x30 /work/glibc-obj/libc.a(brk.o)
 .debug_aranges
                0x0000000000003bc0       0x30 /work/glibc-obj/libc.a(wctrans.o)
 .debug_aranges
                0x0000000000003bf0       0x30 /work/glibc-obj/libc.a(towctrans.o)
 .debug_aranges
                0x0000000000003c20       0x30 /work/glibc-obj/libc.a(readonly-area.o)
 .debug_aranges
                0x0000000000003c50       0x30 /work/glibc-obj/libc.a(res_init.o)
 .debug_aranges
                0x0000000000003c80       0x30 /work/glibc-obj/libc.a(res_hconf.o)
 .debug_aranges
                0x0000000000003cb0       0x30 /work/glibc-obj/libc.a(dl-load.o)
 .debug_aranges
                0x0000000000003ce0       0x30 /work/glibc-obj/libc.a(dl-lookup.o)
 .debug_aranges
                0x0000000000003d10       0x30 /work/glibc-obj/libc.a(dl-object.o)
 .debug_aranges
                0x0000000000003d40       0x30 /work/glibc-obj/libc.a(dl-reloc.o)
 .debug_aranges
                0x0000000000003d70       0x30 /work/glibc-obj/libc.a(dl-hwcaps.o)
 .debug_aranges
                0x0000000000003da0       0x30 /work/glibc-obj/libc.a(dl-misc.o)
 .debug_aranges
                0x0000000000003dd0       0x30 /work/glibc-obj/libc.a(dl-profile.o)
 .debug_aranges
                0x0000000000003e00       0x30 /work/glibc-obj/libc.a(dl-origin.o)
 .debug_aranges
                0x0000000000003e30       0x30 /work/glibc-obj/libc.a(dl-scope.o)
 .debug_aranges
                0x0000000000003e60       0x30 /work/glibc-obj/libc.a(dl-trampoline.o)
 .debug_aranges
                0x0000000000003e90       0x30 /work/glibc-obj/libc.a(dl-exception.o)
 .debug_aranges
                0x0000000000003ec0       0x30 /work/glibc-obj/libc.a(dl-cache.o)
 .debug_aranges
                0x0000000000003ef0       0x30 /work/glibc-obj/libc.a(dl-tlsdesc.o)
 .debug_aranges
                0x0000000000003f20       0x50 /work/glibc-obj/libc.a(dl-libc.o)
 .debug_aranges
                0x0000000000003f70       0x20 /work/glibc-obj/libc.a(lc-monetary.o)
 .debug_aranges
                0x0000000000003f90       0x20 /work/glibc-obj/libc.a(lc-numeric.o)
 .debug_aranges
                0x0000000000003fb0       0x20 /work/glibc-obj/libc.a(C-messages.o)
 .debug_aranges
                0x0000000000003fd0       0x20 /work/glibc-obj/libc.a(C-monetary.o)
 .debug_aranges
                0x0000000000003ff0       0x20 /work/glibc-obj/libc.a(C-numeric.o)
 .debug_aranges
                0x0000000000004010       0x20 /work/glibc-obj/libc.a(C-time.o)
 .debug_aranges
                0x0000000000004030       0x20 /work/glibc-obj/libc.a(C-paper.o)
 .debug_aranges
                0x0000000000004050       0x20 /work/glibc-obj/libc.a(C-name.o)
 .debug_aranges
                0x0000000000004070       0x20 /work/glibc-obj/libc.a(C-address.o)
 .debug_aranges
                0x0000000000004090       0x20 /work/glibc-obj/libc.a(C-telephone.o)
 .debug_aranges
                0x00000000000040b0       0x20 /work/glibc-obj/libc.a(C-measurement.o)
 .debug_aranges
                0x00000000000040d0       0x20 /work/glibc-obj/libc.a(C-identification.o)
 .debug_aranges
                0x00000000000040f0       0x20 /work/glibc-obj/libc.a(C-collate.o)
 .debug_aranges
                0x0000000000004110       0x30 /work/glibc-obj/libc.a(cmp.o)
 .debug_aranges
                0x0000000000004140       0x30 /work/glibc-obj/libc.a(divrem.o)
 .debug_aranges
                0x0000000000004170       0x30 /work/glibc-obj/libc.a(lshift.o)
 .debug_aranges
                0x00000000000041a0       0x30 /work/glibc-obj/libc.a(rshift.o)
 .debug_aranges
                0x00000000000041d0       0x30 /work/glibc-obj/libc.a(mul.o)
 .debug_aranges
                0x0000000000004200       0x30 /work/glibc-obj/libc.a(mul_1.o)
 .debug_aranges
                0x0000000000004230       0x30 /work/glibc-obj/libc.a(mul_n.o)
 .debug_aranges
                0x0000000000004260       0x30 /work/glibc-obj/libc.a(sub_n.o)
 .debug_aranges
                0x0000000000004290       0x30 /work/glibc-obj/libc.a(submul_1.o)
 .debug_aranges
                0x00000000000042c0       0x30 /work/glibc-obj/libc.a(dbl2mpn.o)
 .debug_aranges
                0x00000000000042f0       0x30 /work/glibc-obj/libc.a(ldbl2mpn.o)
 .debug_aranges
                0x0000000000004320       0x30 /work/glibc-obj/libc.a(float1282mpn.o)
 .debug_aranges
                0x0000000000004350       0x20 /work/glibc-obj/libc.a(fpioconst.o)
 .debug_aranges
                0x0000000000004370       0x30 /work/glibc-obj/libc.a(_itoa.o)
 .debug_aranges
                0x00000000000043a0       0x20 /work/glibc-obj/libc.a(itoa-digits.o)
 .debug_aranges
                0x00000000000043c0       0x20 /work/glibc-obj/libc.a(itoa-udigits.o)
 .debug_aranges
                0x00000000000043e0       0x20 /work/glibc-obj/libc.a(itowa-digits.o)
 .debug_aranges
                0x0000000000004400       0x30 /work/glibc-obj/libc.a(snprintf.o)
 .debug_aranges
                0x0000000000004430       0x30 /work/glibc-obj/libc.a(getline.o)
 .debug_aranges
                0x0000000000004460       0x20 /work/glibc-obj/libc.a(errlist.o)
 .debug_aranges
                0x0000000000004480       0x30 /work/glibc-obj/libc.a(vsnprintf.o)
 .debug_aranges
                0x00000000000044b0       0x40 /work/glibc-obj/libc.a(sdlerror.o)
 .debug_aranges
                0x00000000000044f0       0x30 /work/glibc-obj/libc.a(sdladdr.o)
 .debug_aranges
                0x0000000000004520       0x30 /work/glibc-obj/libc.a(sdladdr1.o)
 .debug_aranges
                0x0000000000004550       0x30 /work/glibc-obj/libc.a(sdlinfo.o)
 .debug_aranges
                0x0000000000004580       0x30 /work/glibc-obj/libc.a(sdlmopen.o)
 .debug_aranges
                0x00000000000045b0       0x30 /work/glibc-obj/libc.a(alloc_buffer_copy_bytes.o)
 .debug_aranges
                0x00000000000045e0       0x30 /work/glibc-obj/libc.a(strerror.o)
 .debug_aranges
                0x0000000000004610       0x30 /work/glibc-obj/libc.a(strpbrk.o)
 .debug_aranges
                0x0000000000004640       0x30 /work/glibc-obj/libc.a(strspn.o)
 .debug_aranges
                0x0000000000004670       0x30 /work/glibc-obj/libc.a(strcasecmp.o)
 .debug_aranges
                0x00000000000046a0       0x30 /work/glibc-obj/libc.a(strncase.o)
 .debug_aranges
                0x00000000000046d0       0x30 /work/glibc-obj/libc.a(strsep.o)
 .debug_aranges
                0x0000000000004700       0x30 /work/glibc-obj/libc.a(strncase_l-sse2.o)
 .debug_aranges
                0x0000000000004730       0x30 /work/glibc-obj/libc.a(strncase_l-ssse3.o)
 .debug_aranges
                0x0000000000004760       0x30 /work/glibc-obj/libc.a(strncase_l-sse4_2.o)
 .debug_aranges
                0x0000000000004790       0x30 /work/glibc-obj/libc.a(strncase_l-avx.o)
 .debug_aranges
                0x00000000000047c0       0x30 /work/glibc-obj/libc.a(strpbrk-sse2.o)
 .debug_aranges
                0x00000000000047f0       0x30 /work/glibc-obj/libc.a(strspn-sse2.o)
 .debug_aranges
                0x0000000000004820       0x30 /work/glibc-obj/libc.a(strpbrk-c.o)
 .debug_aranges
                0x0000000000004850       0x30 /work/glibc-obj/libc.a(strspn-c.o)
 .debug_aranges
                0x0000000000004880       0x30 /work/glibc-obj/libc.a(strncase_l-nonascii.o)
 .debug_aranges
                0x00000000000048b0       0x30 /work/glibc-obj/libc.a(ioctl.o)
 .debug_aranges
                0x00000000000048e0       0x30 /work/glibc-obj/libc.a(gethostname.o)
 .debug_aranges
                0x0000000000004910       0x30 /work/glibc-obj/libc.a(socket.o)
 .debug_aranges
                0x0000000000004940       0x30 /work/glibc-obj/libc.a(profil.o)
 .debug_aranges
                0x0000000000004970       0x30 /work/glibc-obj/libc.a(prof-freq.o)
 .debug_aranges
                0x00000000000049a0       0x30 /work/glibc-obj/libc.a(inet_mkadr.o)
 .debug_aranges
                0x00000000000049d0       0x30 /work/glibc-obj/libc.a(inet6_scopeid_pton.o)
 .debug_aranges
                0x0000000000004a00       0x30 /work/glibc-obj/libc.a(ifreq.o)
 .debug_aranges
                0x0000000000004a30       0x30 /work/glibc-obj/libc.a(inet_addr.o)
 .debug_aranges
                0x0000000000004a60       0x30 /work/glibc-obj/libc.a(inet_pton.o)
 .debug_aranges
                0x0000000000004a90       0x30 /work/glibc-obj/libc.a(dl-runtime.o)
 .debug_aranges
                0x0000000000004ac0       0x30 /work/glibc-obj/libc.a(dl-open.o)
 .debug_aranges
                0x0000000000004af0       0x30 /work/glibc-obj/libc.a(dl-close.o)
 .debug_aranges
                0x0000000000004b20       0x30 /work/glibc-obj/libc.a(dl-sort-maps.o)
 .debug_aranges
                0x0000000000004b50       0x30 /work/glibc-obj/libc.a(tlsdesc.o)
 .debug_aranges
                0x0000000000004b80       0x30 /work/glibc-obj/libc.a(dl-addr.o)
 .debug_aranges
                0x0000000000004bb0       0x30 /work/glibc-obj/libc.a(dl-addr-obj.o)
 .debug_aranges
                0x0000000000004be0       0x30 /work/glibc-obj/libc.a(add_n.o)
 .debug_aranges
                0x0000000000004c10       0x30 /work/glibc-obj/libc.a(addmul_1.o)
 .debug_aranges
                0x0000000000004c40       0x30 /work/glibc-obj/libc.a(sdlopen.o)
 .debug_aranges
                0x0000000000004c70       0x30 /work/glibc-obj/libc.a(sdlclose.o)
 .debug_aranges
                0x0000000000004ca0       0x30 /work/glibc-obj/libc.a(sdlsym.o)
 .debug_aranges
                0x0000000000004cd0       0x30 /work/glibc-obj/libc.a(sdlvsym.o)
 .debug_aranges
                0x0000000000004d00       0x30 /work/glibc-obj/libc.a(setitimer.o)
 .debug_aranges
                0x0000000000004d30       0x30 /work/glibc-obj/libc.a(opensock.o)
 .debug_aranges
                0x0000000000004d60       0x30 /work/glibc-obj/libc.a(if_index.o)
 .debug_aranges
                0x0000000000004d90       0x40 /work/glibc-obj/libc.a(ifaddrs.o)
 .debug_aranges
                0x0000000000004dd0       0x30 /work/glibc-obj/libc.a(netlink_assert_response.o)
 .debug_aranges
                0x0000000000004e00       0x30 /work/glibc-obj/libc.a(dl-deps.o)
 .debug_aranges
                0x0000000000004e30       0x30 /work/glibc-obj/libc.a(dl-init.o)
 .debug_aranges
                0x0000000000004e60       0x30 /work/glibc-obj/libc.a(dl-version.o)
 .debug_aranges
                0x0000000000004e90       0x30 /work/glibc-obj/libc.a(dl-sym.o)
 .debug_aranges
                0x0000000000004ec0       0x30 /work/glibc-obj/libc.a(strncpy.o)
 .debug_aranges
                0x0000000000004ef0       0x30 /work/glibc-obj/libc.a(strncpy-c.o)
 .debug_aranges
                0x0000000000004f20       0x30 /work/glibc-obj/libc.a(strncpy-ssse3.o)
 .debug_aranges
                0x0000000000004f50       0x30 /work/glibc-obj/libc.a(strncpy-sse2-unaligned.o)
 .debug_aranges
                0x0000000000004f80       0x30 /work/glibc-obj/libc.a(access.o)
 .debug_aranges
                0x0000000000004fb0       0x30 /work/glibc-obj/libc.a(bind.o)
 .debug_aranges
                0x0000000000004fe0       0x30 /work/glibc-obj/libc.a(getsockname.o)
 .debug_aranges
                0x0000000000005010       0x30 /work/glibc-obj/libc.a(recvmsg.o)
 .debug_aranges
                0x0000000000005040       0x30 /work/glibc-obj/libc.a(sendto.o)
 .debug_aranges
                0x0000000000005070       0x40 /work/glibc-obj/csu/crtn.o

.debug_pubnames
 *(.debug_pubnames)

.debug_info     0x0000000000000000   0x2ebb2f
 *(.debug_info .gnu.linkonce.wi.*)
 .debug_info    0x0000000000000000      0x9dd /work/glibc-obj/csu/crt1.o
 .debug_info    0x00000000000009dd       0x22 /work/glibc-obj/csu/crti.o
 .debug_info    0x00000000000009ff      0x44c threads.o
 .debug_info    0x0000000000000e4b     0x8d90 /work/glibc-obj/nptl/libpthread.a(pthread_create.o)
 .debug_info    0x0000000000009bdb     0x1fe4 /work/glibc-obj/nptl/libpthread.a(pthread_join.o)
 .debug_info    0x000000000000bbbf     0x232d /work/glibc-obj/nptl/libpthread.a(pthread_join_common.o)
 .debug_info    0x000000000000deec     0x2f8f /work/glibc-obj/nptl/libpthread.a(pthread_mutex_lock.o)
 .debug_info    0x0000000000010e7b     0x290b /work/glibc-obj/nptl/libpthread.a(pthread_mutex_trylock.o)
 .debug_info    0x0000000000013786     0x28f7 /work/glibc-obj/nptl/libpthread.a(pthread_mutex_unlock.o)
 .debug_info    0x000000000001607d     0x2020 /work/glibc-obj/nptl/libpthread.a(pthread_key_create.o)
 .debug_info    0x000000000001809d     0x2016 /work/glibc-obj/nptl/libpthread.a(pthread_key_delete.o)
 .debug_info    0x000000000001a0b3     0x2043 /work/glibc-obj/nptl/libpthread.a(pthread_getspecific.o)
 .debug_info    0x000000000001c0f6     0x2081 /work/glibc-obj/nptl/libpthread.a(pthread_setspecific.o)
 .debug_info    0x000000000001e177     0x21c3 /work/glibc-obj/nptl/libpthread.a(pthread_cancel.o)
 .debug_info    0x000000000002033a     0x30ab /work/glibc-obj/nptl/libpthread.a(pthread_once.o)
 .debug_info    0x00000000000233e5     0x20ec /work/glibc-obj/nptl/libpthread.a(cleanup_compat.o)
 .debug_info    0x00000000000254d1       0x2e /work/glibc-obj/nptl/libpthread.a(cancellation.o)
 .debug_info    0x00000000000254ff       0x2e /work/glibc-obj/nptl/libpthread.a(lowlevellock.o)
 .debug_info    0x000000000002552d     0x212e /work/glibc-obj/nptl/libpthread.a(pause.o)
 .debug_info    0x000000000002765b     0x265a /work/glibc-obj/nptl/libpthread.a(tpp.o)
 .debug_info    0x0000000000029cb5     0x3f9f /work/glibc-obj/nptl/libpthread.a(elision-lock.o)
 .debug_info    0x000000000002dc54     0x1fec /work/glibc-obj/nptl/libpthread.a(elision-unlock.o)
 .debug_info    0x000000000002fc40     0x2295 /work/glibc-obj/nptl/libpthread.a(elision-trylock.o)
 .debug_info    0x0000000000031ed5     0x5247 /work/glibc-obj/nptl/libpthread.a(nptl-init.o)
 .debug_info    0x000000000003711c     0x205f /work/glibc-obj/nptl/libpthread.a(vars.o)
 .debug_info    0x000000000003917b     0x1f90 /work/glibc-obj/nptl/libpthread.a(events.o)
 .debug_info    0x000000000003b10b     0x2d0e /work/glibc-obj/nptl/libpthread.a(unwind.o)
 .debug_info    0x000000000003de19     0x24e5 /work/glibc-obj/nptl/libpthread.a(sigaction.o)
 .debug_info    0x00000000000402fe     0x4c3c /work/glibc-obj/libc.a(libc-start.o)
 .debug_info    0x0000000000044f3a      0xb2e /work/glibc-obj/libc.a(check_fds.o)
 .debug_info    0x0000000000045a68     0x3fbe /work/glibc-obj/libc.a(libc-tls.o)
 .debug_info    0x0000000000049a26      0x244 /work/glibc-obj/libc.a(elf-init.o)
 .debug_info    0x0000000000049c6a      0x700 /work/glibc-obj/libc.a(errno.o)
 .debug_info    0x000000000004a36a     0x4122 /work/glibc-obj/libc.a(assert.o)
 .debug_info    0x000000000004e48c     0x1ad9 /work/glibc-obj/libc.a(ctype-info.o)
 .debug_info    0x000000000004ff65     0x2656 /work/glibc-obj/libc.a(dcgettext.o)
 .debug_info    0x00000000000525bb     0x591f /work/glibc-obj/libc.a(dcigettext.o)
 .debug_info    0x0000000000057eda     0x360e /work/glibc-obj/libc.a(finddomain.o)
 .debug_info    0x000000000005b4e8     0x3e0a /work/glibc-obj/libc.a(loadmsgcat.o)
 .debug_info    0x000000000005f2f2     0x37c2 /work/glibc-obj/libc.a(localealias.o)
 .debug_info    0x0000000000062ab4     0x160e /work/glibc-obj/libc.a(l10nflist.o)
 .debug_info    0x00000000000640c2      0x297 /work/glibc-obj/libc.a(explodename.o)
 .debug_info    0x0000000000064359      0xd57 /work/glibc-obj/libc.a(plural.o)
 .debug_info    0x00000000000650b0     0x10bd /work/glibc-obj/libc.a(plural-exp.o)
 .debug_info    0x000000000006616d       0xa6 /work/glibc-obj/libc.a(hash-string.o)
 .debug_info    0x0000000000066213       0x2e /work/glibc-obj/libc.a(bsd-_setjmp.o)
 .debug_info    0x0000000000066241      0x2ce /work/glibc-obj/libc.a(longjmp.o)
 .debug_info    0x000000000006650f       0x2e /work/glibc-obj/libc.a(__longjmp.o)
 .debug_info    0x000000000006653d     0x1e74 /work/glibc-obj/libc.a(jmp-unwind.o)
 .debug_info    0x00000000000683b1      0xc41 /work/glibc-obj/libc.a(raise.o)
 .debug_info    0x0000000000068ff2      0x8a2 /work/glibc-obj/libc.a(sigprocmask.o)
 .debug_info    0x0000000000069894     0x2da6 /work/glibc-obj/libc.a(abort.o)
 .debug_info    0x000000000006c63a     0x208e /work/glibc-obj/libc.a(msort.o)
 .debug_info    0x000000000006e6c8      0x860 /work/glibc-obj/libc.a(getenv.o)
 .debug_info    0x000000000006ef28     0x2b9b /work/glibc-obj/libc.a(exit.o)
 .debug_info    0x0000000000071ac3     0x21fd /work/glibc-obj/libc.a(cxa_atexit.o)
 .debug_info    0x0000000000073cc0      0xe5f /work/glibc-obj/libc.a(strtoul.o)
 .debug_info    0x0000000000074b1f     0x1e6a /work/glibc-obj/libc.a(strtoul_l.o)
 .debug_info    0x0000000000076989      0x1cc /work/glibc-obj/libc.a(grouping.o)
 .debug_info    0x0000000000076b55     0x2ce1 /work/glibc-obj/libc.a(fprintf.o)
 .debug_info    0x0000000000079836     0x2cd0 /work/glibc-obj/libc.a(asprintf.o)
 .debug_info    0x000000000007c506     0x311a /work/glibc-obj/libc.a(fxprintf.o)
 .debug_info    0x000000000007f620     0x3744 /work/glibc-obj/libc.a(iofclose.o)
 .debug_info    0x0000000000082d64     0x2e7f /work/glibc-obj/libc.a(iofflush.o)
 .debug_info    0x0000000000085be3     0x2e7d /work/glibc-obj/libc.a(iofopen.o)
 .debug_info    0x0000000000088a60     0x2eb5 /work/glibc-obj/libc.a(iofwrite.o)
 .debug_info    0x000000000008b915     0x4311 /work/glibc-obj/libc.a(wfileops.o)
 .debug_info    0x000000000008fc26     0x2fde /work/glibc-obj/libc.a(vasprintf.o)
 .debug_info    0x0000000000092c04     0x43d1 /work/glibc-obj/libc.a(libc_fatal.o)
 .debug_info    0x0000000000096fd5     0x41aa /work/glibc-obj/libc.a(vtables.o)
 .debug_info    0x000000000009b17f     0x2c9e /work/glibc-obj/libc.a(iofgets_u.o)
 .debug_info    0x000000000009de1d     0x5ea4 /work/glibc-obj/libc.a(fileops.o)
 .debug_info    0x00000000000a3cc1     0x55d7 /work/glibc-obj/libc.a(genops.o)
 .debug_info    0x00000000000a9298     0x2c9a /work/glibc-obj/libc.a(stdfiles.o)
 .debug_info    0x00000000000abf32     0x2c28 /work/glibc-obj/libc.a(stdio.o)
 .debug_info    0x00000000000aeb5a     0x34ec /work/glibc-obj/libc.a(strops.o)
 .debug_info    0x00000000000b2046     0xc157 /work/glibc-obj/libc.a(malloc.o)
 .debug_info    0x00000000000be19d      0xbcc /work/glibc-obj/libc.a(morecore.o)
 .debug_info    0x00000000000bed69      0x216 /work/glibc-obj/libc.a(thread-freeres.o)
 .debug_info    0x00000000000bef7f     0x33aa /work/glibc-obj/libc.a(strchr.o)
 .debug_info    0x00000000000c2329     0x33d1 /work/glibc-obj/libc.a(strcmp.o)
 .debug_info    0x00000000000c56fa     0x33db /work/glibc-obj/libc.a(strcpy.o)
 .debug_info    0x00000000000c8ad5     0x33d1 /work/glibc-obj/libc.a(strcspn.o)
 .debug_info    0x00000000000cbea6      0x219 /work/glibc-obj/libc.a(strdup.o)
 .debug_info    0x00000000000cc0bf     0x33a5 /work/glibc-obj/libc.a(strlen.o)
 .debug_info    0x00000000000cf464     0x33d6 /work/glibc-obj/libc.a(strncmp.o)
 .debug_info    0x00000000000d283a     0x3956 /work/glibc-obj/libc.a(strstr.o)
 .debug_info    0x00000000000d6190     0x33af /work/glibc-obj/libc.a(memchr.o)
 .debug_info    0x00000000000d953f     0x33c6 /work/glibc-obj/libc.a(memcmp.o)
 .debug_info    0x00000000000dc905     0x33c6 /work/glibc-obj/libc.a(memmove.o)
 .debug_info    0x00000000000dfccb     0x33c6 /work/glibc-obj/libc.a(memset.o)
 .debug_info    0x00000000000e3091     0x33d0 /work/glibc-obj/libc.a(mempcpy.o)
 .debug_info    0x00000000000e6461     0x33db /work/glibc-obj/libc.a(stpcpy.o)
 .debug_info    0x00000000000e983c     0x347f /work/glibc-obj/libc.a(strcasecmp_l.o)
 .debug_info    0x00000000000eccbb     0x33d0 /work/glibc-obj/libc.a(memcpy.o)
 .debug_info    0x00000000000f008b     0x33aa /work/glibc-obj/libc.a(rawmemchr.o)
 .debug_info    0x00000000000f3435     0x33aa /work/glibc-obj/libc.a(strchrnul.o)
 .debug_info    0x00000000000f67df       0x2e /work/glibc-obj/libc.a(strcmp-sse2.o)
 .debug_info    0x00000000000f680d       0x2e /work/glibc-obj/libc.a(strcmp-sse2-unaligned.o)
 .debug_info    0x00000000000f683b       0x2e /work/glibc-obj/libc.a(strcmp-ssse3.o)
 .debug_info    0x00000000000f6869       0x2e /work/glibc-obj/libc.a(strncmp-sse2.o)
 .debug_info    0x00000000000f6897       0x2e /work/glibc-obj/libc.a(strncmp-ssse3.o)
 .debug_info    0x00000000000f68c5       0x2e /work/glibc-obj/libc.a(strncmp-sse4_2.o)
 .debug_info    0x00000000000f68f3       0x2e /work/glibc-obj/libc.a(memchr-sse2.o)
 .debug_info    0x00000000000f6921       0x2e /work/glibc-obj/libc.a(rawmemchr-sse2.o)
 .debug_info    0x00000000000f694f       0x2e /work/glibc-obj/libc.a(memchr-avx2.o)
 .debug_info    0x00000000000f697d       0x2e /work/glibc-obj/libc.a(rawmemchr-avx2.o)
 .debug_info    0x00000000000f69ab       0x2e /work/glibc-obj/libc.a(memcmp-sse2.o)
 .debug_info    0x00000000000f69d9       0x2e /work/glibc-obj/libc.a(memcmp-avx2-movbe.o)
 .debug_info    0x00000000000f6a07       0x2e /work/glibc-obj/libc.a(memcmp-sse4.o)
 .debug_info    0x00000000000f6a35       0x2e /work/glibc-obj/libc.a(memcpy-ssse3.o)
 .debug_info    0x00000000000f6a63       0x2e /work/glibc-obj/libc.a(memmove-ssse3.o)
 .debug_info    0x00000000000f6a91       0x2e /work/glibc-obj/libc.a(memcpy-ssse3-back.o)
 .debug_info    0x00000000000f6abf       0x2e /work/glibc-obj/libc.a(memmove-ssse3-back.o)
 .debug_info    0x00000000000f6aed       0x2e /work/glibc-obj/libc.a(memmove-avx512-no-vzeroupper.o)
 .debug_info    0x00000000000f6b1b       0x2e /work/glibc-obj/libc.a(strcasecmp_l-sse2.o)
 .debug_info    0x00000000000f6b49       0x2e /work/glibc-obj/libc.a(strcasecmp_l-ssse3.o)
 .debug_info    0x00000000000f6b77       0x2e /work/glibc-obj/libc.a(strcasecmp_l-sse4_2.o)
 .debug_info    0x00000000000f6ba5       0x2e /work/glibc-obj/libc.a(strcasecmp_l-avx.o)
 .debug_info    0x00000000000f6bd3       0x2e /work/glibc-obj/libc.a(strchr-sse2.o)
 .debug_info    0x00000000000f6c01       0x2e /work/glibc-obj/libc.a(strchrnul-sse2.o)
 .debug_info    0x00000000000f6c2f       0x2e /work/glibc-obj/libc.a(strchr-avx2.o)
 .debug_info    0x00000000000f6c5d       0x2e /work/glibc-obj/libc.a(strchrnul-avx2.o)
 .debug_info    0x00000000000f6c8b       0x2e /work/glibc-obj/libc.a(strlen-sse2.o)
 .debug_info    0x00000000000f6cb9       0x2e /work/glibc-obj/libc.a(strlen-avx2.o)
 .debug_info    0x00000000000f6ce7       0x2e /work/glibc-obj/libc.a(strcpy-sse2.o)
 .debug_info    0x00000000000f6d15       0x2e /work/glibc-obj/libc.a(stpcpy-sse2.o)
 .debug_info    0x00000000000f6d43       0x2e /work/glibc-obj/libc.a(strcpy-ssse3.o)
 .debug_info    0x00000000000f6d71       0x2e /work/glibc-obj/libc.a(stpcpy-ssse3.o)
 .debug_info    0x00000000000f6d9f       0x2e /work/glibc-obj/libc.a(strcpy-sse2-unaligned.o)
 .debug_info    0x00000000000f6dcd       0x2e /work/glibc-obj/libc.a(stpcpy-sse2-unaligned.o)
 .debug_info    0x00000000000f6dfb       0x2e /work/glibc-obj/libc.a(strchr-sse2-no-bsf.o)
 .debug_info    0x00000000000f6e29       0x2e /work/glibc-obj/libc.a(memcmp-ssse3.o)
 .debug_info    0x00000000000f6e57       0x2e /work/glibc-obj/libc.a(strstr-sse2-unaligned.o)
 .debug_info    0x00000000000f6e85       0x2e /work/glibc-obj/libc.a(strcspn-sse2.o)
 .debug_info    0x00000000000f6eb3      0x854 /work/glibc-obj/libc.a(strcspn-c.o)
 .debug_info    0x00000000000f7707      0x18e /work/glibc-obj/libc.a(varshift.o)
 .debug_info    0x00000000000f7895       0x2e /work/glibc-obj/libc.a(memset-avx512-no-vzeroupper.o)
 .debug_info    0x00000000000f78c3       0x2e /work/glibc-obj/libc.a(memmove-sse2-unaligned-erms.o)
 .debug_info    0x00000000000f78f1       0x2e /work/glibc-obj/libc.a(memmove-avx-unaligned-erms.o)
 .debug_info    0x00000000000f791f       0x2e /work/glibc-obj/libc.a(memmove-avx512-unaligned-erms.o)
 .debug_info    0x00000000000f794d       0x2e /work/glibc-obj/libc.a(memset-sse2-unaligned-erms.o)
 .debug_info    0x00000000000f797b       0x2e /work/glibc-obj/libc.a(memset-avx2-unaligned-erms.o)
 .debug_info    0x00000000000f79a9       0x2e /work/glibc-obj/libc.a(memset-avx512-unaligned-erms.o)
 .debug_info    0x00000000000f79d7     0x44c0 /work/glibc-obj/libc.a(cacheinfo.o)
 .debug_info    0x00000000000fbe97      0xe51 /work/glibc-obj/libc.a(strcasecmp_l-nonascii.o)
 .debug_info    0x00000000000fcce8      0x124 /work/glibc-obj/libc.a(wmempcpy.o)
 .debug_info    0x00000000000fce0c      0xe80 /work/glibc-obj/libc.a(mbsrtowcs.o)
 .debug_info    0x00000000000fdc8c     0x39ce /work/glibc-obj/libc.a(wcsmbsload.o)
 .debug_info    0x000000000010165a     0x30c0 /work/glibc-obj/libc.a(mbsrtowcs_l.o)
 .debug_info    0x000000000010471a      0x7e5 /work/glibc-obj/libc.a(gettimeofday.o)
 .debug_info    0x0000000000104eff      0x81b /work/glibc-obj/libc.a(_exit.o)
 .debug_info    0x000000000010571a       0x2e /work/glibc-obj/libc.a(getpid.o)
 .debug_info    0x0000000000105748     0x4ab4 /work/glibc-obj/libc.a(sysconf.o)
 .debug_info    0x000000000010a1fc       0x2e /work/glibc-obj/libc.a(sched_getp.o)
 .debug_info    0x000000000010a22a       0x2e /work/glibc-obj/libc.a(sched_sets.o)
 .debug_info    0x000000000010a258       0x2e /work/glibc-obj/libc.a(sched_gets.o)
 .debug_info    0x000000000010a286       0x2e /work/glibc-obj/libc.a(sched_yield.o)
 .debug_info    0x000000000010a2b4       0x2e /work/glibc-obj/libc.a(sched_primax.o)
 .debug_info    0x000000000010a2e2       0x2e /work/glibc-obj/libc.a(sched_primin.o)
 .debug_info    0x000000000010a310      0x197 /work/glibc-obj/libc.a(get_child_max.o)
 .debug_info    0x000000000010a4a7       0xff /work/glibc-obj/libc.a(environ.o)
 .debug_info    0x000000000010a5a6      0x94c /work/glibc-obj/libc.a(xstat.o)
 .debug_info    0x000000000010aef2      0x94b /work/glibc-obj/libc.a(fxstat.o)
 .debug_info    0x000000000010b83d     0x23b2 /work/glibc-obj/libc.a(open64.o)
 .debug_info    0x000000000010dbef     0x2373 /work/glibc-obj/libc.a(read.o)
 .debug_info    0x000000000010ff62     0x2373 /work/glibc-obj/libc.a(write.o)
 .debug_info    0x00000000001122d5      0x875 /work/glibc-obj/libc.a(lseek64.o)
 .debug_info    0x0000000000112b4a     0x2557 /work/glibc-obj/libc.a(fcntl.o)
 .debug_info    0x00000000001150a1     0x21a3 /work/glibc-obj/libc.a(close.o)
 .debug_info    0x0000000000117244     0x28ae /work/glibc-obj/libc.a(getcwd.o)
 .debug_info    0x0000000000119af2      0x89e /work/glibc-obj/libc.a(getrlimit64.o)
 .debug_info    0x000000000011a390      0x838 /work/glibc-obj/libc.a(sbrk.o)
 .debug_info    0x000000000011abc8     0x340d /work/glibc-obj/libc.a(getpagesize.o)
 .debug_info    0x000000000011dfd5      0x1f6 /work/glibc-obj/libc.a(getdtsz.o)
 .debug_info    0x000000000011e1cb     0x373a /work/glibc-obj/libc.a(mmap64.o)
 .debug_info    0x0000000000121905       0x2e /work/glibc-obj/libc.a(munmap.o)
 .debug_info    0x0000000000121933       0x2e /work/glibc-obj/libc.a(mprotect.o)
 .debug_info    0x0000000000121961       0x2e /work/glibc-obj/libc.a(madvise.o)
 .debug_info    0x000000000012198f      0xb2b /work/glibc-obj/libc.a(tsearch.o)
 .debug_info    0x00000000001224ba     0x39b7 /work/glibc-obj/libc.a(getsysstats.o)
 .debug_info    0x0000000000125e71     0x3326 /work/glibc-obj/libc.a(getclktck.o)
 .debug_info    0x0000000000129197      0x1d3 /work/glibc-obj/libc.a(init-misc.o)
 .debug_info    0x000000000012936a       0x2e /work/glibc-obj/libc.a(clone.o)
 .debug_info    0x0000000000129398       0x2e /work/glibc-obj/libc.a(mremap.o)
 .debug_info    0x00000000001293c6       0x2e /work/glibc-obj/libc.a(sysinfo.o)
 .debug_info    0x00000000001293f4     0x1fdd /work/glibc-obj/libc.a(alloca_cutoff.o)
 .debug_info    0x000000000012b3d1       0x2e /work/glibc-obj/libc.a(libc-cancellation.o)
 .debug_info    0x000000000012b3ff     0x3715 /work/glibc-obj/libc.a(libc_pthread_init.o)
 .debug_info    0x000000000012eb14     0x1fb3 /work/glibc-obj/libc.a(libc_multiple_threads.o)
 .debug_info    0x0000000000130ac7     0x16be /work/glibc-obj/libc.a(register-atfork.o)
 .debug_info    0x0000000000132185      0xac9 /work/glibc-obj/libc.a(chk_fail.o)
 .debug_info    0x0000000000132c4e      0xb64 /work/glibc-obj/libc.a(fortify_fail.o)
 .debug_info    0x00000000001337b2     0x27e6 /work/glibc-obj/libc.a(res_libc.o)
 .debug_info    0x0000000000135f98     0x10d0 /work/glibc-obj/libc.a(res_randomid.o)
 .debug_info    0x0000000000137068     0x1565 /work/glibc-obj/libc.a(res-close.o)
 .debug_info    0x00000000001385cd     0x1b41 /work/glibc-obj/libc.a(resolv_context.o)
 .debug_info    0x000000000013a10e     0x4806 /work/glibc-obj/libc.a(resolv_conf.o)
 .debug_info    0x000000000013e914     0x33d3 /work/glibc-obj/libc.a(dl-debug.o)
 .debug_info    0x0000000000141ce7     0x3f42 /work/glibc-obj/libc.a(dl-tls.o)
 .debug_info    0x0000000000145c29     0x3492 /work/glibc-obj/libc.a(dl-execstack.o)
 .debug_info    0x00000000001490bb     0x3e43 /work/glibc-obj/libc.a(dl-tunables.o)
 .debug_info    0x000000000014cefe     0x40ca /work/glibc-obj/libc.a(dl-support.o)
 .debug_info    0x0000000000150fc8     0x355c /work/glibc-obj/libc.a(dl-iteratephdr.o)
 .debug_info    0x0000000000154524      0x203 /work/glibc-obj/libc.a(enbl-secure.o)
 .debug_info    0x0000000000154727     0x339d /work/glibc-obj/libc.a(dl-profstub.o)
 .debug_info    0x0000000000157ac4     0x3f5f /work/glibc-obj/libc.a(dl-sysdep.o)
 .debug_info    0x000000000015ba23     0x425c /work/glibc-obj/libc.a(dl-error.o)
 .debug_info    0x000000000015fc7f     0x4447 /work/glibc-obj/libc.a(init-first.o)
 .debug_info    0x00000000001640c6       0x2e /work/glibc-obj/libc.a(sysdep.o)
 .debug_info    0x00000000001640f4     0x3afe /work/glibc-obj/libc.a(gconv_open.o)
 .debug_info    0x0000000000167bf2     0x2ea8 /work/glibc-obj/libc.a(gconv.o)
 .debug_info    0x000000000016aa9a     0x2923 /work/glibc-obj/libc.a(gconv_close.o)
 .debug_info    0x000000000016d3bd     0x43ab /work/glibc-obj/libc.a(gconv_db.o)
 .debug_info    0x0000000000171768     0x468e /work/glibc-obj/libc.a(gconv_conf.o)
 .debug_info    0x0000000000175df6     0x298c /work/glibc-obj/libc.a(gconv_builtin.o)
 .debug_info    0x0000000000178782     0x7f8e /work/glibc-obj/libc.a(gconv_simple.o)
 .debug_info    0x0000000000180710     0x3bc8 /work/glibc-obj/libc.a(gconv_trans.o)
 .debug_info    0x00000000001842d8     0x39ec /work/glibc-obj/libc.a(gconv_cache.o)
 .debug_info    0x0000000000187cc4     0x3205 /work/glibc-obj/libc.a(gconv_dl.o)
 .debug_info    0x000000000018aec9     0x32c8 /work/glibc-obj/libc.a(setlocale.o)
 .debug_info    0x000000000018e191     0x3d0e /work/glibc-obj/libc.a(findlocale.o)
 .debug_info    0x0000000000191e9f     0x2498 /work/glibc-obj/libc.a(loadlocale.o)
 .debug_info    0x0000000000194337     0x205e /work/glibc-obj/libc.a(loadarchive.o)
 .debug_info    0x0000000000196395     0x1a4e /work/glibc-obj/libc.a(lc-ctype.o)
 .debug_info    0x0000000000197de3     0x216e /work/glibc-obj/libc.a(C-ctype.o)
 .debug_info    0x0000000000199f51      0x136 /work/glibc-obj/libc.a(SYS_libc.o)
 .debug_info    0x000000000019a087      0xd6b /work/glibc-obj/libc.a(C_name.o)
 .debug_info    0x000000000019adf2      0xe02 /work/glibc-obj/libc.a(xlocale.o)
 .debug_info    0x000000000019bbf4      0xd72 /work/glibc-obj/libc.a(localename.o)
 .debug_info    0x000000000019c966      0xe15 /work/glibc-obj/libc.a(global-locale.o)
 .debug_info    0x000000000019d77b       0xe5 /work/glibc-obj/libc.a(setfpucw.o)
 .debug_info    0x000000000019d860       0xae /work/glibc-obj/libc.a(fpu_control.o)
 .debug_info    0x000000000019d90e       0x2e /work/glibc-obj/libc.a(setjmp.o)
 .debug_info    0x000000000019d93c      0x27e /work/glibc-obj/libc.a(sigjmp.o)
 .debug_info    0x000000000019dbba      0x66f /work/glibc-obj/libc.a(qsort.o)
 .debug_info    0x000000000019e229     0x25c9 /work/glibc-obj/libc.a(setenv.o)
 .debug_info    0x00000000001a07f2      0x20d /work/glibc-obj/libc.a(secure-getenv.o)
 .debug_info    0x00000000001a09ff      0xe5f /work/glibc-obj/libc.a(strtol.o)
 .debug_info    0x00000000001a185e     0x1e8c /work/glibc-obj/libc.a(strtol_l.o)
 .debug_info    0x00000000001a36ea     0x8718 /work/glibc-obj/libc.a(vfprintf.o)
 .debug_info    0x00000000001abe02     0x5f94 /work/glibc-obj/libc.a(printf_fp.o)
 .debug_info    0x00000000001b1d96     0x2149 /work/glibc-obj/libc.a(reg-printf.o)
 .debug_info    0x00000000001b3edf     0x5324 /work/glibc-obj/libc.a(printf_fphex.o)
 .debug_info    0x00000000001b9203     0x2c3c /work/glibc-obj/libc.a(reg-modifier.o)
 .debug_info    0x00000000001bbe3f     0x1f98 /work/glibc-obj/libc.a(reg-type.o)
 .debug_info    0x00000000001bddd7     0x84fa /work/glibc-obj/libc.a(vfwprintf.o)
 .debug_info    0x00000000001c62d1     0x2713 /work/glibc-obj/libc.a(funlockfile.o)
 .debug_info    0x00000000001c89e4     0x1484 /work/glibc-obj/libc.a(printf-parsemb.o)
 .debug_info    0x00000000001c9e68     0x1460 /work/glibc-obj/libc.a(printf-parsewc.o)
 .debug_info    0x00000000001cb2c8     0x2f94 /work/glibc-obj/libc.a(filedoalloc.o)
 .debug_info    0x00000000001ce25c     0x2eb9 /work/glibc-obj/libc.a(iofputs.o)
 .debug_info    0x00000000001d1115     0x2c97 /work/glibc-obj/libc.a(wfiledoalloc.o)
 .debug_info    0x00000000001d3dac     0x2f1f /work/glibc-obj/libc.a(iogetdelim.o)
 .debug_info    0x00000000001d6ccb     0x2e68 /work/glibc-obj/libc.a(iogetline.o)
 .debug_info    0x00000000001d9b33     0x2dfe /work/glibc-obj/libc.a(iopadn.o)
 .debug_info    0x00000000001dc931     0x2dfe /work/glibc-obj/libc.a(iowpadn.o)
 .debug_info    0x00000000001df72f     0x3dbc /work/glibc-obj/libc.a(wgenops.o)
 .debug_info    0x00000000001e34eb     0x3f16 /work/glibc-obj/libc.a(iofwide.o)
 .debug_info    0x00000000001e7401      0x8d5 /work/glibc-obj/libc.a(scratch_buffer_grow_preserve.o)
 .debug_info    0x00000000001e7cd6      0x92f /work/glibc-obj/libc.a(scratch_buffer_set_array_size.o)
 .debug_info    0x00000000001e8605      0xa7d /work/glibc-obj/libc.a(dynarray_at_failure.o)
 .debug_info    0x00000000001e9082     0x1f9b /work/glibc-obj/libc.a(dynarray_emplace_enlarge.o)
 .debug_info    0x00000000001eb01d     0x1fae /work/glibc-obj/libc.a(alloc_buffer_alloc_array.o)
 .debug_info    0x00000000001ecfcb      0x2e9 /work/glibc-obj/libc.a(alloc_buffer_allocate.o)
 .debug_info    0x00000000001ed2b4      0x23c /work/glibc-obj/libc.a(alloc_buffer_copy_string.o)
 .debug_info    0x00000000001ed4f0      0xb63 /work/glibc-obj/libc.a(alloc_buffer_create_failure.o)
 .debug_info    0x00000000001ee053      0xb46 /work/glibc-obj/libc.a(strndup.o)
 .debug_info    0x00000000001eeb99      0xe5f /work/glibc-obj/libc.a(_strerror.o)
 .debug_info    0x00000000001ef9f8     0x33aa /work/glibc-obj/libc.a(strnlen.o)
 .debug_info    0x00000000001f2da2     0x33aa /work/glibc-obj/libc.a(strrchr.o)
 .debug_info    0x00000000001f614c      0x143 /work/glibc-obj/libc.a(strtok_r.o)
 .debug_info    0x00000000001f628f      0x67b /work/glibc-obj/libc.a(memmem.o)
 .debug_info    0x00000000001f690a      0x810 /work/glibc-obj/libc.a(argz-ctsep.o)
 .debug_info    0x00000000001f711a      0x7eb /work/glibc-obj/libc.a(argz-addsep.o)
 .debug_info    0x00000000001f7905       0x2e /work/glibc-obj/libc.a(strrchr-sse2.o)
 .debug_info    0x00000000001f7933       0x2e /work/glibc-obj/libc.a(strrchr-avx2.o)
 .debug_info    0x00000000001f7961       0x2e /work/glibc-obj/libc.a(strnlen-sse2.o)
 .debug_info    0x00000000001f798f       0x2e /work/glibc-obj/libc.a(strnlen-avx2.o)
 .debug_info    0x00000000001f79bd     0x33bd /work/glibc-obj/libc.a(wcslen.o)
 .debug_info    0x00000000001fad7a      0x124 /work/glibc-obj/libc.a(wmemcpy.o)
 .debug_info    0x00000000001fae9e      0x125 /work/glibc-obj/libc.a(wmemmove.o)
 .debug_info    0x00000000001fafc3     0x33b2 /work/glibc-obj/libc.a(wmemset.o)
 .debug_info    0x00000000001fe375     0x3547 /work/glibc-obj/libc.a(btowc.o)
 .debug_info    0x00000000002018bc     0x3bbe /work/glibc-obj/libc.a(wcrtomb.o)
 .debug_info    0x000000000020547a     0x30bd /work/glibc-obj/libc.a(wcsrtombs.o)
 .debug_info    0x0000000000208537     0x33e9 /work/glibc-obj/libc.a(wcsnlen.o)
 .debug_info    0x000000000020b920       0xaf /work/glibc-obj/libc.a(wcschrnul.o)
 .debug_info    0x000000000020b9cf       0x2e /work/glibc-obj/libc.a(wcsnlen-sse4_1.o)
 .debug_info    0x000000000020b9fd       0xc4 /work/glibc-obj/libc.a(wcsnlen-c.o)
 .debug_info    0x000000000020bac1       0x2e /work/glibc-obj/libc.a(wcslen-sse2.o)
 .debug_info    0x000000000020baef       0x2e /work/glibc-obj/libc.a(wcslen-avx2.o)
 .debug_info    0x000000000020bb1d       0x2e /work/glibc-obj/libc.a(wcsnlen-avx2.o)
 .debug_info    0x000000000020bb4b      0x757 /work/glibc-obj/libc.a(time.o)
 .debug_info    0x000000000020c2a2     0x2dbf /work/glibc-obj/libc.a(opendir.o)
 .debug_info    0x000000000020f061     0x1f52 /work/glibc-obj/libc.a(closedir.o)
 .debug_info    0x0000000000210fb3     0x203d /work/glibc-obj/libc.a(readdir.o)
 .debug_info    0x0000000000212ff0     0x1f44 /work/glibc-obj/libc.a(rewinddir.o)
 .debug_info    0x0000000000214f34     0x234e /work/glibc-obj/libc.a(getdents.o)
 .debug_info    0x0000000000217282     0x20e7 /work/glibc-obj/libc.a(fdopendir.o)
 .debug_info    0x0000000000219369       0x2e /work/glibc-obj/libc.a(uname.o)
 .debug_info    0x0000000000219397       0x2e /work/glibc-obj/libc.a(getuid.o)
 .debug_info    0x00000000002193c5       0x2e /work/glibc-obj/libc.a(geteuid.o)
 .debug_info    0x00000000002193f3       0x2e /work/glibc-obj/libc.a(getgid.o)
 .debug_info    0x0000000000219421       0x2e /work/glibc-obj/libc.a(getegid.o)
 .debug_info    0x000000000021944f      0x94c /work/glibc-obj/libc.a(lxstat.o)
 .debug_info    0x0000000000219d9b     0x12c5 /work/glibc-obj/libc.a(fxstatat.o)
 .debug_info    0x000000000021b060     0x23e4 /work/glibc-obj/libc.a(openat64.o)
 .debug_info    0x000000000021d444      0x1ee /work/glibc-obj/libc.a(isatty.o)
 .debug_info    0x000000000021d632      0x975 /work/glibc-obj/libc.a(tcgetattr.o)
 .debug_info    0x000000000021dfa7      0x803 /work/glibc-obj/libc.a(brk.o)
 .debug_info    0x000000000021e7aa     0x1a84 /work/glibc-obj/libc.a(wctrans.o)
 .debug_info    0x000000000022022e      0x273 /work/glibc-obj/libc.a(towctrans.o)
 .debug_info    0x00000000002204a1     0x2df2 /work/glibc-obj/libc.a(readonly-area.o)
 .debug_info    0x0000000000223293     0x5635 /work/glibc-obj/libc.a(res_init.o)
 .debug_info    0x00000000002288c8     0x4903 /work/glibc-obj/libc.a(res_hconf.o)
 .debug_info    0x000000000022d1cb     0x6f3f /work/glibc-obj/libc.a(dl-load.o)
 .debug_info    0x000000000023410a     0x50ba /work/glibc-obj/libc.a(dl-lookup.o)
 .debug_info    0x00000000002391c4     0x36d1 /work/glibc-obj/libc.a(dl-object.o)
 .debug_info    0x000000000023c895     0x4b39 /work/glibc-obj/libc.a(dl-reloc.o)
 .debug_info    0x00000000002413ce     0x3a35 /work/glibc-obj/libc.a(dl-hwcaps.o)
 .debug_info    0x0000000000244e03     0x3dc1 /work/glibc-obj/libc.a(dl-misc.o)
 .debug_info    0x0000000000248bc4     0x4bcb /work/glibc-obj/libc.a(dl-profile.o)
 .debug_info    0x000000000024d78f     0x35d0 /work/glibc-obj/libc.a(dl-origin.o)
 .debug_info    0x0000000000250d5f     0x35c9 /work/glibc-obj/libc.a(dl-scope.o)
 .debug_info    0x0000000000254328       0x2e /work/glibc-obj/libc.a(dl-trampoline.o)
 .debug_info    0x0000000000254356     0x3951 /work/glibc-obj/libc.a(dl-exception.o)
 .debug_info    0x0000000000257ca7     0x3b3e /work/glibc-obj/libc.a(dl-cache.o)
 .debug_info    0x000000000025b7e5       0x2e /work/glibc-obj/libc.a(dl-tlsdesc.o)
 .debug_info    0x000000000025b813     0x3cf5 /work/glibc-obj/libc.a(dl-libc.o)
 .debug_info    0x000000000025f508      0xd47 /work/glibc-obj/libc.a(lc-monetary.o)
 .debug_info    0x000000000026024f      0xd47 /work/glibc-obj/libc.a(lc-numeric.o)
 .debug_info    0x0000000000260f96      0xd50 /work/glibc-obj/libc.a(C-messages.o)
 .debug_info    0x0000000000261ce6      0xda6 /work/glibc-obj/libc.a(C-monetary.o)
 .debug_info    0x0000000000262a8c      0xd50 /work/glibc-obj/libc.a(C-numeric.o)
 .debug_info    0x00000000002637dc      0xd50 /work/glibc-obj/libc.a(C-time.o)
 .debug_info    0x000000000026452c      0xd50 /work/glibc-obj/libc.a(C-paper.o)
 .debug_info    0x000000000026527c      0xd50 /work/glibc-obj/libc.a(C-name.o)
 .debug_info    0x0000000000265fcc      0xd50 /work/glibc-obj/libc.a(C-address.o)
 .debug_info    0x0000000000266d1c      0xd50 /work/glibc-obj/libc.a(C-telephone.o)
 .debug_info    0x0000000000267a6c      0xd50 /work/glibc-obj/libc.a(C-measurement.o)
 .debug_info    0x00000000002687bc      0xd50 /work/glibc-obj/libc.a(C-identification.o)
 .debug_info    0x000000000026950c      0xda7 /work/glibc-obj/libc.a(C-collate.o)
 .debug_info    0x000000000026a2b3      0x27c /work/glibc-obj/libc.a(cmp.o)
 .debug_info    0x000000000026a52f      0x548 /work/glibc-obj/libc.a(divrem.o)
 .debug_info    0x000000000026aa77       0x2e /work/glibc-obj/libc.a(lshift.o)
 .debug_info    0x000000000026aaa5       0x2e /work/glibc-obj/libc.a(rshift.o)
 .debug_info    0x000000000026aad3      0x609 /work/glibc-obj/libc.a(mul.o)
 .debug_info    0x000000000026b0dc       0x2e /work/glibc-obj/libc.a(mul_1.o)
 .debug_info    0x000000000026b10a     0x1031 /work/glibc-obj/libc.a(mul_n.o)
 .debug_info    0x000000000026c13b       0x2e /work/glibc-obj/libc.a(sub_n.o)
 .debug_info    0x000000000026c169       0x2e /work/glibc-obj/libc.a(submul_1.o)
 .debug_info    0x000000000026c197      0x45d /work/glibc-obj/libc.a(dbl2mpn.o)
 .debug_info    0x000000000026c5f4      0x483 /work/glibc-obj/libc.a(ldbl2mpn.o)
 .debug_info    0x000000000026ca77      0x4cc /work/glibc-obj/libc.a(float1282mpn.o)
 .debug_info    0x000000000026cf43      0x168 /work/glibc-obj/libc.a(fpioconst.o)
 .debug_info    0x000000000026d0ab      0x36b /work/glibc-obj/libc.a(_itoa.o)
 .debug_info    0x000000000026d416       0x6b /work/glibc-obj/libc.a(itoa-digits.o)
 .debug_info    0x000000000026d481       0x6b /work/glibc-obj/libc.a(itoa-udigits.o)
 .debug_info    0x000000000026d4ec       0x94 /work/glibc-obj/libc.a(itowa-digits.o)
 .debug_info    0x000000000026d580     0x2cde /work/glibc-obj/libc.a(snprintf.o)
 .debug_info    0x000000000027025e     0x2c76 /work/glibc-obj/libc.a(getline.o)
 .debug_info    0x0000000000272ed4      0x8a1 /work/glibc-obj/libc.a(errlist.o)
 .debug_info    0x0000000000273775     0x2ee2 /work/glibc-obj/libc.a(vsnprintf.o)
 .debug_info    0x0000000000276657     0x42d8 /work/glibc-obj/libc.a(sdlerror.o)
 .debug_info    0x000000000027a92f     0x337d /work/glibc-obj/libc.a(sdladdr.o)
 .debug_info    0x000000000027dcac     0x339f /work/glibc-obj/libc.a(sdladdr1.o)
 .debug_info    0x000000000028104b     0x361b /work/glibc-obj/libc.a(sdlinfo.o)
 .debug_info    0x0000000000284666     0x3665 /work/glibc-obj/libc.a(sdlmopen.o)
 .debug_info    0x0000000000287ccb      0x372 /work/glibc-obj/libc.a(alloc_buffer_copy_bytes.o)
 .debug_info    0x000000000028803d     0x11e9 /work/glibc-obj/libc.a(strerror.o)
 .debug_info    0x0000000000289226     0x33d1 /work/glibc-obj/libc.a(strpbrk.o)
 .debug_info    0x000000000028c5f7     0x33d1 /work/glibc-obj/libc.a(strspn.o)
 .debug_info    0x000000000028f9c8     0x33d1 /work/glibc-obj/libc.a(strcasecmp.o)
 .debug_info    0x0000000000292d99     0x33d6 /work/glibc-obj/libc.a(strncase.o)
 .debug_info    0x000000000029616f      0x11c /work/glibc-obj/libc.a(strsep.o)
 .debug_info    0x000000000029628b       0x2e /work/glibc-obj/libc.a(strncase_l-sse2.o)
 .debug_info    0x00000000002962b9       0x2e /work/glibc-obj/libc.a(strncase_l-ssse3.o)
 .debug_info    0x00000000002962e7       0x2e /work/glibc-obj/libc.a(strncase_l-sse4_2.o)
 .debug_info    0x0000000000296315       0x2e /work/glibc-obj/libc.a(strncase_l-avx.o)
 .debug_info    0x0000000000296343       0x2e /work/glibc-obj/libc.a(strpbrk-sse2.o)
 .debug_info    0x0000000000296371       0x2e /work/glibc-obj/libc.a(strspn-sse2.o)
 .debug_info    0x000000000029639f      0x805 /work/glibc-obj/libc.a(strpbrk-c.o)
 .debug_info    0x0000000000296ba4      0x745 /work/glibc-obj/libc.a(strspn-c.o)
 .debug_info    0x00000000002972e9      0xe5f /work/glibc-obj/libc.a(strncase_l-nonascii.o)
 .debug_info    0x0000000000298148       0x2e /work/glibc-obj/libc.a(ioctl.o)
 .debug_info    0x0000000000298176      0x87c /work/glibc-obj/libc.a(gethostname.o)
 .debug_info    0x00000000002989f2       0x2e /work/glibc-obj/libc.a(socket.o)
 .debug_info    0x0000000000298a20     0x1218 /work/glibc-obj/libc.a(profil.o)
 .debug_info    0x0000000000299c38     0x3332 /work/glibc-obj/libc.a(prof-freq.o)
 .debug_info    0x000000000029cf6a      0x4e4 /work/glibc-obj/libc.a(inet_mkadr.o)
 .debug_info    0x000000000029d44e      0xf07 /work/glibc-obj/libc.a(inet6_scopeid_pton.o)
 .debug_info    0x000000000029e355      0xffb /work/glibc-obj/libc.a(ifreq.o)
 .debug_info    0x000000000029f350     0x1041 /work/glibc-obj/libc.a(inet_addr.o)
 .debug_info    0x00000000002a0391     0x1d9e /work/glibc-obj/libc.a(inet_pton.o)
 .debug_info    0x00000000002a212f     0x4740 /work/glibc-obj/libc.a(dl-runtime.o)
 .debug_info    0x00000000002a686f     0x4f8e /work/glibc-obj/libc.a(dl-open.o)
 .debug_info    0x00000000002ab7fd     0x4f50 /work/glibc-obj/libc.a(dl-close.o)
 .debug_info    0x00000000002b074d     0x357e /work/glibc-obj/libc.a(dl-sort-maps.o)
 .debug_info    0x00000000002b3ccb     0x3877 /work/glibc-obj/libc.a(tlsdesc.o)
 .debug_info    0x00000000002b7542     0x35f7 /work/glibc-obj/libc.a(dl-addr.o)
 .debug_info    0x00000000002bab39     0x2a55 /work/glibc-obj/libc.a(dl-addr-obj.o)
 .debug_info    0x00000000002bd58e       0x2e /work/glibc-obj/libc.a(add_n.o)
 .debug_info    0x00000000002bd5bc       0x2e /work/glibc-obj/libc.a(addmul_1.o)
 .debug_info    0x00000000002bd5ea     0x364a /work/glibc-obj/libc.a(sdlopen.o)
 .debug_info    0x00000000002c0c34     0x33b9 /work/glibc-obj/libc.a(sdlclose.o)
 .debug_info    0x00000000002c3fed     0x347d /work/glibc-obj/libc.a(sdlsym.o)
 .debug_info    0x00000000002c746a     0x349a /work/glibc-obj/libc.a(sdlvsym.o)
 .debug_info    0x00000000002ca904       0x2e /work/glibc-obj/libc.a(setitimer.o)
 .debug_info    0x00000000002ca932     0x132d /work/glibc-obj/libc.a(opensock.o)
 .debug_info    0x00000000002cbc5f     0x333b /work/glibc-obj/libc.a(if_index.o)
 .debug_info    0x00000000002cef9a     0x1e8a /work/glibc-obj/libc.a(ifaddrs.o)
 .debug_info    0x00000000002d0e24     0x13b8 /work/glibc-obj/libc.a(netlink_assert_response.o)
 .debug_info    0x00000000002d21dc     0x42c3 /work/glibc-obj/libc.a(dl-deps.o)
 .debug_info    0x00000000002d649f     0x3650 /work/glibc-obj/libc.a(dl-init.o)
 .debug_info    0x00000000002d9aef     0x3e3f /work/glibc-obj/libc.a(dl-version.o)
 .debug_info    0x00000000002dd92e     0x45ec /work/glibc-obj/libc.a(dl-sym.o)
 .debug_info    0x00000000002e1f1a     0x33e0 /work/glibc-obj/libc.a(strncpy.o)
 .debug_info    0x00000000002e52fa      0x17c /work/glibc-obj/libc.a(strncpy-c.o)
 .debug_info    0x00000000002e5476       0x2e /work/glibc-obj/libc.a(strncpy-ssse3.o)
 .debug_info    0x00000000002e54a4       0x2e /work/glibc-obj/libc.a(strncpy-sse2-unaligned.o)
 .debug_info    0x00000000002e54d2     0x2093 /work/glibc-obj/libc.a(access.o)
 .debug_info    0x00000000002e7565       0x2e /work/glibc-obj/libc.a(bind.o)
 .debug_info    0x00000000002e7593       0x2e /work/glibc-obj/libc.a(getsockname.o)
 .debug_info    0x00000000002e75c1     0x22de /work/glibc-obj/libc.a(recvmsg.o)
 .debug_info    0x00000000002e989f     0x226e /work/glibc-obj/libc.a(sendto.o)
 .debug_info    0x00000000002ebb0d       0x22 /work/glibc-obj/csu/crtn.o

.debug_abbrev   0x0000000000000000    0x47696
 *(.debug_abbrev)
 .debug_abbrev  0x0000000000000000      0x197 /work/glibc-obj/csu/crt1.o
 .debug_abbrev  0x0000000000000197       0x12 /work/glibc-obj/csu/crti.o
 .debug_abbrev  0x00000000000001a9      0x151 threads.o
 .debug_abbrev  0x00000000000002fa      0x91f /work/glibc-obj/nptl/libpthread.a(pthread_create.o)
 .debug_abbrev  0x0000000000000c19      0x362 /work/glibc-obj/nptl/libpthread.a(pthread_join.o)
 .debug_abbrev  0x0000000000000f7b      0x423 /work/glibc-obj/nptl/libpthread.a(pthread_join_common.o)
 .debug_abbrev  0x000000000000139e      0x46d /work/glibc-obj/nptl/libpthread.a(pthread_mutex_lock.o)
 .debug_abbrev  0x000000000000180b      0x44c /work/glibc-obj/nptl/libpthread.a(pthread_mutex_trylock.o)
 .debug_abbrev  0x0000000000001c57      0x4be /work/glibc-obj/nptl/libpthread.a(pthread_mutex_unlock.o)
 .debug_abbrev  0x0000000000002115      0x396 /work/glibc-obj/nptl/libpthread.a(pthread_key_create.o)
 .debug_abbrev  0x00000000000024ab      0x387 /work/glibc-obj/nptl/libpthread.a(pthread_key_delete.o)
 .debug_abbrev  0x0000000000002832      0x370 /work/glibc-obj/nptl/libpthread.a(pthread_getspecific.o)
 .debug_abbrev  0x0000000000002ba2      0x3b7 /work/glibc-obj/nptl/libpthread.a(pthread_setspecific.o)
 .debug_abbrev  0x0000000000002f59      0x3bf /work/glibc-obj/nptl/libpthread.a(pthread_cancel.o)
 .debug_abbrev  0x0000000000003318      0x557 /work/glibc-obj/nptl/libpthread.a(pthread_once.o)
 .debug_abbrev  0x000000000000386f      0x3c9 /work/glibc-obj/nptl/libpthread.a(cleanup_compat.o)
 .debug_abbrev  0x0000000000003c38       0x14 /work/glibc-obj/nptl/libpthread.a(cancellation.o)
 .debug_abbrev  0x0000000000003c4c       0x14 /work/glibc-obj/nptl/libpthread.a(lowlevellock.o)
 .debug_abbrev  0x0000000000003c60      0x37b /work/glibc-obj/nptl/libpthread.a(pause.o)
 .debug_abbrev  0x0000000000003fdb      0x44a /work/glibc-obj/nptl/libpthread.a(tpp.o)
 .debug_abbrev  0x0000000000004425      0x593 /work/glibc-obj/nptl/libpthread.a(elision-lock.o)
 .debug_abbrev  0x00000000000049b8      0x382 /work/glibc-obj/nptl/libpthread.a(elision-unlock.o)
 .debug_abbrev  0x0000000000004d3a      0x40e /work/glibc-obj/nptl/libpthread.a(elision-trylock.o)
 .debug_abbrev  0x0000000000005148      0x67e /work/glibc-obj/nptl/libpthread.a(nptl-init.o)
 .debug_abbrev  0x00000000000057c6      0x311 /work/glibc-obj/nptl/libpthread.a(vars.o)
 .debug_abbrev  0x0000000000005ad7      0x33a /work/glibc-obj/nptl/libpthread.a(events.o)
 .debug_abbrev  0x0000000000005e11      0x498 /work/glibc-obj/nptl/libpthread.a(unwind.o)
 .debug_abbrev  0x00000000000062a9      0x3d8 /work/glibc-obj/nptl/libpthread.a(sigaction.o)
 .debug_abbrev  0x0000000000006681      0x609 /work/glibc-obj/libc.a(libc-start.o)
 .debug_abbrev  0x0000000000006c8a      0x23b /work/glibc-obj/libc.a(check_fds.o)
 .debug_abbrev  0x0000000000006ec5      0x496 /work/glibc-obj/libc.a(libc-tls.o)
 .debug_abbrev  0x000000000000735b      0x141 /work/glibc-obj/libc.a(elf-init.o)
 .debug_abbrev  0x000000000000749c      0x13b /work/glibc-obj/libc.a(errno.o)
 .debug_abbrev  0x00000000000075d7      0x483 /work/glibc-obj/libc.a(assert.o)
 .debug_abbrev  0x0000000000007a5a      0x20d /work/glibc-obj/libc.a(ctype-info.o)
 .debug_abbrev  0x0000000000007c67      0x36f /work/glibc-obj/libc.a(dcgettext.o)
 .debug_abbrev  0x0000000000007fd6      0x622 /work/glibc-obj/libc.a(dcigettext.o)
 .debug_abbrev  0x00000000000085f8      0x445 /work/glibc-obj/libc.a(finddomain.o)
 .debug_abbrev  0x0000000000008a3d      0x55a /work/glibc-obj/libc.a(loadmsgcat.o)
 .debug_abbrev  0x0000000000008f97      0x59e /work/glibc-obj/libc.a(localealias.o)
 .debug_abbrev  0x0000000000009535      0x3cf /work/glibc-obj/libc.a(l10nflist.o)
 .debug_abbrev  0x0000000000009904      0x192 /work/glibc-obj/libc.a(explodename.o)
 .debug_abbrev  0x0000000000009a96      0x42d /work/glibc-obj/libc.a(plural.o)
 .debug_abbrev  0x0000000000009ec3      0x2b9 /work/glibc-obj/libc.a(plural-exp.o)
 .debug_abbrev  0x000000000000a17c       0x91 /work/glibc-obj/libc.a(hash-string.o)
 .debug_abbrev  0x000000000000a20d       0x14 /work/glibc-obj/libc.a(bsd-_setjmp.o)
 .debug_abbrev  0x000000000000a221      0x137 /work/glibc-obj/libc.a(longjmp.o)
 .debug_abbrev  0x000000000000a358       0x14 /work/glibc-obj/libc.a(__longjmp.o)
 .debug_abbrev  0x000000000000a36c      0x373 /work/glibc-obj/libc.a(jmp-unwind.o)
 .debug_abbrev  0x000000000000a6df      0x299 /work/glibc-obj/libc.a(raise.o)
 .debug_abbrev  0x000000000000a978      0x1c4 /work/glibc-obj/libc.a(sigprocmask.o)
 .debug_abbrev  0x000000000000ab3c      0x3f2 /work/glibc-obj/libc.a(abort.o)
 .debug_abbrev  0x000000000000af2e      0x4e6 /work/glibc-obj/libc.a(msort.o)
 .debug_abbrev  0x000000000000b414      0x1a7 /work/glibc-obj/libc.a(getenv.o)
 .debug_abbrev  0x000000000000b5bb      0x452 /work/glibc-obj/libc.a(exit.o)
 .debug_abbrev  0x000000000000ba0d      0x403 /work/glibc-obj/libc.a(cxa_atexit.o)
 .debug_abbrev  0x000000000000be10      0x203 /work/glibc-obj/libc.a(strtoul.o)
 .debug_abbrev  0x000000000000c013      0x307 /work/glibc-obj/libc.a(strtoul_l.o)
 .debug_abbrev  0x000000000000c31a      0x108 /work/glibc-obj/libc.a(grouping.o)
 .debug_abbrev  0x000000000000c422      0x3c8 /work/glibc-obj/libc.a(fprintf.o)
 .debug_abbrev  0x000000000000c7ea      0x3c8 /work/glibc-obj/libc.a(asprintf.o)
 .debug_abbrev  0x000000000000cbb2      0x494 /work/glibc-obj/libc.a(fxprintf.o)
 .debug_abbrev  0x000000000000d046      0x4ce /work/glibc-obj/libc.a(iofclose.o)
 .debug_abbrev  0x000000000000d514      0x497 /work/glibc-obj/libc.a(iofflush.o)
 .debug_abbrev  0x000000000000d9ab      0x417 /work/glibc-obj/libc.a(iofopen.o)
 .debug_abbrev  0x000000000000ddc2      0x49a /work/glibc-obj/libc.a(iofwrite.o)
 .debug_abbrev  0x000000000000e25c      0x68b /work/glibc-obj/libc.a(wfileops.o)
 .debug_abbrev  0x000000000000e8e7      0x41c /work/glibc-obj/libc.a(vasprintf.o)
 .debug_abbrev  0x000000000000ed03      0x560 /work/glibc-obj/libc.a(libc_fatal.o)
 .debug_abbrev  0x000000000000f263      0x3a8 /work/glibc-obj/libc.a(vtables.o)
 .debug_abbrev  0x000000000000f60b      0x38b /work/glibc-obj/libc.a(iofgets_u.o)
 .debug_abbrev  0x000000000000f996      0x77d /work/glibc-obj/libc.a(fileops.o)
 .debug_abbrev  0x0000000000010113      0x7fd /work/glibc-obj/libc.a(genops.o)
 .debug_abbrev  0x0000000000010910      0x33d /work/glibc-obj/libc.a(stdfiles.o)
 .debug_abbrev  0x0000000000010c4d      0x339 /work/glibc-obj/libc.a(stdio.o)
 .debug_abbrev  0x0000000000010f86      0x567 /work/glibc-obj/libc.a(strops.o)
 .debug_abbrev  0x00000000000114ed      0x992 /work/glibc-obj/libc.a(malloc.o)
 .debug_abbrev  0x0000000000011e7f      0x20c /work/glibc-obj/libc.a(morecore.o)
 .debug_abbrev  0x000000000001208b      0x102 /work/glibc-obj/libc.a(thread-freeres.o)
 .debug_abbrev  0x000000000001218d      0x3d2 /work/glibc-obj/libc.a(strchr.o)
 .debug_abbrev  0x000000000001255f      0x3d2 /work/glibc-obj/libc.a(strcmp.o)
 .debug_abbrev  0x0000000000012931      0x3d2 /work/glibc-obj/libc.a(strcpy.o)
 .debug_abbrev  0x0000000000012d03      0x3d2 /work/glibc-obj/libc.a(strcspn.o)
 .debug_abbrev  0x00000000000130d5      0x160 /work/glibc-obj/libc.a(strdup.o)
 .debug_abbrev  0x0000000000013235      0x3d2 /work/glibc-obj/libc.a(strlen.o)
 .debug_abbrev  0x0000000000013607      0x3d2 /work/glibc-obj/libc.a(strncmp.o)
 .debug_abbrev  0x00000000000139d9      0x542 /work/glibc-obj/libc.a(strstr.o)
 .debug_abbrev  0x0000000000013f1b      0x3d2 /work/glibc-obj/libc.a(memchr.o)
 .debug_abbrev  0x00000000000142ed      0x3d0 /work/glibc-obj/libc.a(memcmp.o)
 .debug_abbrev  0x00000000000146bd      0x3d0 /work/glibc-obj/libc.a(memmove.o)
 .debug_abbrev  0x0000000000014a8d      0x3d0 /work/glibc-obj/libc.a(memset.o)
 .debug_abbrev  0x0000000000014e5d      0x3d0 /work/glibc-obj/libc.a(mempcpy.o)
 .debug_abbrev  0x000000000001522d      0x3d2 /work/glibc-obj/libc.a(stpcpy.o)
 .debug_abbrev  0x00000000000155ff      0x3d2 /work/glibc-obj/libc.a(strcasecmp_l.o)
 .debug_abbrev  0x00000000000159d1      0x3d0 /work/glibc-obj/libc.a(memcpy.o)
 .debug_abbrev  0x0000000000015da1      0x3d2 /work/glibc-obj/libc.a(rawmemchr.o)
 .debug_abbrev  0x0000000000016173      0x3d2 /work/glibc-obj/libc.a(strchrnul.o)
 .debug_abbrev  0x0000000000016545       0x14 /work/glibc-obj/libc.a(strcmp-sse2.o)
 .debug_abbrev  0x0000000000016559       0x14 /work/glibc-obj/libc.a(strcmp-sse2-unaligned.o)
 .debug_abbrev  0x000000000001656d       0x14 /work/glibc-obj/libc.a(strcmp-ssse3.o)
 .debug_abbrev  0x0000000000016581       0x14 /work/glibc-obj/libc.a(strncmp-sse2.o)
 .debug_abbrev  0x0000000000016595       0x14 /work/glibc-obj/libc.a(strncmp-ssse3.o)
 .debug_abbrev  0x00000000000165a9       0x14 /work/glibc-obj/libc.a(strncmp-sse4_2.o)
 .debug_abbrev  0x00000000000165bd       0x14 /work/glibc-obj/libc.a(memchr-sse2.o)
 .debug_abbrev  0x00000000000165d1       0x14 /work/glibc-obj/libc.a(rawmemchr-sse2.o)
 .debug_abbrev  0x00000000000165e5       0x14 /work/glibc-obj/libc.a(memchr-avx2.o)
 .debug_abbrev  0x00000000000165f9       0x14 /work/glibc-obj/libc.a(rawmemchr-avx2.o)
 .debug_abbrev  0x000000000001660d       0x14 /work/glibc-obj/libc.a(memcmp-sse2.o)
 .debug_abbrev  0x0000000000016621       0x14 /work/glibc-obj/libc.a(memcmp-avx2-movbe.o)
 .debug_abbrev  0x0000000000016635       0x14 /work/glibc-obj/libc.a(memcmp-sse4.o)
 .debug_abbrev  0x0000000000016649       0x14 /work/glibc-obj/libc.a(memcpy-ssse3.o)
 .debug_abbrev  0x000000000001665d       0x14 /work/glibc-obj/libc.a(memmove-ssse3.o)
 .debug_abbrev  0x0000000000016671       0x14 /work/glibc-obj/libc.a(memcpy-ssse3-back.o)
 .debug_abbrev  0x0000000000016685       0x14 /work/glibc-obj/libc.a(memmove-ssse3-back.o)
 .debug_abbrev  0x0000000000016699       0x14 /work/glibc-obj/libc.a(memmove-avx512-no-vzeroupper.o)
 .debug_abbrev  0x00000000000166ad       0x14 /work/glibc-obj/libc.a(strcasecmp_l-sse2.o)
 .debug_abbrev  0x00000000000166c1       0x14 /work/glibc-obj/libc.a(strcasecmp_l-ssse3.o)
 .debug_abbrev  0x00000000000166d5       0x14 /work/glibc-obj/libc.a(strcasecmp_l-sse4_2.o)
 .debug_abbrev  0x00000000000166e9       0x14 /work/glibc-obj/libc.a(strcasecmp_l-avx.o)
 .debug_abbrev  0x00000000000166fd       0x14 /work/glibc-obj/libc.a(strchr-sse2.o)
 .debug_abbrev  0x0000000000016711       0x14 /work/glibc-obj/libc.a(strchrnul-sse2.o)
 .debug_abbrev  0x0000000000016725       0x14 /work/glibc-obj/libc.a(strchr-avx2.o)
 .debug_abbrev  0x0000000000016739       0x14 /work/glibc-obj/libc.a(strchrnul-avx2.o)
 .debug_abbrev  0x000000000001674d       0x14 /work/glibc-obj/libc.a(strlen-sse2.o)
 .debug_abbrev  0x0000000000016761       0x14 /work/glibc-obj/libc.a(strlen-avx2.o)
 .debug_abbrev  0x0000000000016775       0x14 /work/glibc-obj/libc.a(strcpy-sse2.o)
 .debug_abbrev  0x0000000000016789       0x14 /work/glibc-obj/libc.a(stpcpy-sse2.o)
 .debug_abbrev  0x000000000001679d       0x14 /work/glibc-obj/libc.a(strcpy-ssse3.o)
 .debug_abbrev  0x00000000000167b1       0x14 /work/glibc-obj/libc.a(stpcpy-ssse3.o)
 .debug_abbrev  0x00000000000167c5       0x14 /work/glibc-obj/libc.a(strcpy-sse2-unaligned.o)
 .debug_abbrev  0x00000000000167d9       0x14 /work/glibc-obj/libc.a(stpcpy-sse2-unaligned.o)
 .debug_abbrev  0x00000000000167ed       0x14 /work/glibc-obj/libc.a(strchr-sse2-no-bsf.o)
 .debug_abbrev  0x0000000000016801       0x14 /work/glibc-obj/libc.a(memcmp-ssse3.o)
 .debug_abbrev  0x0000000000016815       0x14 /work/glibc-obj/libc.a(strstr-sse2-unaligned.o)
 .debug_abbrev  0x0000000000016829       0x14 /work/glibc-obj/libc.a(strcspn-sse2.o)
 .debug_abbrev  0x000000000001683d      0x225 /work/glibc-obj/libc.a(strcspn-c.o)
 .debug_abbrev  0x0000000000016a62       0xc6 /work/glibc-obj/libc.a(varshift.o)
 .debug_abbrev  0x0000000000016b28       0x14 /work/glibc-obj/libc.a(memset-avx512-no-vzeroupper.o)
 .debug_abbrev  0x0000000000016b3c       0x14 /work/glibc-obj/libc.a(memmove-sse2-unaligned-erms.o)
 .debug_abbrev  0x0000000000016b50       0x14 /work/glibc-obj/libc.a(memmove-avx-unaligned-erms.o)
 .debug_abbrev  0x0000000000016b64       0x14 /work/glibc-obj/libc.a(memmove-avx512-unaligned-erms.o)
 .debug_abbrev  0x0000000000016b78       0x14 /work/glibc-obj/libc.a(memset-sse2-unaligned-erms.o)
 .debug_abbrev  0x0000000000016b8c       0x14 /work/glibc-obj/libc.a(memset-avx2-unaligned-erms.o)
 .debug_abbrev  0x0000000000016ba0       0x14 /work/glibc-obj/libc.a(memset-avx512-unaligned-erms.o)
 .debug_abbrev  0x0000000000016bb4      0x5cf /work/glibc-obj/libc.a(cacheinfo.o)
 .debug_abbrev  0x0000000000017183      0x22d /work/glibc-obj/libc.a(strcasecmp_l-nonascii.o)
 .debug_abbrev  0x00000000000173b0       0xb2 /work/glibc-obj/libc.a(wmempcpy.o)
 .debug_abbrev  0x0000000000017462      0x214 /work/glibc-obj/libc.a(mbsrtowcs.o)
 .debug_abbrev  0x0000000000017676      0x4b7 /work/glibc-obj/libc.a(wcsmbsload.o)
 .debug_abbrev  0x0000000000017b2d      0x453 /work/glibc-obj/libc.a(mbsrtowcs_l.o)
 .debug_abbrev  0x0000000000017f80      0x193 /work/glibc-obj/libc.a(gettimeofday.o)
 .debug_abbrev  0x0000000000018113      0x192 /work/glibc-obj/libc.a(_exit.o)
 .debug_abbrev  0x00000000000182a5       0x14 /work/glibc-obj/libc.a(getpid.o)
 .debug_abbrev  0x00000000000182b9      0x54d /work/glibc-obj/libc.a(sysconf.o)
 .debug_abbrev  0x0000000000018806       0x14 /work/glibc-obj/libc.a(sched_getp.o)
 .debug_abbrev  0x000000000001881a       0x14 /work/glibc-obj/libc.a(sched_sets.o)
 .debug_abbrev  0x000000000001882e       0x14 /work/glibc-obj/libc.a(sched_gets.o)
 .debug_abbrev  0x0000000000018842       0x14 /work/glibc-obj/libc.a(sched_yield.o)
 .debug_abbrev  0x0000000000018856       0x14 /work/glibc-obj/libc.a(sched_primax.o)
 .debug_abbrev  0x000000000001886a       0x14 /work/glibc-obj/libc.a(sched_primin.o)
 .debug_abbrev  0x000000000001887e       0xd2 /work/glibc-obj/libc.a(get_child_max.o)
 .debug_abbrev  0x0000000000018950       0x82 /work/glibc-obj/libc.a(environ.o)
 .debug_abbrev  0x00000000000189d2      0x193 /work/glibc-obj/libc.a(xstat.o)
 .debug_abbrev  0x0000000000018b65      0x193 /work/glibc-obj/libc.a(fxstat.o)
 .debug_abbrev  0x0000000000018cf8      0x3d4 /work/glibc-obj/libc.a(open64.o)
 .debug_abbrev  0x00000000000190cc      0x466 /work/glibc-obj/libc.a(read.o)
 .debug_abbrev  0x0000000000019532      0x466 /work/glibc-obj/libc.a(write.o)
 .debug_abbrev  0x0000000000019998      0x1b3 /work/glibc-obj/libc.a(lseek64.o)
 .debug_abbrev  0x0000000000019b4b      0x4ab /work/glibc-obj/libc.a(fcntl.o)
 .debug_abbrev  0x0000000000019ff6      0x3ce /work/glibc-obj/libc.a(close.o)
 .debug_abbrev  0x000000000001a3c4      0x4f1 /work/glibc-obj/libc.a(getcwd.o)
 .debug_abbrev  0x000000000001a8b5      0x1a8 /work/glibc-obj/libc.a(getrlimit64.o)
 .debug_abbrev  0x000000000001aa5d      0x1bb /work/glibc-obj/libc.a(sbrk.o)
 .debug_abbrev  0x000000000001ac18      0x3c9 /work/glibc-obj/libc.a(getpagesize.o)
 .debug_abbrev  0x000000000001afe1      0x101 /work/glibc-obj/libc.a(getdtsz.o)
 .debug_abbrev  0x000000000001b0e2      0x41b /work/glibc-obj/libc.a(mmap64.o)
 .debug_abbrev  0x000000000001b4fd       0x14 /work/glibc-obj/libc.a(munmap.o)
 .debug_abbrev  0x000000000001b511       0x14 /work/glibc-obj/libc.a(mprotect.o)
 .debug_abbrev  0x000000000001b525       0x14 /work/glibc-obj/libc.a(madvise.o)
 .debug_abbrev  0x000000000001b539      0x3d1 /work/glibc-obj/libc.a(tsearch.o)
 .debug_abbrev  0x000000000001b90a      0x58b /work/glibc-obj/libc.a(getsysstats.o)
 .debug_abbrev  0x000000000001be95      0x37e /work/glibc-obj/libc.a(getclktck.o)
 .debug_abbrev  0x000000000001c213      0x10c /work/glibc-obj/libc.a(init-misc.o)
 .debug_abbrev  0x000000000001c31f       0x14 /work/glibc-obj/libc.a(clone.o)
 .debug_abbrev  0x000000000001c333       0x14 /work/glibc-obj/libc.a(mremap.o)
 .debug_abbrev  0x000000000001c347       0x14 /work/glibc-obj/libc.a(sysinfo.o)
 .debug_abbrev  0x000000000001c35b      0x358 /work/glibc-obj/libc.a(alloca_cutoff.o)
 .debug_abbrev  0x000000000001c6b3       0x14 /work/glibc-obj/libc.a(libc-cancellation.o)
 .debug_abbrev  0x000000000001c6c7      0x3e4 /work/glibc-obj/libc.a(libc_pthread_init.o)
 .debug_abbrev  0x000000000001caab      0x315 /work/glibc-obj/libc.a(libc_multiple_threads.o)
 .debug_abbrev  0x000000000001cdc0      0x43a /work/glibc-obj/libc.a(register-atfork.o)
 .debug_abbrev  0x000000000001d1fa      0x1df /work/glibc-obj/libc.a(chk_fail.o)
 .debug_abbrev  0x000000000001d3d9      0x201 /work/glibc-obj/libc.a(fortify_fail.o)
 .debug_abbrev  0x000000000001d5da      0x3bf /work/glibc-obj/libc.a(res_libc.o)
 .debug_abbrev  0x000000000001d999      0x1ff /work/glibc-obj/libc.a(res_randomid.o)
 .debug_abbrev  0x000000000001db98      0x301 /work/glibc-obj/libc.a(res-close.o)
 .debug_abbrev  0x000000000001de99      0x413 /work/glibc-obj/libc.a(resolv_context.o)
 .debug_abbrev  0x000000000001e2ac      0x708 /work/glibc-obj/libc.a(resolv_conf.o)
 .debug_abbrev  0x000000000001e9b4      0x3dc /work/glibc-obj/libc.a(dl-debug.o)
 .debug_abbrev  0x000000000001ed90      0x5a9 /work/glibc-obj/libc.a(dl-tls.o)
 .debug_abbrev  0x000000000001f339      0x3dc /work/glibc-obj/libc.a(dl-execstack.o)
 .debug_abbrev  0x000000000001f715      0x65e /work/glibc-obj/libc.a(dl-tunables.o)
 .debug_abbrev  0x000000000001fd73      0x5a6 /work/glibc-obj/libc.a(dl-support.o)
 .debug_abbrev  0x0000000000020319      0x457 /work/glibc-obj/libc.a(dl-iteratephdr.o)
 .debug_abbrev  0x0000000000020770       0xc0 /work/glibc-obj/libc.a(enbl-secure.o)
 .debug_abbrev  0x0000000000020830      0x3bc /work/glibc-obj/libc.a(dl-profstub.o)
 .debug_abbrev  0x0000000000020bec      0x452 /work/glibc-obj/libc.a(dl-sysdep.o)
 .debug_abbrev  0x000000000002103e      0x488 /work/glibc-obj/libc.a(dl-error.o)
 .debug_abbrev  0x00000000000214c6      0x429 /work/glibc-obj/libc.a(init-first.o)
 .debug_abbrev  0x00000000000218ef       0x14 /work/glibc-obj/libc.a(sysdep.o)
 .debug_abbrev  0x0000000000021903      0x41f /work/glibc-obj/libc.a(gconv_open.o)
 .debug_abbrev  0x0000000000021d22      0x402 /work/glibc-obj/libc.a(gconv.o)
 .debug_abbrev  0x0000000000022124      0x3ab /work/glibc-obj/libc.a(gconv_close.o)
 .debug_abbrev  0x00000000000224cf      0x6cc /work/glibc-obj/libc.a(gconv_db.o)
 .debug_abbrev  0x0000000000022b9b      0x625 /work/glibc-obj/libc.a(gconv_conf.o)
 .debug_abbrev  0x00000000000231c0      0x3a6 /work/glibc-obj/libc.a(gconv_builtin.o)
 .debug_abbrev  0x0000000000023566      0x5bc /work/glibc-obj/libc.a(gconv_simple.o)
 .debug_abbrev  0x0000000000023b22      0x416 /work/glibc-obj/libc.a(gconv_trans.o)
 .debug_abbrev  0x0000000000023f38      0x590 /work/glibc-obj/libc.a(gconv_cache.o)
 .debug_abbrev  0x00000000000244c8      0x515 /work/glibc-obj/libc.a(gconv_dl.o)
 .debug_abbrev  0x00000000000249dd      0x534 /work/glibc-obj/libc.a(setlocale.o)
 .debug_abbrev  0x0000000000024f11      0x59e /work/glibc-obj/libc.a(findlocale.o)
 .debug_abbrev  0x00000000000254af      0x3a1 /work/glibc-obj/libc.a(loadlocale.o)
 .debug_abbrev  0x0000000000025850      0x3dc /work/glibc-obj/libc.a(loadarchive.o)
 .debug_abbrev  0x0000000000025c2c      0x1f3 /work/glibc-obj/libc.a(lc-ctype.o)
 .debug_abbrev  0x0000000000025e1f      0x215 /work/glibc-obj/libc.a(C-ctype.o)
 .debug_abbrev  0x0000000000026034       0x9a /work/glibc-obj/libc.a(SYS_libc.o)
 .debug_abbrev  0x00000000000260ce      0x1b2 /work/glibc-obj/libc.a(C_name.o)
 .debug_abbrev  0x0000000000026280      0x1b2 /work/glibc-obj/libc.a(xlocale.o)
 .debug_abbrev  0x0000000000026432      0x1d4 /work/glibc-obj/libc.a(localename.o)
 .debug_abbrev  0x0000000000026606      0x1b2 /work/glibc-obj/libc.a(global-locale.o)
 .debug_abbrev  0x00000000000267b8       0x9b /work/glibc-obj/libc.a(setfpucw.o)
 .debug_abbrev  0x0000000000026853       0x6a /work/glibc-obj/libc.a(fpu_control.o)
 .debug_abbrev  0x00000000000268bd       0x14 /work/glibc-obj/libc.a(setjmp.o)
 .debug_abbrev  0x00000000000268d1      0x13a /work/glibc-obj/libc.a(sigjmp.o)
 .debug_abbrev  0x0000000000026a0b      0x1cc /work/glibc-obj/libc.a(qsort.o)
 .debug_abbrev  0x0000000000026bd7      0x4eb /work/glibc-obj/libc.a(setenv.o)
 .debug_abbrev  0x00000000000270c2      0x108 /work/glibc-obj/libc.a(secure-getenv.o)
 .debug_abbrev  0x00000000000271ca      0x203 /work/glibc-obj/libc.a(strtol.o)
 .debug_abbrev  0x00000000000273cd      0x314 /work/glibc-obj/libc.a(strtol_l.o)
 .debug_abbrev  0x00000000000276e1      0x761 /work/glibc-obj/libc.a(vfprintf.o)
 .debug_abbrev  0x0000000000027e42      0x6f5 /work/glibc-obj/libc.a(printf_fp.o)
 .debug_abbrev  0x0000000000028537      0x408 /work/glibc-obj/libc.a(reg-printf.o)
 .debug_abbrev  0x000000000002893f      0x562 /work/glibc-obj/libc.a(printf_fphex.o)
 .debug_abbrev  0x0000000000028ea1      0x4c9 /work/glibc-obj/libc.a(reg-modifier.o)
 .debug_abbrev  0x000000000002936a      0x3e4 /work/glibc-obj/libc.a(reg-type.o)
 .debug_abbrev  0x000000000002974e      0x7a7 /work/glibc-obj/libc.a(vfwprintf.o)
 .debug_abbrev  0x0000000000029ef5      0x366 /work/glibc-obj/libc.a(funlockfile.o)
 .debug_abbrev  0x000000000002a25b      0x32a /work/glibc-obj/libc.a(printf-parsemb.o)
 .debug_abbrev  0x000000000002a585      0x328 /work/glibc-obj/libc.a(printf-parsewc.o)
 .debug_abbrev  0x000000000002a8ad      0x4f8 /work/glibc-obj/libc.a(filedoalloc.o)
 .debug_abbrev  0x000000000002ada5      0x4ba /work/glibc-obj/libc.a(iofputs.o)
 .debug_abbrev  0x000000000002b25f      0x3a9 /work/glibc-obj/libc.a(wfiledoalloc.o)
 .debug_abbrev  0x000000000002b608      0x49e /work/glibc-obj/libc.a(iogetdelim.o)
 .debug_abbrev  0x000000000002baa6      0x407 /work/glibc-obj/libc.a(iogetline.o)
 .debug_abbrev  0x000000000002bead      0x447 /work/glibc-obj/libc.a(iopadn.o)
 .debug_abbrev  0x000000000002c2f4      0x447 /work/glibc-obj/libc.a(iowpadn.o)
 .debug_abbrev  0x000000000002c73b      0x662 /work/glibc-obj/libc.a(wgenops.o)
 .debug_abbrev  0x000000000002cd9d      0x502 /work/glibc-obj/libc.a(iofwide.o)
 .debug_abbrev  0x000000000002d29f      0x28a /work/glibc-obj/libc.a(scratch_buffer_grow_preserve.o)
 .debug_abbrev  0x000000000002d529      0x28a /work/glibc-obj/libc.a(scratch_buffer_set_array_size.o)
 .debug_abbrev  0x000000000002d7b3      0x1ec /work/glibc-obj/libc.a(dynarray_at_failure.o)
 .debug_abbrev  0x000000000002d99f      0x3c3 /work/glibc-obj/libc.a(dynarray_emplace_enlarge.o)
 .debug_abbrev  0x000000000002dd62      0x3f0 /work/glibc-obj/libc.a(alloc_buffer_alloc_array.o)
 .debug_abbrev  0x000000000002e152      0x1ce /work/glibc-obj/libc.a(alloc_buffer_allocate.o)
 .debug_abbrev  0x000000000002e320      0x159 /work/glibc-obj/libc.a(alloc_buffer_copy_string.o)
 .debug_abbrev  0x000000000002e479      0x20b /work/glibc-obj/libc.a(alloc_buffer_create_failure.o)
 .debug_abbrev  0x000000000002e684      0x234 /work/glibc-obj/libc.a(strndup.o)
 .debug_abbrev  0x000000000002e8b8      0x263 /work/glibc-obj/libc.a(_strerror.o)
 .debug_abbrev  0x000000000002eb1b      0x3d2 /work/glibc-obj/libc.a(strnlen.o)
 .debug_abbrev  0x000000000002eeed      0x3d2 /work/glibc-obj/libc.a(strrchr.o)
 .debug_abbrev  0x000000000002f2bf       0xc2 /work/glibc-obj/libc.a(strtok_r.o)
 .debug_abbrev  0x000000000002f381      0x287 /work/glibc-obj/libc.a(memmem.o)
 .debug_abbrev  0x000000000002f608      0x1e1 /work/glibc-obj/libc.a(argz-ctsep.o)
 .debug_abbrev  0x000000000002f7e9      0x1c3 /work/glibc-obj/libc.a(argz-addsep.o)
 .debug_abbrev  0x000000000002f9ac       0x14 /work/glibc-obj/libc.a(strrchr-sse2.o)
 .debug_abbrev  0x000000000002f9c0       0x14 /work/glibc-obj/libc.a(strrchr-avx2.o)
 .debug_abbrev  0x000000000002f9d4       0x14 /work/glibc-obj/libc.a(strnlen-sse2.o)
 .debug_abbrev  0x000000000002f9e8       0x14 /work/glibc-obj/libc.a(strnlen-avx2.o)
 .debug_abbrev  0x000000000002f9fc      0x3d2 /work/glibc-obj/libc.a(wcslen.o)
 .debug_abbrev  0x000000000002fdce       0xb2 /work/glibc-obj/libc.a(wmemcpy.o)
 .debug_abbrev  0x000000000002fe80       0xb4 /work/glibc-obj/libc.a(wmemmove.o)
 .debug_abbrev  0x000000000002ff34      0x3d0 /work/glibc-obj/libc.a(wmemset.o)
 .debug_abbrev  0x0000000000030304      0x463 /work/glibc-obj/libc.a(btowc.o)
 .debug_abbrev  0x0000000000030767      0x468 /work/glibc-obj/libc.a(wcrtomb.o)
 .debug_abbrev  0x0000000000030bcf      0x448 /work/glibc-obj/libc.a(wcsrtombs.o)
 .debug_abbrev  0x0000000000031017      0x3d2 /work/glibc-obj/libc.a(wcsnlen.o)
 .debug_abbrev  0x00000000000313e9       0x89 /work/glibc-obj/libc.a(wcschrnul.o)
 .debug_abbrev  0x0000000000031472       0x14 /work/glibc-obj/libc.a(wcsnlen-sse4_1.o)
 .debug_abbrev  0x0000000000031486       0xa9 /work/glibc-obj/libc.a(wcsnlen-c.o)
 .debug_abbrev  0x000000000003152f       0x14 /work/glibc-obj/libc.a(wcslen-sse2.o)
 .debug_abbrev  0x0000000000031543       0x14 /work/glibc-obj/libc.a(wcslen-avx2.o)
 .debug_abbrev  0x0000000000031557       0x14 /work/glibc-obj/libc.a(wcsnlen-avx2.o)
 .debug_abbrev  0x000000000003156b      0x17b /work/glibc-obj/libc.a(time.o)
 .debug_abbrev  0x00000000000316e6      0x551 /work/glibc-obj/libc.a(opendir.o)
 .debug_abbrev  0x0000000000031c37      0x39c /work/glibc-obj/libc.a(closedir.o)
 .debug_abbrev  0x0000000000031fd3      0x3b2 /work/glibc-obj/libc.a(readdir.o)
 .debug_abbrev  0x0000000000032385      0x389 /work/glibc-obj/libc.a(rewinddir.o)
 .debug_abbrev  0x000000000003270e      0x3f3 /work/glibc-obj/libc.a(getdents.o)
 .debug_abbrev  0x0000000000032b01      0x397 /work/glibc-obj/libc.a(fdopendir.o)
 .debug_abbrev  0x0000000000032e98       0x14 /work/glibc-obj/libc.a(uname.o)
 .debug_abbrev  0x0000000000032eac       0x14 /work/glibc-obj/libc.a(getuid.o)
 .debug_abbrev  0x0000000000032ec0       0x14 /work/glibc-obj/libc.a(geteuid.o)
 .debug_abbrev  0x0000000000032ed4       0x14 /work/glibc-obj/libc.a(getgid.o)
 .debug_abbrev  0x0000000000032ee8       0x14 /work/glibc-obj/libc.a(getegid.o)
 .debug_abbrev  0x0000000000032efc      0x193 /work/glibc-obj/libc.a(lxstat.o)
 .debug_abbrev  0x000000000003308f      0x231 /work/glibc-obj/libc.a(fxstatat.o)
 .debug_abbrev  0x00000000000332c0      0x407 /work/glibc-obj/libc.a(openat64.o)
 .debug_abbrev  0x00000000000336c7      0x106 /work/glibc-obj/libc.a(isatty.o)
 .debug_abbrev  0x00000000000337cd      0x1c9 /work/glibc-obj/libc.a(tcgetattr.o)
 .debug_abbrev  0x0000000000033996      0x1ab /work/glibc-obj/libc.a(brk.o)
 .debug_abbrev  0x0000000000033b41      0x252 /work/glibc-obj/libc.a(wctrans.o)
 .debug_abbrev  0x0000000000033d93      0x115 /work/glibc-obj/libc.a(towctrans.o)
 .debug_abbrev  0x0000000000033ea8      0x45b /work/glibc-obj/libc.a(readonly-area.o)
 .debug_abbrev  0x0000000000034303      0x6ad /work/glibc-obj/libc.a(res_init.o)
 .debug_abbrev  0x00000000000349b0      0x65a /work/glibc-obj/libc.a(res_hconf.o)
 .debug_abbrev  0x000000000003500a      0x7d6 /work/glibc-obj/libc.a(dl-load.o)
 .debug_abbrev  0x00000000000357e0      0x6f7 /work/glibc-obj/libc.a(dl-lookup.o)
 .debug_abbrev  0x0000000000035ed7      0x477 /work/glibc-obj/libc.a(dl-object.o)
 .debug_abbrev  0x000000000003634e      0x749 /work/glibc-obj/libc.a(dl-reloc.o)
 .debug_abbrev  0x0000000000036a97      0x4cb /work/glibc-obj/libc.a(dl-hwcaps.o)
 .debug_abbrev  0x0000000000036f62      0x5f9 /work/glibc-obj/libc.a(dl-misc.o)
 .debug_abbrev  0x000000000003755b      0x51d /work/glibc-obj/libc.a(dl-profile.o)
 .debug_abbrev  0x0000000000037a78      0x45a /work/glibc-obj/libc.a(dl-origin.o)
 .debug_abbrev  0x0000000000037ed2      0x407 /work/glibc-obj/libc.a(dl-scope.o)
 .debug_abbrev  0x00000000000382d9       0x14 /work/glibc-obj/libc.a(dl-trampoline.o)
 .debug_abbrev  0x00000000000382ed      0x50c /work/glibc-obj/libc.a(dl-exception.o)
 .debug_abbrev  0x00000000000387f9      0x50d /work/glibc-obj/libc.a(dl-cache.o)
 .debug_abbrev  0x0000000000038d06       0x14 /work/glibc-obj/libc.a(dl-tlsdesc.o)
 .debug_abbrev  0x0000000000038d1a      0x5ef /work/glibc-obj/libc.a(dl-libc.o)
 .debug_abbrev  0x0000000000039309      0x1b0 /work/glibc-obj/libc.a(lc-monetary.o)
 .debug_abbrev  0x00000000000394b9      0x1b0 /work/glibc-obj/libc.a(lc-numeric.o)
 .debug_abbrev  0x0000000000039669      0x1b6 /work/glibc-obj/libc.a(C-messages.o)
 .debug_abbrev  0x000000000003981f      0x1c7 /work/glibc-obj/libc.a(C-monetary.o)
 .debug_abbrev  0x00000000000399e6      0x1b6 /work/glibc-obj/libc.a(C-numeric.o)
 .debug_abbrev  0x0000000000039b9c      0x1b6 /work/glibc-obj/libc.a(C-time.o)
 .debug_abbrev  0x0000000000039d52      0x1b6 /work/glibc-obj/libc.a(C-paper.o)
 .debug_abbrev  0x0000000000039f08      0x1b6 /work/glibc-obj/libc.a(C-name.o)
 .debug_abbrev  0x000000000003a0be      0x1b6 /work/glibc-obj/libc.a(C-address.o)
 .debug_abbrev  0x000000000003a274      0x1b6 /work/glibc-obj/libc.a(C-telephone.o)
 .debug_abbrev  0x000000000003a42a      0x1b6 /work/glibc-obj/libc.a(C-measurement.o)
 .debug_abbrev  0x000000000003a5e0      0x1b6 /work/glibc-obj/libc.a(C-identification.o)
 .debug_abbrev  0x000000000003a796      0x1d0 /work/glibc-obj/libc.a(C-collate.o)
 .debug_abbrev  0x000000000003a966      0x139 /work/glibc-obj/libc.a(cmp.o)
 .debug_abbrev  0x000000000003aa9f      0x1ab /work/glibc-obj/libc.a(divrem.o)
 .debug_abbrev  0x000000000003ac4a       0x14 /work/glibc-obj/libc.a(lshift.o)
 .debug_abbrev  0x000000000003ac5e       0x14 /work/glibc-obj/libc.a(rshift.o)
 .debug_abbrev  0x000000000003ac72      0x236 /work/glibc-obj/libc.a(mul.o)
 .debug_abbrev  0x000000000003aea8       0x14 /work/glibc-obj/libc.a(mul_1.o)
 .debug_abbrev  0x000000000003aebc      0x2a3 /work/glibc-obj/libc.a(mul_n.o)
 .debug_abbrev  0x000000000003b15f       0x14 /work/glibc-obj/libc.a(sub_n.o)
 .debug_abbrev  0x000000000003b173       0x14 /work/glibc-obj/libc.a(submul_1.o)
 .debug_abbrev  0x000000000003b187      0x1c2 /work/glibc-obj/libc.a(dbl2mpn.o)
 .debug_abbrev  0x000000000003b349      0x1e8 /work/glibc-obj/libc.a(ldbl2mpn.o)
 .debug_abbrev  0x000000000003b531      0x1cf /work/glibc-obj/libc.a(float1282mpn.o)
 .debug_abbrev  0x000000000003b700       0xaa /work/glibc-obj/libc.a(fpioconst.o)
 .debug_abbrev  0x000000000003b7aa      0x190 /work/glibc-obj/libc.a(_itoa.o)
 .debug_abbrev  0x000000000003b93a       0x52 /work/glibc-obj/libc.a(itoa-digits.o)
 .debug_abbrev  0x000000000003b98c       0x52 /work/glibc-obj/libc.a(itoa-udigits.o)
 .debug_abbrev  0x000000000003b9de       0x61 /work/glibc-obj/libc.a(itowa-digits.o)
 .debug_abbrev  0x000000000003ba3f      0x3d9 /work/glibc-obj/libc.a(snprintf.o)
 .debug_abbrev  0x000000000003be18      0x38e /work/glibc-obj/libc.a(getline.o)
 .debug_abbrev  0x000000000003c1a6      0x170 /work/glibc-obj/libc.a(errlist.o)
 .debug_abbrev  0x000000000003c316      0x425 /work/glibc-obj/libc.a(vsnprintf.o)
 .debug_abbrev  0x000000000003c73b      0x53e /work/glibc-obj/libc.a(sdlerror.o)
 .debug_abbrev  0x000000000003cc79      0x3be /work/glibc-obj/libc.a(sdladdr.o)
 .debug_abbrev  0x000000000003d037      0x3b2 /work/glibc-obj/libc.a(sdladdr1.o)
 .debug_abbrev  0x000000000003d3e9      0x45e /work/glibc-obj/libc.a(sdlinfo.o)
 .debug_abbrev  0x000000000003d847      0x469 /work/glibc-obj/libc.a(sdlmopen.o)
 .debug_abbrev  0x000000000003dcb0      0x211 /work/glibc-obj/libc.a(alloc_buffer_copy_bytes.o)
 .debug_abbrev  0x000000000003dec1      0x276 /work/glibc-obj/libc.a(strerror.o)
 .debug_abbrev  0x000000000003e137      0x3d2 /work/glibc-obj/libc.a(strpbrk.o)
 .debug_abbrev  0x000000000003e509      0x3d2 /work/glibc-obj/libc.a(strspn.o)
 .debug_abbrev  0x000000000003e8db      0x3d2 /work/glibc-obj/libc.a(strcasecmp.o)
 .debug_abbrev  0x000000000003ecad      0x3d2 /work/glibc-obj/libc.a(strncase.o)
 .debug_abbrev  0x000000000003f07f       0xb5 /work/glibc-obj/libc.a(strsep.o)
 .debug_abbrev  0x000000000003f134       0x14 /work/glibc-obj/libc.a(strncase_l-sse2.o)
 .debug_abbrev  0x000000000003f148       0x14 /work/glibc-obj/libc.a(strncase_l-ssse3.o)
 .debug_abbrev  0x000000000003f15c       0x14 /work/glibc-obj/libc.a(strncase_l-sse4_2.o)
 .debug_abbrev  0x000000000003f170       0x14 /work/glibc-obj/libc.a(strncase_l-avx.o)
 .debug_abbrev  0x000000000003f184       0x14 /work/glibc-obj/libc.a(strpbrk-sse2.o)
 .debug_abbrev  0x000000000003f198       0x14 /work/glibc-obj/libc.a(strspn-sse2.o)
 .debug_abbrev  0x000000000003f1ac      0x237 /work/glibc-obj/libc.a(strpbrk-c.o)
 .debug_abbrev  0x000000000003f3e3      0x22c /work/glibc-obj/libc.a(strspn-c.o)
 .debug_abbrev  0x000000000003f60f      0x22d /work/glibc-obj/libc.a(strncase_l-nonascii.o)
 .debug_abbrev  0x000000000003f83c       0x14 /work/glibc-obj/libc.a(ioctl.o)
 .debug_abbrev  0x000000000003f850      0x1dc /work/glibc-obj/libc.a(gethostname.o)
 .debug_abbrev  0x000000000003fa2c       0x14 /work/glibc-obj/libc.a(socket.o)
 .debug_abbrev  0x000000000003fa40      0x347 /work/glibc-obj/libc.a(profil.o)
 .debug_abbrev  0x000000000003fd87      0x37e /work/glibc-obj/libc.a(prof-freq.o)
 .debug_abbrev  0x0000000000040105      0x16f /work/glibc-obj/libc.a(inet_mkadr.o)
 .debug_abbrev  0x0000000000040274      0x274 /work/glibc-obj/libc.a(inet6_scopeid_pton.o)
 .debug_abbrev  0x00000000000404e8      0x263 /work/glibc-obj/libc.a(ifreq.o)
 .debug_abbrev  0x000000000004074b      0x2c9 /work/glibc-obj/libc.a(inet_addr.o)
 .debug_abbrev  0x0000000000040a14      0x403 /work/glibc-obj/libc.a(inet_pton.o)
 .debug_abbrev  0x0000000000040e17      0x58d /work/glibc-obj/libc.a(dl-runtime.o)
 .debug_abbrev  0x00000000000413a4      0x5dc /work/glibc-obj/libc.a(dl-open.o)
 .debug_abbrev  0x0000000000041980      0x5cb /work/glibc-obj/libc.a(dl-close.o)
 .debug_abbrev  0x0000000000041f4b      0x439 /work/glibc-obj/libc.a(dl-sort-maps.o)
 .debug_abbrev  0x0000000000042384      0x521 /work/glibc-obj/libc.a(tlsdesc.o)
 .debug_abbrev  0x00000000000428a5      0x4ae /work/glibc-obj/libc.a(dl-addr.o)
 .debug_abbrev  0x0000000000042d53      0x39c /work/glibc-obj/libc.a(dl-addr-obj.o)
 .debug_abbrev  0x00000000000430ef       0x14 /work/glibc-obj/libc.a(add_n.o)
 .debug_abbrev  0x0000000000043103       0x14 /work/glibc-obj/libc.a(addmul_1.o)
 .debug_abbrev  0x0000000000043117      0x472 /work/glibc-obj/libc.a(sdlopen.o)
 .debug_abbrev  0x0000000000043589      0x3e3 /work/glibc-obj/libc.a(sdlclose.o)
 .debug_abbrev  0x000000000004396c      0x428 /work/glibc-obj/libc.a(sdlsym.o)
 .debug_abbrev  0x0000000000043d94      0x428 /work/glibc-obj/libc.a(sdlvsym.o)
 .debug_abbrev  0x00000000000441bc       0x14 /work/glibc-obj/libc.a(setitimer.o)
 .debug_abbrev  0x00000000000441d0      0x26f /work/glibc-obj/libc.a(opensock.o)
 .debug_abbrev  0x000000000004443f      0x54e /work/glibc-obj/libc.a(if_index.o)
 .debug_abbrev  0x000000000004498d      0x504 /work/glibc-obj/libc.a(ifaddrs.o)
 .debug_abbrev  0x0000000000044e91      0x2e1 /work/glibc-obj/libc.a(netlink_assert_response.o)
 .debug_abbrev  0x0000000000045172      0x533 /work/glibc-obj/libc.a(dl-deps.o)
 .debug_abbrev  0x00000000000456a5      0x4c9 /work/glibc-obj/libc.a(dl-init.o)
 .debug_abbrev  0x0000000000045b6e      0x5c6 /work/glibc-obj/libc.a(dl-version.o)
 .debug_abbrev  0x0000000000046134      0x53d /work/glibc-obj/libc.a(dl-sym.o)
 .debug_abbrev  0x0000000000046671      0x3d2 /work/glibc-obj/libc.a(strncpy.o)
 .debug_abbrev  0x0000000000046a43       0xd4 /work/glibc-obj/libc.a(strncpy-c.o)
 .debug_abbrev  0x0000000000046b17       0x14 /work/glibc-obj/libc.a(strncpy-ssse3.o)
 .debug_abbrev  0x0000000000046b2b       0x14 /work/glibc-obj/libc.a(strncpy-sse2-unaligned.o)
 .debug_abbrev  0x0000000000046b3f      0x376 /work/glibc-obj/libc.a(access.o)
 .debug_abbrev  0x0000000000046eb5       0x14 /work/glibc-obj/libc.a(bind.o)
 .debug_abbrev  0x0000000000046ec9       0x14 /work/glibc-obj/libc.a(getsockname.o)
 .debug_abbrev  0x0000000000046edd      0x3e4 /work/glibc-obj/libc.a(recvmsg.o)
 .debug_abbrev  0x00000000000472c1      0x3c3 /work/glibc-obj/libc.a(sendto.o)
 .debug_abbrev  0x0000000000047684       0x12 /work/glibc-obj/csu/crtn.o

.debug_line     0x0000000000000000    0x939a1
 *(.debug_line .debug_line.* .debug_line_end)
 .debug_line    0x0000000000000000      0x19e /work/glibc-obj/csu/crt1.o
 .debug_line    0x000000000000019e       0x64 /work/glibc-obj/csu/crti.o
 .debug_line    0x0000000000000202      0x4c5 threads.o
 .debug_line    0x00000000000006c7     0x2400 /work/glibc-obj/nptl/libpthread.a(pthread_create.o)
 .debug_line    0x0000000000002ac7      0x3fa /work/glibc-obj/nptl/libpthread.a(pthread_join.o)
 .debug_line    0x0000000000002ec1      0x622 /work/glibc-obj/nptl/libpthread.a(pthread_join_common.o)
 .debug_line    0x00000000000034e3      0xcc7 /work/glibc-obj/nptl/libpthread.a(pthread_mutex_lock.o)
 .debug_line    0x00000000000041aa      0xb5a /work/glibc-obj/nptl/libpthread.a(pthread_mutex_trylock.o)
 .debug_line    0x0000000000004d04      0x999 /work/glibc-obj/nptl/libpthread.a(pthread_mutex_unlock.o)
 .debug_line    0x000000000000569d      0x484 /work/glibc-obj/nptl/libpthread.a(pthread_key_create.o)
 .debug_line    0x0000000000005b21      0x481 /work/glibc-obj/nptl/libpthread.a(pthread_key_delete.o)
 .debug_line    0x0000000000005fa2      0x494 /work/glibc-obj/nptl/libpthread.a(pthread_getspecific.o)
 .debug_line    0x0000000000006436      0x4f0 /work/glibc-obj/nptl/libpthread.a(pthread_setspecific.o)
 .debug_line    0x0000000000006926      0x54e /work/glibc-obj/nptl/libpthread.a(pthread_cancel.o)
 .debug_line    0x0000000000006e74      0x6ca /work/glibc-obj/nptl/libpthread.a(pthread_once.o)
 .debug_line    0x000000000000753e      0x448 /work/glibc-obj/nptl/libpthread.a(cleanup_compat.o)
 .debug_line    0x0000000000007986       0x8b /work/glibc-obj/nptl/libpthread.a(cancellation.o)
 .debug_line    0x0000000000007a11       0xe6 /work/glibc-obj/nptl/libpthread.a(lowlevellock.o)
 .debug_line    0x0000000000007af7      0x51b /work/glibc-obj/nptl/libpthread.a(pause.o)
 .debug_line    0x0000000000008012      0x872 /work/glibc-obj/nptl/libpthread.a(tpp.o)
 .debug_line    0x0000000000008884      0x7ff /work/glibc-obj/nptl/libpthread.a(elision-lock.o)
 .debug_line    0x0000000000009083      0x469 /work/glibc-obj/nptl/libpthread.a(elision-unlock.o)
 .debug_line    0x00000000000094ec      0x587 /work/glibc-obj/nptl/libpthread.a(elision-trylock.o)
 .debug_line    0x0000000000009a73      0xba7 /work/glibc-obj/nptl/libpthread.a(nptl-init.o)
 .debug_line    0x000000000000a61a      0x403 /work/glibc-obj/nptl/libpthread.a(vars.o)
 .debug_line    0x000000000000aa1d      0x3ed /work/glibc-obj/nptl/libpthread.a(events.o)
 .debug_line    0x000000000000ae0a      0x6b8 /work/glibc-obj/nptl/libpthread.a(unwind.o)
 .debug_line    0x000000000000b4c2      0x5fb /work/glibc-obj/nptl/libpthread.a(sigaction.o)
 .debug_line    0x000000000000babd      0xd6c /work/glibc-obj/libc.a(libc-start.o)
 .debug_line    0x000000000000c829      0x31f /work/glibc-obj/libc.a(check_fds.o)
 .debug_line    0x000000000000cb48      0x792 /work/glibc-obj/libc.a(libc-tls.o)
 .debug_line    0x000000000000d2da      0x127 /work/glibc-obj/libc.a(elf-init.o)
 .debug_line    0x000000000000d401      0x193 /work/glibc-obj/libc.a(errno.o)
 .debug_line    0x000000000000d594      0x711 /work/glibc-obj/libc.a(assert.o)
 .debug_line    0x000000000000dca5      0x309 /work/glibc-obj/libc.a(ctype-info.o)
 .debug_line    0x000000000000dfae      0x49b /work/glibc-obj/libc.a(dcgettext.o)
 .debug_line    0x000000000000e449     0x1587 /work/glibc-obj/libc.a(dcigettext.o)
 .debug_line    0x000000000000f9d0      0x738 /work/glibc-obj/libc.a(finddomain.o)
 .debug_line    0x0000000000010108     0x1941 /work/glibc-obj/libc.a(loadmsgcat.o)
 .debug_line    0x0000000000011a49      0xa55 /work/glibc-obj/libc.a(localealias.o)
 .debug_line    0x000000000001249e      0x7f0 /work/glibc-obj/libc.a(l10nflist.o)
 .debug_line    0x0000000000012c8e      0x233 /work/glibc-obj/libc.a(explodename.o)
 .debug_line    0x0000000000012ec1      0x9b8 /work/glibc-obj/libc.a(plural.o)
 .debug_line    0x0000000000013879      0x398 /work/glibc-obj/libc.a(plural-exp.o)
 .debug_line    0x0000000000013c11       0x8c /work/glibc-obj/libc.a(hash-string.o)
 .debug_line    0x0000000000013c9d       0x54 /work/glibc-obj/libc.a(bsd-_setjmp.o)
 .debug_line    0x0000000000013cf1      0x152 /work/glibc-obj/libc.a(longjmp.o)
 .debug_line    0x0000000000013e43       0x61 /work/glibc-obj/libc.a(__longjmp.o)
 .debug_line    0x0000000000013ea4      0x400 /work/glibc-obj/libc.a(jmp-unwind.o)
 .debug_line    0x00000000000142a4      0x36e /work/glibc-obj/libc.a(raise.o)
 .debug_line    0x0000000000014612      0x28b /work/glibc-obj/libc.a(sigprocmask.o)
 .debug_line    0x000000000001489d      0x661 /work/glibc-obj/libc.a(abort.o)
 .debug_line    0x0000000000014efe      0x85c /work/glibc-obj/libc.a(msort.o)
 .debug_line    0x000000000001575a      0x2e5 /work/glibc-obj/libc.a(getenv.o)
 .debug_line    0x0000000000015a3f      0x5e7 /work/glibc-obj/libc.a(exit.o)
 .debug_line    0x0000000000016026      0x567 /work/glibc-obj/libc.a(cxa_atexit.o)
 .debug_line    0x000000000001658d      0x287 /work/glibc-obj/libc.a(strtoul.o)
 .debug_line    0x0000000000016814      0x777 /work/glibc-obj/libc.a(strtoul_l.o)
 .debug_line    0x0000000000016f8b      0x227 /work/glibc-obj/libc.a(grouping.o)
 .debug_line    0x00000000000171b2      0x4fa /work/glibc-obj/libc.a(fprintf.o)
 .debug_line    0x00000000000176ac      0x4dd /work/glibc-obj/libc.a(asprintf.o)
 .debug_line    0x0000000000017b89      0x775 /work/glibc-obj/libc.a(fxprintf.o)
 .debug_line    0x00000000000182fe      0x6f7 /work/glibc-obj/libc.a(iofclose.o)
 .debug_line    0x00000000000189f5      0x5d8 /work/glibc-obj/libc.a(iofflush.o)
 .debug_line    0x0000000000018fcd      0x569 /work/glibc-obj/libc.a(iofopen.o)
 .debug_line    0x0000000000019536      0x628 /work/glibc-obj/libc.a(iofwrite.o)
 .debug_line    0x0000000000019b5e     0x16f8 /work/glibc-obj/libc.a(wfileops.o)
 .debug_line    0x000000000001b256      0x5ec /work/glibc-obj/libc.a(vasprintf.o)
 .debug_line    0x000000000001b842      0x8f3 /work/glibc-obj/libc.a(libc_fatal.o)
 .debug_line    0x000000000001c135      0x5b9 /work/glibc-obj/libc.a(vtables.o)
 .debug_line    0x000000000001c6ee      0x575 /work/glibc-obj/libc.a(iofgets_u.o)
 .debug_line    0x000000000001cc63     0x2154 /work/glibc-obj/libc.a(fileops.o)
 .debug_line    0x000000000001edb7     0x1f49 /work/glibc-obj/libc.a(genops.o)
 .debug_line    0x0000000000020d00      0x49d /work/glibc-obj/libc.a(stdfiles.o)
 .debug_line    0x000000000002119d      0x4b8 /work/glibc-obj/libc.a(stdio.o)
 .debug_line    0x0000000000021655      0xa6f /work/glibc-obj/libc.a(strops.o)
 .debug_line    0x00000000000220c4     0x4eec /work/glibc-obj/libc.a(malloc.o)
 .debug_line    0x0000000000026fb0      0x1b2 /work/glibc-obj/libc.a(morecore.o)
 .debug_line    0x0000000000027162       0xd0 /work/glibc-obj/libc.a(thread-freeres.o)
 .debug_line    0x0000000000027232      0x4d0 /work/glibc-obj/libc.a(strchr.o)
 .debug_line    0x0000000000027702      0x4c7 /work/glibc-obj/libc.a(strcmp.o)
 .debug_line    0x0000000000027bc9      0x4e6 /work/glibc-obj/libc.a(strcpy.o)
 .debug_line    0x00000000000280af      0x4d4 /work/glibc-obj/libc.a(strcspn.o)
 .debug_line    0x0000000000028583       0xed /work/glibc-obj/libc.a(strdup.o)
 .debug_line    0x0000000000028670      0x4d9 /work/glibc-obj/libc.a(strlen.o)
 .debug_line    0x0000000000028b49      0x4ce /work/glibc-obj/libc.a(strncmp.o)
 .debug_line    0x0000000000029017      0xbf2 /work/glibc-obj/libc.a(strstr.o)
 .debug_line    0x0000000000029c09      0x4d9 /work/glibc-obj/libc.a(memchr.o)
 .debug_line    0x000000000002a0e2      0x4f6 /work/glibc-obj/libc.a(memcmp.o)
 .debug_line    0x000000000002a5d8      0x52c /work/glibc-obj/libc.a(memmove.o)
 .debug_line    0x000000000002ab04      0x513 /work/glibc-obj/libc.a(memset.o)
 .debug_line    0x000000000002b017      0x52c /work/glibc-obj/libc.a(mempcpy.o)
 .debug_line    0x000000000002b543      0x4e4 /work/glibc-obj/libc.a(stpcpy.o)
 .debug_line    0x000000000002ba27      0x52b /work/glibc-obj/libc.a(strcasecmp_l.o)
 .debug_line    0x000000000002bf52      0x52b /work/glibc-obj/libc.a(memcpy.o)
 .debug_line    0x000000000002c47d      0x4dc /work/glibc-obj/libc.a(rawmemchr.o)
 .debug_line    0x000000000002c959      0x4dc /work/glibc-obj/libc.a(strchrnul.o)
 .debug_line    0x000000000002ce35      0x48f /work/glibc-obj/libc.a(strcmp-sse2.o)
 .debug_line    0x000000000002d2c4      0x10c /work/glibc-obj/libc.a(strcmp-sse2-unaligned.o)
 .debug_line    0x000000000002d3d0      0x45f /work/glibc-obj/libc.a(strcmp-ssse3.o)
 .debug_line    0x000000000002d82f      0x525 /work/glibc-obj/libc.a(strncmp-sse2.o)
 .debug_line    0x000000000002dd54      0x4e9 /work/glibc-obj/libc.a(strncmp-ssse3.o)
 .debug_line    0x000000000002e23d      0x398 /work/glibc-obj/libc.a(strncmp-sse4_2.o)
 .debug_line    0x000000000002e5d5      0x124 /work/glibc-obj/libc.a(memchr-sse2.o)
 .debug_line    0x000000000002e6f9       0xd3 /work/glibc-obj/libc.a(rawmemchr-sse2.o)
 .debug_line    0x000000000002e7cc      0x10c /work/glibc-obj/libc.a(memchr-avx2.o)
 .debug_line    0x000000000002e8d8       0xc0 /work/glibc-obj/libc.a(rawmemchr-avx2.o)
 .debug_line    0x000000000002e998      0x14c /work/glibc-obj/libc.a(memcmp-sse2.o)
 .debug_line    0x000000000002eae4      0x146 /work/glibc-obj/libc.a(memcmp-avx2-movbe.o)
 .debug_line    0x000000000002ec2a      0x500 /work/glibc-obj/libc.a(memcmp-sse4.o)
 .debug_line    0x000000000002f12a      0x947 /work/glibc-obj/libc.a(memcpy-ssse3.o)
 .debug_line    0x000000000002fa71      0x99b /work/glibc-obj/libc.a(memmove-ssse3.o)
 .debug_line    0x000000000003040c      0x87d /work/glibc-obj/libc.a(memcpy-ssse3-back.o)
 .debug_line    0x0000000000030c89      0x882 /work/glibc-obj/libc.a(memmove-ssse3-back.o)
 .debug_line    0x000000000003150b      0x1b3 /work/glibc-obj/libc.a(memmove-avx512-no-vzeroupper.o)
 .debug_line    0x00000000000316be      0x538 /work/glibc-obj/libc.a(strcasecmp_l-sse2.o)
 .debug_line    0x0000000000031bf6      0x509 /work/glibc-obj/libc.a(strcasecmp_l-ssse3.o)
 .debug_line    0x00000000000320ff      0x3dd /work/glibc-obj/libc.a(strcasecmp_l-sse4_2.o)
 .debug_line    0x00000000000324dc      0x3de /work/glibc-obj/libc.a(strcasecmp_l-avx.o)
 .debug_line    0x00000000000328ba       0xde /work/glibc-obj/libc.a(strchr-sse2.o)
 .debug_line    0x0000000000032998       0xd9 /work/glibc-obj/libc.a(strchrnul-sse2.o)
 .debug_line    0x0000000000032a71       0xe0 /work/glibc-obj/libc.a(strchr-avx2.o)
 .debug_line    0x0000000000032b51       0xd4 /work/glibc-obj/libc.a(strchrnul-avx2.o)
 .debug_line    0x0000000000032c25       0xa5 /work/glibc-obj/libc.a(strlen-sse2.o)
 .debug_line    0x0000000000032cca       0xca /work/glibc-obj/libc.a(strlen-avx2.o)
 .debug_line    0x0000000000032d94       0x95 /work/glibc-obj/libc.a(strcpy-sse2.o)
 .debug_line    0x0000000000032e29       0x95 /work/glibc-obj/libc.a(stpcpy-sse2.o)
 .debug_line    0x0000000000032ebe      0x627 /work/glibc-obj/libc.a(strcpy-ssse3.o)
 .debug_line    0x00000000000334e5      0x627 /work/glibc-obj/libc.a(stpcpy-ssse3.o)
 .debug_line    0x0000000000033b0c      0x204 /work/glibc-obj/libc.a(strcpy-sse2-unaligned.o)
 .debug_line    0x0000000000033d10      0x1e2 /work/glibc-obj/libc.a(stpcpy-sse2-unaligned.o)
 .debug_line    0x0000000000033ef2      0x111 /work/glibc-obj/libc.a(strchr-sse2-no-bsf.o)
 .debug_line    0x0000000000034003      0x5cd /work/glibc-obj/libc.a(memcmp-ssse3.o)
 .debug_line    0x00000000000345d0      0x183 /work/glibc-obj/libc.a(strstr-sse2-unaligned.o)
 .debug_line    0x0000000000034753       0x80 /work/glibc-obj/libc.a(strcspn-sse2.o)
 .debug_line    0x00000000000347d3      0x409 /work/glibc-obj/libc.a(strcspn-c.o)
 .debug_line    0x0000000000034bdc       0xb4 /work/glibc-obj/libc.a(varshift.o)
 .debug_line    0x0000000000034c90       0xe9 /work/glibc-obj/libc.a(memset-avx512-no-vzeroupper.o)
 .debug_line    0x0000000000034d79      0x164 /work/glibc-obj/libc.a(memmove-sse2-unaligned-erms.o)
 .debug_line    0x0000000000034edd      0x15c /work/glibc-obj/libc.a(memmove-avx-unaligned-erms.o)
 .debug_line    0x0000000000035039      0x16a /work/glibc-obj/libc.a(memmove-avx512-unaligned-erms.o)
 .debug_line    0x00000000000351a3       0xcb /work/glibc-obj/libc.a(memset-sse2-unaligned-erms.o)
 .debug_line    0x000000000003526e       0xcf /work/glibc-obj/libc.a(memset-avx2-unaligned-erms.o)
 .debug_line    0x000000000003533d       0xd4 /work/glibc-obj/libc.a(memset-avx512-unaligned-erms.o)
 .debug_line    0x0000000000035411      0xecb /work/glibc-obj/libc.a(cacheinfo.o)
 .debug_line    0x00000000000362dc      0x2ff /work/glibc-obj/libc.a(strcasecmp_l-nonascii.o)
 .debug_line    0x00000000000365db       0x8c /work/glibc-obj/libc.a(wmempcpy.o)
 .debug_line    0x0000000000036667      0x2be /work/glibc-obj/libc.a(mbsrtowcs.o)
 .debug_line    0x0000000000036925      0x767 /work/glibc-obj/libc.a(wcsmbsload.o)
 .debug_line    0x000000000003708c      0x75f /work/glibc-obj/libc.a(mbsrtowcs_l.o)
 .debug_line    0x00000000000377eb      0x20e /work/glibc-obj/libc.a(gettimeofday.o)
 .debug_line    0x00000000000379f9      0x257 /work/glibc-obj/libc.a(_exit.o)
 .debug_line    0x0000000000037c50       0x57 /work/glibc-obj/libc.a(getpid.o)
 .debug_line    0x0000000000037ca7      0xa5b /work/glibc-obj/libc.a(sysconf.o)
 .debug_line    0x0000000000038702       0x59 /work/glibc-obj/libc.a(sched_getp.o)
 .debug_line    0x000000000003875b       0x59 /work/glibc-obj/libc.a(sched_sets.o)
 .debug_line    0x00000000000387b4       0x59 /work/glibc-obj/libc.a(sched_gets.o)
 .debug_line    0x000000000003880d       0x59 /work/glibc-obj/libc.a(sched_yield.o)
 .debug_line    0x0000000000038866       0x59 /work/glibc-obj/libc.a(sched_primax.o)
 .debug_line    0x00000000000388bf       0x59 /work/glibc-obj/libc.a(sched_primin.o)
 .debug_line    0x0000000000038918       0xd0 /work/glibc-obj/libc.a(get_child_max.o)
 .debug_line    0x00000000000389e8       0x75 /work/glibc-obj/libc.a(environ.o)
 .debug_line    0x0000000000038a5d      0x24c /work/glibc-obj/libc.a(xstat.o)
 .debug_line    0x0000000000038ca9      0x24d /work/glibc-obj/libc.a(fxstat.o)
 .debug_line    0x0000000000038ef6      0x5c4 /work/glibc-obj/libc.a(open64.o)
 .debug_line    0x00000000000394ba      0x4e7 /work/glibc-obj/libc.a(read.o)
 .debug_line    0x00000000000399a1      0x4e7 /work/glibc-obj/libc.a(write.o)
 .debug_line    0x0000000000039e88      0x225 /work/glibc-obj/libc.a(lseek64.o)
 .debug_line    0x000000000003a0ad      0x5d5 /work/glibc-obj/libc.a(fcntl.o)
 .debug_line    0x000000000003a682      0x519 /work/glibc-obj/libc.a(close.o)
 .debug_line    0x000000000003ab9b      0x9a6 /work/glibc-obj/libc.a(getcwd.o)
 .debug_line    0x000000000003b541      0x20e /work/glibc-obj/libc.a(getrlimit64.o)
 .debug_line    0x000000000003b74f      0x255 /work/glibc-obj/libc.a(sbrk.o)
 .debug_line    0x000000000003b9a4      0x504 /work/glibc-obj/libc.a(getpagesize.o)
 .debug_line    0x000000000003bea8      0x104 /work/glibc-obj/libc.a(getdtsz.o)
 .debug_line    0x000000000003bfac      0x607 /work/glibc-obj/libc.a(mmap64.o)
 .debug_line    0x000000000003c5b3       0x59 /work/glibc-obj/libc.a(munmap.o)
 .debug_line    0x000000000003c60c       0x59 /work/glibc-obj/libc.a(mprotect.o)
 .debug_line    0x000000000003c665       0x59 /work/glibc-obj/libc.a(madvise.o)
 .debug_line    0x000000000003c6be      0x696 /work/glibc-obj/libc.a(tsearch.o)
 .debug_line    0x000000000003cd54      0xb7e /work/glibc-obj/libc.a(getsysstats.o)
 .debug_line    0x000000000003d8d2      0x4be /work/glibc-obj/libc.a(getclktck.o)
 .debug_line    0x000000000003dd90       0xda /work/glibc-obj/libc.a(init-misc.o)
 .debug_line    0x000000000003de6a       0x75 /work/glibc-obj/libc.a(clone.o)
 .debug_line    0x000000000003dedf       0x59 /work/glibc-obj/libc.a(mremap.o)
 .debug_line    0x000000000003df38       0x59 /work/glibc-obj/libc.a(sysinfo.o)
 .debug_line    0x000000000003df91      0x436 /work/glibc-obj/libc.a(alloca_cutoff.o)
 .debug_line    0x000000000003e3c7       0x8b /work/glibc-obj/libc.a(libc-cancellation.o)
 .debug_line    0x000000000003e452      0x550 /work/glibc-obj/libc.a(libc_pthread_init.o)
 .debug_line    0x000000000003e9a2      0x3eb /work/glibc-obj/libc.a(libc_multiple_threads.o)
 .debug_line    0x000000000003ed8d      0x52d /work/glibc-obj/libc.a(register-atfork.o)
 .debug_line    0x000000000003f2ba      0x185 /work/glibc-obj/libc.a(chk_fail.o)
 .debug_line    0x000000000003f43f      0x1b0 /work/glibc-obj/libc.a(fortify_fail.o)
 .debug_line    0x000000000003f5ef      0x4ed /work/glibc-obj/libc.a(res_libc.o)
 .debug_line    0x000000000003fadc      0x26c /work/glibc-obj/libc.a(res_randomid.o)
 .debug_line    0x000000000003fd48      0x43d /work/glibc-obj/libc.a(res-close.o)
 .debug_line    0x0000000000040185      0x5c7 /work/glibc-obj/libc.a(resolv_context.o)
 .debug_line    0x000000000004074c     0x132e /work/glibc-obj/libc.a(resolv_conf.o)
 .debug_line    0x0000000000041a7a      0x526 /work/glibc-obj/libc.a(dl-debug.o)
 .debug_line    0x0000000000041fa0      0xabe /work/glibc-obj/libc.a(dl-tls.o)
 .debug_line    0x0000000000042a5e      0x58c /work/glibc-obj/libc.a(dl-execstack.o)
 .debug_line    0x0000000000042fea      0xa63 /work/glibc-obj/libc.a(dl-tunables.o)
 .debug_line    0x0000000000043a4d      0xcb3 /work/glibc-obj/libc.a(dl-support.o)
 .debug_line    0x0000000000044700      0x587 /work/glibc-obj/libc.a(dl-iteratephdr.o)
 .debug_line    0x0000000000044c87      0x108 /work/glibc-obj/libc.a(enbl-secure.o)
 .debug_line    0x0000000000044d8f      0x4b6 /work/glibc-obj/libc.a(dl-profstub.o)
 .debug_line    0x0000000000045245      0xde8 /work/glibc-obj/libc.a(dl-sysdep.o)
 .debug_line    0x000000000004602d      0x775 /work/glibc-obj/libc.a(dl-error.o)
 .debug_line    0x00000000000467a2      0x6b4 /work/glibc-obj/libc.a(init-first.o)
 .debug_line    0x0000000000046e56       0x88 /work/glibc-obj/libc.a(sysdep.o)
 .debug_line    0x0000000000046ede      0x77f /work/glibc-obj/libc.a(gconv_open.o)
 .debug_line    0x000000000004765d      0x654 /work/glibc-obj/libc.a(gconv.o)
 .debug_line    0x0000000000047cb1      0x505 /work/glibc-obj/libc.a(gconv_close.o)
 .debug_line    0x00000000000481b6     0x10af /work/glibc-obj/libc.a(gconv_db.o)
 .debug_line    0x0000000000049265      0xf6b /work/glibc-obj/libc.a(gconv_conf.o)
 .debug_line    0x000000000004a1d0      0x54e /work/glibc-obj/libc.a(gconv_builtin.o)
 .debug_line    0x000000000004a71e     0x3712 /work/glibc-obj/libc.a(gconv_simple.o)
 .debug_line    0x000000000004de30      0x845 /work/glibc-obj/libc.a(gconv_trans.o)
 .debug_line    0x000000000004e675      0xc52 /work/glibc-obj/libc.a(gconv_cache.o)
 .debug_line    0x000000000004f2c7      0x750 /work/glibc-obj/libc.a(gconv_dl.o)
 .debug_line    0x000000000004fa17      0xbff /work/glibc-obj/libc.a(setlocale.o)
 .debug_line    0x0000000000050616      0x9e0 /work/glibc-obj/libc.a(findlocale.o)
 .debug_line    0x0000000000050ff6      0x6e4 /work/glibc-obj/libc.a(loadlocale.o)
 .debug_line    0x00000000000516da      0x848 /work/glibc-obj/libc.a(loadarchive.o)
 .debug_line    0x0000000000051f22      0x2dd /work/glibc-obj/libc.a(lc-ctype.o)
 .debug_line    0x00000000000521ff      0x27e /work/glibc-obj/libc.a(C-ctype.o)
 .debug_line    0x000000000005247d       0x74 /work/glibc-obj/libc.a(SYS_libc.o)
 .debug_line    0x00000000000524f1      0x255 /work/glibc-obj/libc.a(C_name.o)
 .debug_line    0x0000000000052746      0x256 /work/glibc-obj/libc.a(xlocale.o)
 .debug_line    0x000000000005299c      0x279 /work/glibc-obj/libc.a(localename.o)
 .debug_line    0x0000000000052c15      0x25c /work/glibc-obj/libc.a(global-locale.o)
 .debug_line    0x0000000000052e71       0xa0 /work/glibc-obj/libc.a(setfpucw.o)
 .debug_line    0x0000000000052f11       0x75 /work/glibc-obj/libc.a(fpu_control.o)
 .debug_line    0x0000000000052f86       0x5e /work/glibc-obj/libc.a(setjmp.o)
 .debug_line    0x0000000000052fe4      0x182 /work/glibc-obj/libc.a(sigjmp.o)
 .debug_line    0x0000000000053166      0x360 /work/glibc-obj/libc.a(qsort.o)
 .debug_line    0x00000000000534c6      0x7aa /work/glibc-obj/libc.a(setenv.o)
 .debug_line    0x0000000000053c70       0xc7 /work/glibc-obj/libc.a(secure-getenv.o)
 .debug_line    0x0000000000053d37      0x287 /work/glibc-obj/libc.a(strtol.o)
 .debug_line    0x0000000000053fbe      0x776 /work/glibc-obj/libc.a(strtol_l.o)
 .debug_line    0x0000000000054734     0x316b /work/glibc-obj/libc.a(vfprintf.o)
 .debug_line    0x000000000005789f     0x22b0 /work/glibc-obj/libc.a(printf_fp.o)
 .debug_line    0x0000000000059b4f      0x4b3 /work/glibc-obj/libc.a(reg-printf.o)
 .debug_line    0x000000000005a002     0x1559 /work/glibc-obj/libc.a(printf_fphex.o)
 .debug_line    0x000000000005b55b      0x7bc /work/glibc-obj/libc.a(reg-modifier.o)
 .debug_line    0x000000000005bd17      0x494 /work/glibc-obj/libc.a(reg-type.o)
 .debug_line    0x000000000005c1ab     0x3183 /work/glibc-obj/libc.a(vfwprintf.o)
 .debug_line    0x000000000005f32e      0x4a6 /work/glibc-obj/libc.a(funlockfile.o)
 .debug_line    0x000000000005f7d4      0x81b /work/glibc-obj/libc.a(printf-parsemb.o)
 .debug_line    0x000000000005ffef      0x89e /work/glibc-obj/libc.a(printf-parsewc.o)
 .debug_line    0x000000000006088d      0x5f7 /work/glibc-obj/libc.a(filedoalloc.o)
 .debug_line    0x0000000000060e84      0x602 /work/glibc-obj/libc.a(iofputs.o)
 .debug_line    0x0000000000061486      0x4fc /work/glibc-obj/libc.a(wfiledoalloc.o)
 .debug_line    0x0000000000061982      0x708 /work/glibc-obj/libc.a(iogetdelim.o)
 .debug_line    0x000000000006208a      0x653 /work/glibc-obj/libc.a(iogetline.o)
 .debug_line    0x00000000000626dd      0x59b /work/glibc-obj/libc.a(iopadn.o)
 .debug_line    0x0000000000062c78      0x59c /work/glibc-obj/libc.a(iowpadn.o)
 .debug_line    0x0000000000063214     0x120c /work/glibc-obj/libc.a(wgenops.o)
 .debug_line    0x0000000000064420      0x922 /work/glibc-obj/libc.a(iofwide.o)
 .debug_line    0x0000000000064d42      0x2c2 /work/glibc-obj/libc.a(scratch_buffer_grow_preserve.o)
 .debug_line    0x0000000000065004      0x300 /work/glibc-obj/libc.a(scratch_buffer_set_array_size.o)
 .debug_line    0x0000000000065304      0x175 /work/glibc-obj/libc.a(dynarray_at_failure.o)
 .debug_line    0x0000000000065479      0x529 /work/glibc-obj/libc.a(dynarray_emplace_enlarge.o)
 .debug_line    0x00000000000659a2      0x4ac /work/glibc-obj/libc.a(alloc_buffer_alloc_array.o)
 .debug_line    0x0000000000065e4e      0x13d /work/glibc-obj/libc.a(alloc_buffer_allocate.o)
 .debug_line    0x0000000000065f8b       0xf0 /work/glibc-obj/libc.a(alloc_buffer_copy_string.o)
 .debug_line    0x000000000006607b      0x1b3 /work/glibc-obj/libc.a(alloc_buffer_create_failure.o)
 .debug_line    0x000000000006622e      0x1d6 /work/glibc-obj/libc.a(strndup.o)
 .debug_line    0x0000000000066404      0x310 /work/glibc-obj/libc.a(_strerror.o)
 .debug_line    0x0000000000066714      0x4da /work/glibc-obj/libc.a(strnlen.o)
 .debug_line    0x0000000000066bee      0x4da /work/glibc-obj/libc.a(strrchr.o)
 .debug_line    0x00000000000670c8       0xc9 /work/glibc-obj/libc.a(strtok_r.o)
 .debug_line    0x0000000000067191      0x6d0 /work/glibc-obj/libc.a(memmem.o)
 .debug_line    0x0000000000067861      0x2ad /work/glibc-obj/libc.a(argz-ctsep.o)
 .debug_line    0x0000000000067b0e      0x297 /work/glibc-obj/libc.a(argz-addsep.o)
 .debug_line    0x0000000000067da5      0x110 /work/glibc-obj/libc.a(strrchr-sse2.o)
 .debug_line    0x0000000000067eb5       0xd7 /work/glibc-obj/libc.a(strrchr-avx2.o)
 .debug_line    0x0000000000067f8c       0xa5 /work/glibc-obj/libc.a(strnlen-sse2.o)
 .debug_line    0x0000000000068031      0x11d /work/glibc-obj/libc.a(strnlen-avx2.o)
 .debug_line    0x000000000006814e      0x4d9 /work/glibc-obj/libc.a(wcslen.o)
 .debug_line    0x0000000000068627       0x8b /work/glibc-obj/libc.a(wmemcpy.o)
 .debug_line    0x00000000000686b2       0x95 /work/glibc-obj/libc.a(wmemmove.o)
 .debug_line    0x0000000000068747      0x4f0 /work/glibc-obj/libc.a(wmemset.o)
 .debug_line    0x0000000000068c37      0x67a /work/glibc-obj/libc.a(btowc.o)
 .debug_line    0x00000000000692b1      0x67e /work/glibc-obj/libc.a(wcrtomb.o)
 .debug_line    0x000000000006992f      0x700 /work/glibc-obj/libc.a(wcsrtombs.o)
 .debug_line    0x000000000006a02f      0x4d1 /work/glibc-obj/libc.a(wcsnlen.o)
 .debug_line    0x000000000006a500       0xa2 /work/glibc-obj/libc.a(wcschrnul.o)
 .debug_line    0x000000000006a5a2       0xa9 /work/glibc-obj/libc.a(wcsnlen-sse4_1.o)
 .debug_line    0x000000000006a64b       0xf1 /work/glibc-obj/libc.a(wcsnlen-c.o)
 .debug_line    0x000000000006a73c       0xf0 /work/glibc-obj/libc.a(wcslen-sse2.o)
 .debug_line    0x000000000006a82c       0xcf /work/glibc-obj/libc.a(wcslen-avx2.o)
 .debug_line    0x000000000006a8fb      0x12a /work/glibc-obj/libc.a(wcsnlen-avx2.o)
 .debug_line    0x000000000006aa25      0x1cc /work/glibc-obj/libc.a(time.o)
 .debug_line    0x000000000006abf1      0x6f5 /work/glibc-obj/libc.a(opendir.o)
 .debug_line    0x000000000006b2e6      0x49f /work/glibc-obj/libc.a(closedir.o)
 .debug_line    0x000000000006b785      0x51e /work/glibc-obj/libc.a(readdir.o)
 .debug_line    0x000000000006bca3      0x468 /work/glibc-obj/libc.a(rewinddir.o)
 .debug_line    0x000000000006c10b      0x4fb /work/glibc-obj/libc.a(getdents.o)
 .debug_line    0x000000000006c606      0x4fd /work/glibc-obj/libc.a(fdopendir.o)
 .debug_line    0x000000000006cb03       0x59 /work/glibc-obj/libc.a(uname.o)
 .debug_line    0x000000000006cb5c       0x57 /work/glibc-obj/libc.a(getuid.o)
 .debug_line    0x000000000006cbb3       0x57 /work/glibc-obj/libc.a(geteuid.o)
 .debug_line    0x000000000006cc0a       0x57 /work/glibc-obj/libc.a(getgid.o)
 .debug_line    0x000000000006cc61       0x57 /work/glibc-obj/libc.a(getegid.o)
 .debug_line    0x000000000006ccb8      0x24d /work/glibc-obj/libc.a(lxstat.o)
 .debug_line    0x000000000006cf05      0x339 /work/glibc-obj/libc.a(fxstatat.o)
 .debug_line    0x000000000006d23e      0x5d3 /work/glibc-obj/libc.a(openat64.o)
 .debug_line    0x000000000006d811       0xeb /work/glibc-obj/libc.a(isatty.o)
 .debug_line    0x000000000006d8fc      0x305 /work/glibc-obj/libc.a(tcgetattr.o)
 .debug_line    0x000000000006dc01      0x25f /work/glibc-obj/libc.a(brk.o)
 .debug_line    0x000000000006de60      0x30a /work/glibc-obj/libc.a(wctrans.o)
 .debug_line    0x000000000006e16a      0x142 /work/glibc-obj/libc.a(towctrans.o)
 .debug_line    0x000000000006e2ac      0x669 /work/glibc-obj/libc.a(readonly-area.o)
 .debug_line    0x000000000006e915     0x16f3 /work/glibc-obj/libc.a(res_init.o)
 .debug_line    0x0000000000070008      0xecd /work/glibc-obj/libc.a(res_hconf.o)
 .debug_line    0x0000000000070ed5     0x26a1 /work/glibc-obj/libc.a(dl-load.o)
 .debug_line    0x0000000000073576     0x144f /work/glibc-obj/libc.a(dl-lookup.o)
 .debug_line    0x00000000000749c5      0x7c8 /work/glibc-obj/libc.a(dl-object.o)
 .debug_line    0x000000000007518d     0x1537 /work/glibc-obj/libc.a(dl-reloc.o)
 .debug_line    0x00000000000766c4      0xadd /work/glibc-obj/libc.a(dl-hwcaps.o)
 .debug_line    0x00000000000771a1      0xbcf /work/glibc-obj/libc.a(dl-misc.o)
 .debug_line    0x0000000000077d70      0xe36 /work/glibc-obj/libc.a(dl-profile.o)
 .debug_line    0x0000000000078ba6      0x609 /work/glibc-obj/libc.a(dl-origin.o)
 .debug_line    0x00000000000791af      0x5af /work/glibc-obj/libc.a(dl-scope.o)
 .debug_line    0x000000000007975e      0x2f5 /work/glibc-obj/libc.a(dl-trampoline.o)
 .debug_line    0x0000000000079a53      0x784 /work/glibc-obj/libc.a(dl-exception.o)
 .debug_line    0x000000000007a1d7      0x9f7 /work/glibc-obj/libc.a(dl-cache.o)
 .debug_line    0x000000000007abce       0x8d /work/glibc-obj/libc.a(dl-tlsdesc.o)
 .debug_line    0x000000000007ac5b      0x94a /work/glibc-obj/libc.a(dl-libc.o)
 .debug_line    0x000000000007b5a5      0x25a /work/glibc-obj/libc.a(lc-monetary.o)
 .debug_line    0x000000000007b7ff      0x259 /work/glibc-obj/libc.a(lc-numeric.o)
 .debug_line    0x000000000007ba58      0x259 /work/glibc-obj/libc.a(C-messages.o)
 .debug_line    0x000000000007bcb1      0x259 /work/glibc-obj/libc.a(C-monetary.o)
 .debug_line    0x000000000007bf0a      0x258 /work/glibc-obj/libc.a(C-numeric.o)
 .debug_line    0x000000000007c162      0x255 /work/glibc-obj/libc.a(C-time.o)
 .debug_line    0x000000000007c3b7      0x256 /work/glibc-obj/libc.a(C-paper.o)
 .debug_line    0x000000000007c60d      0x255 /work/glibc-obj/libc.a(C-name.o)
 .debug_line    0x000000000007c862      0x258 /work/glibc-obj/libc.a(C-address.o)
 .debug_line    0x000000000007caba      0x25a /work/glibc-obj/libc.a(C-telephone.o)
 .debug_line    0x000000000007cd14      0x25c /work/glibc-obj/libc.a(C-measurement.o)
 .debug_line    0x000000000007cf70      0x25f /work/glibc-obj/libc.a(C-identification.o)
 .debug_line    0x000000000007d1cf      0x258 /work/glibc-obj/libc.a(C-collate.o)
 .debug_line    0x000000000007d427       0xe6 /work/glibc-obj/libc.a(cmp.o)
 .debug_line    0x000000000007d50d      0x3df /work/glibc-obj/libc.a(divrem.o)
 .debug_line    0x000000000007d8ec       0x98 /work/glibc-obj/libc.a(lshift.o)
 .debug_line    0x000000000007d984       0x97 /work/glibc-obj/libc.a(rshift.o)
 .debug_line    0x000000000007da1b      0x35e /work/glibc-obj/libc.a(mul.o)
 .debug_line    0x000000000007dd79       0x9e /work/glibc-obj/libc.a(mul_1.o)
 .debug_line    0x000000000007de17      0x817 /work/glibc-obj/libc.a(mul_n.o)
 .debug_line    0x000000000007e62e       0x7f /work/glibc-obj/libc.a(sub_n.o)
 .debug_line    0x000000000007e6ad       0x94 /work/glibc-obj/libc.a(submul_1.o)
 .debug_line    0x000000000007e741      0x1cd /work/glibc-obj/libc.a(dbl2mpn.o)
 .debug_line    0x000000000007e90e      0x1e1 /work/glibc-obj/libc.a(ldbl2mpn.o)
 .debug_line    0x000000000007eaef      0x2a5 /work/glibc-obj/libc.a(float1282mpn.o)
 .debug_line    0x000000000007ed94       0xac /work/glibc-obj/libc.a(fpioconst.o)
 .debug_line    0x000000000007ee40      0x193 /work/glibc-obj/libc.a(_itoa.o)
 .debug_line    0x000000000007efd3       0x4c /work/glibc-obj/libc.a(itoa-digits.o)
 .debug_line    0x000000000007f01f       0x4d /work/glibc-obj/libc.a(itoa-udigits.o)
 .debug_line    0x000000000007f06c       0x66 /work/glibc-obj/libc.a(itowa-digits.o)
 .debug_line    0x000000000007f0d2      0x4dd /work/glibc-obj/libc.a(snprintf.o)
 .debug_line    0x000000000007f5af      0x4c9 /work/glibc-obj/libc.a(getline.o)
 .debug_line    0x000000000007fa78      0x213 /work/glibc-obj/libc.a(errlist.o)
 .debug_line    0x000000000007fc8b      0x59f /work/glibc-obj/libc.a(vsnprintf.o)
 .debug_line    0x000000000008022a      0x832 /work/glibc-obj/libc.a(sdlerror.o)
 .debug_line    0x0000000000080a5c      0x49a /work/glibc-obj/libc.a(sdladdr.o)
 .debug_line    0x0000000000080ef6      0x4a5 /work/glibc-obj/libc.a(sdladdr1.o)
 .debug_line    0x000000000008139b      0x5cd /work/glibc-obj/libc.a(sdlinfo.o)
 .debug_line    0x0000000000081968      0x59c /work/glibc-obj/libc.a(sdlmopen.o)
 .debug_line    0x0000000000081f04      0x181 /work/glibc-obj/libc.a(alloc_buffer_copy_bytes.o)
 .debug_line    0x0000000000082085      0x342 /work/glibc-obj/libc.a(strerror.o)
 .debug_line    0x00000000000823c7      0x4d4 /work/glibc-obj/libc.a(strpbrk.o)
 .debug_line    0x000000000008289b      0x4d3 /work/glibc-obj/libc.a(strspn.o)
 .debug_line    0x0000000000082d6e      0x4f6 /work/glibc-obj/libc.a(strcasecmp.o)
 .debug_line    0x0000000000083264      0x4f4 /work/glibc-obj/libc.a(strncase.o)
 .debug_line    0x0000000000083758       0x9a /work/glibc-obj/libc.a(strsep.o)
 .debug_line    0x00000000000837f2      0x5bc /work/glibc-obj/libc.a(strncase_l-sse2.o)
 .debug_line    0x0000000000083dae      0x58d /work/glibc-obj/libc.a(strncase_l-ssse3.o)
 .debug_line    0x000000000008433b      0x475 /work/glibc-obj/libc.a(strncase_l-sse4_2.o)
 .debug_line    0x00000000000847b0      0x466 /work/glibc-obj/libc.a(strncase_l-avx.o)
 .debug_line    0x0000000000084c16       0x82 /work/glibc-obj/libc.a(strpbrk-sse2.o)
 .debug_line    0x0000000000084c98       0x7f /work/glibc-obj/libc.a(strspn-sse2.o)
 .debug_line    0x0000000000084d17      0x3e6 /work/glibc-obj/libc.a(strpbrk-c.o)
 .debug_line    0x00000000000850fd      0x3aa /work/glibc-obj/libc.a(strspn-c.o)
 .debug_line    0x00000000000854a7      0x304 /work/glibc-obj/libc.a(strncase_l-nonascii.o)
 .debug_line    0x00000000000857ab       0x59 /work/glibc-obj/libc.a(ioctl.o)
 .debug_line    0x0000000000085804      0x2b5 /work/glibc-obj/libc.a(gethostname.o)
 .debug_line    0x0000000000085ab9       0x59 /work/glibc-obj/libc.a(socket.o)
 .debug_line    0x0000000000085b12      0x4dd /work/glibc-obj/libc.a(profil.o)
 .debug_line    0x0000000000085fef      0x4cb /work/glibc-obj/libc.a(prof-freq.o)
 .debug_line    0x00000000000864ba      0x1ab /work/glibc-obj/libc.a(inet_mkadr.o)
 .debug_line    0x0000000000086665      0x35d /work/glibc-obj/libc.a(inet6_scopeid_pton.o)
 .debug_line    0x00000000000869c2      0x303 /work/glibc-obj/libc.a(ifreq.o)
 .debug_line    0x0000000000086cc5      0x438 /work/glibc-obj/libc.a(inet_addr.o)
 .debug_line    0x00000000000870fd      0x69d /work/glibc-obj/libc.a(inet_pton.o)
 .debug_line    0x000000000008779a      0x9e9 /work/glibc-obj/libc.a(dl-runtime.o)
 .debug_line    0x0000000000088183      0xdf4 /work/glibc-obj/libc.a(dl-open.o)
 .debug_line    0x0000000000088f77     0x1001 /work/glibc-obj/libc.a(dl-close.o)
 .debug_line    0x0000000000089f78      0x648 /work/glibc-obj/libc.a(dl-sort-maps.o)
 .debug_line    0x000000000008a5c0      0x6d2 /work/glibc-obj/libc.a(tlsdesc.o)
 .debug_line    0x000000000008ac92      0x679 /work/glibc-obj/libc.a(dl-addr.o)
 .debug_line    0x000000000008b30b      0x472 /work/glibc-obj/libc.a(dl-addr-obj.o)
 .debug_line    0x000000000008b77d       0x7f /work/glibc-obj/libc.a(add_n.o)
 .debug_line    0x000000000008b7fc       0x94 /work/glibc-obj/libc.a(addmul_1.o)
 .debug_line    0x000000000008b890      0x57c /work/glibc-obj/libc.a(sdlopen.o)
 .debug_line    0x000000000008be0c      0x4b3 /work/glibc-obj/libc.a(sdlclose.o)
 .debug_line    0x000000000008c2bf      0x503 /work/glibc-obj/libc.a(sdlsym.o)
 .debug_line    0x000000000008c7c2      0x50d /work/glibc-obj/libc.a(sdlvsym.o)
 .debug_line    0x000000000008cccf       0x59 /work/glibc-obj/libc.a(setitimer.o)
 .debug_line    0x000000000008cd28      0x413 /work/glibc-obj/libc.a(opensock.o)
 .debug_line    0x000000000008d13b      0x8b1 /work/glibc-obj/libc.a(if_index.o)
 .debug_line    0x000000000008d9ec      0xffb /work/glibc-obj/libc.a(ifaddrs.o)
 .debug_line    0x000000000008e9e7      0x3d4 /work/glibc-obj/libc.a(netlink_assert_response.o)
 .debug_line    0x000000000008edbb      0xf8b /work/glibc-obj/libc.a(dl-deps.o)
 .debug_line    0x000000000008fd46      0x5ea /work/glibc-obj/libc.a(dl-init.o)
 .debug_line    0x0000000000090330      0xa08 /work/glibc-obj/libc.a(dl-version.o)
 .debug_line    0x0000000000090d38      0x91c /work/glibc-obj/libc.a(dl-sym.o)
 .debug_line    0x0000000000091654      0x4e7 /work/glibc-obj/libc.a(strncpy.o)
 .debug_line    0x0000000000091b3b       0xdf /work/glibc-obj/libc.a(strncpy-c.o)
 .debug_line    0x0000000000091c1a      0xa42 /work/glibc-obj/libc.a(strncpy-ssse3.o)
 .debug_line    0x000000000009265c      0x3b1 /work/glibc-obj/libc.a(strncpy-sse2-unaligned.o)
 .debug_line    0x0000000000092a0d      0x476 /work/glibc-obj/libc.a(access.o)
 .debug_line    0x0000000000092e83       0x59 /work/glibc-obj/libc.a(bind.o)
 .debug_line    0x0000000000092edc       0x59 /work/glibc-obj/libc.a(getsockname.o)
 .debug_line    0x0000000000092f35      0x4b8 /work/glibc-obj/libc.a(recvmsg.o)
 .debug_line    0x00000000000933ed      0x553 /work/glibc-obj/libc.a(sendto.o)
 .debug_line    0x0000000000093940       0x61 /work/glibc-obj/csu/crtn.o

.debug_frame
 *(.debug_frame)

.debug_str      0x0000000000000000    0x1cebc
 *(.debug_str)
 .debug_str     0x0000000000000000      0x5a8 /work/glibc-obj/csu/crt1.o
                                        0x7e5 (size before relaxing)
 .debug_str     0x00000000000005a8       0x19 /work/glibc-obj/csu/crti.o
                                         0x37 (size before relaxing)
 .debug_str     0x00000000000005c1     0x7ae6 threads.o
                                       0x7e12 (size before relaxing)
 .debug_str     0x00000000000080a7     0x30b6 /work/glibc-obj/nptl/libpthread.a(pthread_create.o)
                                       0x3e14 (size before relaxing)
 .debug_str     0x000000000000b15d      0x131 /work/glibc-obj/nptl/libpthread.a(pthread_join.o)
                                       0x1736 (size before relaxing)
 .debug_str     0x000000000000b28e       0x65 /work/glibc-obj/nptl/libpthread.a(pthread_join_common.o)
                                       0x17fc (size before relaxing)
 .debug_str     0x000000000000b2f3      0x425 /work/glibc-obj/nptl/libpthread.a(pthread_mutex_lock.o)
                                       0x1d68 (size before relaxing)
 .debug_str     0x000000000000b718       0x65 /work/glibc-obj/nptl/libpthread.a(pthread_mutex_trylock.o)
                                       0x1c91 (size before relaxing)
 .debug_str     0x000000000000b77d       0xcf /work/glibc-obj/nptl/libpthread.a(pthread_mutex_unlock.o)
                                       0x1c61 (size before relaxing)
 .debug_str     0x000000000000b84c       0x15 /work/glibc-obj/nptl/libpthread.a(pthread_key_create.o)
                                       0x1702 (size before relaxing)
 .debug_str     0x000000000000b861       0x2a /work/glibc-obj/nptl/libpthread.a(pthread_key_delete.o)
                                       0x1702 (size before relaxing)
 .debug_str     0x000000000000b88b       0x24 /work/glibc-obj/nptl/libpthread.a(pthread_getspecific.o)
                                       0x1710 (size before relaxing)
 .debug_str     0x000000000000b8af       0x16 /work/glibc-obj/nptl/libpthread.a(pthread_setspecific.o)
                                       0x173a (size before relaxing)
 .debug_str     0x000000000000b8c5       0x22 /work/glibc-obj/nptl/libpthread.a(pthread_cancel.o)
                                       0x17dd (size before relaxing)
 .debug_str     0x000000000000b8e7       0x55 /work/glibc-obj/nptl/libpthread.a(pthread_once.o)
                                       0x1ea3 (size before relaxing)
 .debug_str     0x000000000000b93c       0x19 /work/glibc-obj/nptl/libpthread.a(cleanup_compat.o)
                                       0x173f (size before relaxing)
 .debug_str     0x000000000000b955       0x31 /work/glibc-obj/nptl/libpthread.a(cancellation.o)
                                         0x50 (size before relaxing)
 .debug_str     0x000000000000b986       0x31 /work/glibc-obj/nptl/libpthread.a(lowlevellock.o)
                                         0x50 (size before relaxing)
 .debug_str     0x000000000000b9b7       0x49 /work/glibc-obj/nptl/libpthread.a(pause.o)
                                       0x17f7 (size before relaxing)
 .debug_str     0x000000000000ba00       0xac /work/glibc-obj/nptl/libpthread.a(tpp.o)
                                       0x1920 (size before relaxing)
 .debug_str     0x000000000000baac      0x483 /work/glibc-obj/nptl/libpthread.a(elision-lock.o)
                                       0x2c93 (size before relaxing)
 .debug_str     0x000000000000bf2f       0x36 /work/glibc-obj/nptl/libpthread.a(elision-unlock.o)
                                       0x171a (size before relaxing)
 .debug_str     0x000000000000bf65       0x31 /work/glibc-obj/nptl/libpthread.a(elision-trylock.o)
                                       0x17d4 (size before relaxing)
 .debug_str     0x000000000000bf96      0x4c9 /work/glibc-obj/nptl/libpthread.a(nptl-init.o)
                                       0x3321 (size before relaxing)
 .debug_str     0x000000000000c45f        0x7 /work/glibc-obj/nptl/libpthread.a(vars.o)
                                       0x1801 (size before relaxing)
 .debug_str     0x000000000000c466        0x9 /work/glibc-obj/nptl/libpthread.a(events.o)
                                       0x16f0 (size before relaxing)
 .debug_str     0x000000000000c46f      0x19f /work/glibc-obj/nptl/libpthread.a(unwind.o)
                                       0x1e1c (size before relaxing)
 .debug_str     0x000000000000c60e       0x63 /work/glibc-obj/nptl/libpthread.a(sigaction.o)
                                       0x1926 (size before relaxing)
 .debug_str     0x000000000000c671      0x348 /work/glibc-obj/libc.a(libc-start.o)
                                       0x3086 (size before relaxing)
 .debug_str     0x000000000000c9b9      0x115 /work/glibc-obj/libc.a(check_fds.o)
                                        0x714 (size before relaxing)
 .debug_str     0x000000000000cace       0x6f /work/glibc-obj/libc.a(libc-tls.o)
                                       0x2ae2 (size before relaxing)
 .debug_str     0x000000000000cb3d       0x9d /work/glibc-obj/libc.a(elf-init.o)
                                        0x1c9 (size before relaxing)
 .debug_str     0x000000000000cbda        0x8 /work/glibc-obj/libc.a(errno.o)
                                        0x50a (size before relaxing)
 .debug_str     0x000000000000cbe2      0x123 /work/glibc-obj/libc.a(assert.o)
                                       0x2b1c (size before relaxing)
 .debug_str     0x000000000000cd05     0x1d63 /work/glibc-obj/libc.a(ctype-info.o)
                                       0x24ee (size before relaxing)
 .debug_str     0x000000000000ea68      0x163 /work/glibc-obj/libc.a(dcgettext.o)
                                       0x1b71 (size before relaxing)
 .debug_str     0x000000000000ebcb      0x690 /work/glibc-obj/libc.a(dcigettext.o)
                                       0x44d7 (size before relaxing)
 .debug_str     0x000000000000f25b       0xaa /work/glibc-obj/libc.a(finddomain.o)
                                       0x23da (size before relaxing)
 .debug_str     0x000000000000f305      0x284 /work/glibc-obj/libc.a(loadmsgcat.o)
                                       0x2490 (size before relaxing)
 .debug_str     0x000000000000f589      0x237 /work/glibc-obj/libc.a(localealias.o)
                                       0x239d (size before relaxing)
 .debug_str     0x000000000000f7c0       0xdd /work/glibc-obj/libc.a(l10nflist.o)
                                        0xbf9 (size before relaxing)
 .debug_str     0x000000000000f89d       0x20 /work/glibc-obj/libc.a(explodename.o)
                                        0x242 (size before relaxing)
 .debug_str     0x000000000000f8bd      0x26e /work/glibc-obj/libc.a(plural.o)
                                        0x535 (size before relaxing)
 .debug_str     0x000000000000fb2b       0x35 /work/glibc-obj/libc.a(plural-exp.o)
                                        0xb72 (size before relaxing)
 .debug_str     0x000000000000fb60       0x18 /work/glibc-obj/libc.a(hash-string.o)
                                        0x10e (size before relaxing)
 .debug_str     0x000000000000fb78       0x33 /work/glibc-obj/libc.a(bsd-_setjmp.o)
                                         0x41 (size before relaxing)
 .debug_str     0x000000000000fbab       0xaf /work/glibc-obj/libc.a(longjmp.o)
                                        0x28c (size before relaxing)
 .debug_str     0x000000000000fc5a       0x1e /work/glibc-obj/libc.a(__longjmp.o)
                                         0x3f (size before relaxing)
 .debug_str     0x000000000000fc78       0x1d /work/glibc-obj/libc.a(jmp-unwind.o)
                                       0x1560 (size before relaxing)
 .debug_str     0x000000000000fc95       0x8d /work/glibc-obj/libc.a(raise.o)
                                        0x666 (size before relaxing)
 .debug_str     0x000000000000fd22       0x30 /work/glibc-obj/libc.a(sigprocmask.o)
                                        0x5e2 (size before relaxing)
 .debug_str     0x000000000000fd52       0x2b /work/glibc-obj/libc.a(abort.o)
                                       0x1d19 (size before relaxing)
 .debug_str     0x000000000000fd7d      0xf12 /work/glibc-obj/libc.a(msort.o)
                                       0x1c9b (size before relaxing)
 .debug_str     0x0000000000010c8f       0x1c /work/glibc-obj/libc.a(getenv.o)
                                        0x59e (size before relaxing)
 .debug_str     0x0000000000010cab      0x13b /work/glibc-obj/libc.a(exit.o)
                                       0x1c77 (size before relaxing)
 .debug_str     0x0000000000010de6       0x34 /work/glibc-obj/libc.a(cxa_atexit.o)
                                       0x1643 (size before relaxing)
 .debug_str     0x0000000000010e1a       0x5c /work/glibc-obj/libc.a(strtoul.o)
                                        0x9c9 (size before relaxing)
 .debug_str     0x0000000000010e76       0x97 /work/glibc-obj/libc.a(strtoul_l.o)
                                       0x2661 (size before relaxing)
 .debug_str     0x0000000000010f0d       0x1d /work/glibc-obj/libc.a(grouping.o)
                                        0x1d2 (size before relaxing)
 .debug_str     0x0000000000010f2a       0x77 /work/glibc-obj/libc.a(fprintf.o)
                                       0x1efd (size before relaxing)
 .debug_str     0x0000000000010fa1       0x25 /work/glibc-obj/libc.a(asprintf.o)
                                       0x1ef7 (size before relaxing)
 .debug_str     0x0000000000010fc6       0x7c /work/glibc-obj/libc.a(fxprintf.o)
                                       0x1fba (size before relaxing)
 .debug_str     0x0000000000011042       0xea /work/glibc-obj/libc.a(iofclose.o)
                                       0x252d (size before relaxing)
 .debug_str     0x000000000001112c       0x19 /work/glibc-obj/libc.a(iofflush.o)
                                       0x1f2c (size before relaxing)
 .debug_str     0x0000000000011145       0x7b /work/glibc-obj/libc.a(iofopen.o)
                                       0x1f05 (size before relaxing)
 .debug_str     0x00000000000111c0       0x1e /work/glibc-obj/libc.a(iofwrite.o)
                                       0x1f3d (size before relaxing)
 .debug_str     0x00000000000111de      0x2b6 /work/glibc-obj/libc.a(wfileops.o)
                                       0x2368 (size before relaxing)
 .debug_str     0x0000000000011494      0x15c /work/glibc-obj/libc.a(vasprintf.o)
                                       0x2068 (size before relaxing)
 .debug_str     0x00000000000115f0       0xdd /work/glibc-obj/libc.a(libc_fatal.o)
                                       0x2be1 (size before relaxing)
 .debug_str     0x00000000000116cd        0xa /work/glibc-obj/libc.a(vtables.o)
                                       0x2d19 (size before relaxing)
 .debug_str     0x00000000000116d7       0x22 /work/glibc-obj/libc.a(iofgets_u.o)
                                       0x1e82 (size before relaxing)
 .debug_str     0x00000000000116f9      0x445 /work/glibc-obj/libc.a(fileops.o)
                                       0x2cea (size before relaxing)
 .debug_str     0x0000000000011b3e      0x3f9 /work/glibc-obj/libc.a(genops.o)
                                       0x24e1 (size before relaxing)
 .debug_str     0x0000000000011f37       0x74 /work/glibc-obj/libc.a(stdfiles.o)
                                       0x1ebd (size before relaxing)
 .debug_str     0x0000000000011fab        0x8 /work/glibc-obj/libc.a(stdio.o)
                                       0x1e56 (size before relaxing)
 .debug_str     0x0000000000011fb3      0x10a /work/glibc-obj/libc.a(strops.o)
                                       0x20f9 (size before relaxing)
 .debug_str     0x00000000000120bd      0xcd7 /work/glibc-obj/libc.a(malloc.o)
                                       0x4058 (size before relaxing)
 .debug_str     0x0000000000012d94       0x28 /work/glibc-obj/libc.a(morecore.o)
                                        0x7f2 (size before relaxing)
 .debug_str     0x0000000000012dbc       0x7d /work/glibc-obj/libc.a(thread-freeres.o)
                                        0x298 (size before relaxing)
 .debug_str     0x0000000000012e39       0x5b /work/glibc-obj/libc.a(strchr.o)
                                       0x23d1 (size before relaxing)
 .debug_str     0x0000000000012e94       0x48 /work/glibc-obj/libc.a(strcmp.o)
                                       0x242e (size before relaxing)
 .debug_str     0x0000000000012edc       0x48 /work/glibc-obj/libc.a(strcpy.o)
                                       0x242e (size before relaxing)
 .debug_str     0x0000000000012f24       0x4b /work/glibc-obj/libc.a(strcspn.o)
                                       0x2431 (size before relaxing)
 .debug_str     0x0000000000012f6f        0x9 /work/glibc-obj/libc.a(strdup.o)
                                        0x1ef (size before relaxing)
 .debug_str     0x0000000000012f78       0x48 /work/glibc-obj/libc.a(strlen.o)
                                       0x23d1 (size before relaxing)
 .debug_str     0x0000000000012fc0       0x4b /work/glibc-obj/libc.a(strncmp.o)
                                       0x2431 (size before relaxing)
 .debug_str     0x000000000001300b      0x12c /work/glibc-obj/libc.a(strstr.o)
                                       0x24ee (size before relaxing)
 .debug_str     0x0000000000013137       0x25 /work/glibc-obj/libc.a(memchr.o)
                                       0x23d1 (size before relaxing)
 .debug_str     0x000000000001315c       0x48 /work/glibc-obj/libc.a(memcmp.o)
                                       0x242e (size before relaxing)
 .debug_str     0x00000000000131a4       0x52 /work/glibc-obj/libc.a(memmove.o)
                                       0x2438 (size before relaxing)
 .debug_str     0x00000000000131f6       0x25 /work/glibc-obj/libc.a(memset.o)
                                       0x242e (size before relaxing)
 .debug_str     0x000000000001321b       0x4d /work/glibc-obj/libc.a(mempcpy.o)
                                       0x2433 (size before relaxing)
 .debug_str     0x0000000000013268       0x4a /work/glibc-obj/libc.a(stpcpy.o)
                                       0x2430 (size before relaxing)
 .debug_str     0x00000000000132b2       0x5c /work/glibc-obj/libc.a(strcasecmp_l.o)
                                       0x24b0 (size before relaxing)
 .debug_str     0x000000000001330e       0x4e /work/glibc-obj/libc.a(memcpy.o)
                                       0x2434 (size before relaxing)
 .debug_str     0x000000000001335c       0x53 /work/glibc-obj/libc.a(rawmemchr.o)
                                       0x23dc (size before relaxing)
 .debug_str     0x00000000000133af       0x53 /work/glibc-obj/libc.a(strchrnul.o)
                                       0x23dc (size before relaxing)
 .debug_str     0x0000000000013402       0x1b /work/glibc-obj/libc.a(strcmp-sse2.o)
                                         0x3c (size before relaxing)
 .debug_str     0x000000000001341d       0x34 /work/glibc-obj/libc.a(strcmp-sse2-unaligned.o)
                                         0x55 (size before relaxing)
 .debug_str     0x0000000000013451       0x28 /work/glibc-obj/libc.a(strcmp-ssse3.o)
                                         0x49 (size before relaxing)
 .debug_str     0x0000000000013479       0x3c /work/glibc-obj/libc.a(strncmp-sse2.o)
 .debug_str     0x0000000000013479       0x3c /work/glibc-obj/libc.a(strncmp-ssse3.o)
 .debug_str     0x0000000000013479       0x2b /work/glibc-obj/libc.a(strncmp-sse4_2.o)
                                         0x4c (size before relaxing)
 .debug_str     0x00000000000134a4       0x28 /work/glibc-obj/libc.a(memchr-sse2.o)
                                         0x49 (size before relaxing)
 .debug_str     0x00000000000134cc       0x2b /work/glibc-obj/libc.a(rawmemchr-sse2.o)
                                         0x4c (size before relaxing)
 .debug_str     0x00000000000134f7       0x2a /work/glibc-obj/libc.a(memchr-avx2.o)
                                         0x4b (size before relaxing)
 .debug_str     0x0000000000013521       0x4b /work/glibc-obj/libc.a(rawmemchr-avx2.o)
 .debug_str     0x0000000000013521       0x1b /work/glibc-obj/libc.a(memcmp-sse2.o)
                                         0x3c (size before relaxing)
 .debug_str     0x000000000001353c       0x30 /work/glibc-obj/libc.a(memcmp-avx2-movbe.o)
                                         0x51 (size before relaxing)
 .debug_str     0x000000000001356c       0x2a /work/glibc-obj/libc.a(memcmp-sse4.o)
                                         0x4b (size before relaxing)
 .debug_str     0x0000000000013596       0x2b /work/glibc-obj/libc.a(memcpy-ssse3.o)
                                         0x4c (size before relaxing)
 .debug_str     0x00000000000135c1       0x4c /work/glibc-obj/libc.a(memmove-ssse3.o)
 .debug_str     0x00000000000135c1       0x30 /work/glibc-obj/libc.a(memcpy-ssse3-back.o)
                                         0x51 (size before relaxing)
 .debug_str     0x00000000000135f1       0x51 /work/glibc-obj/libc.a(memmove-ssse3-back.o)
 .debug_str     0x00000000000135f1       0x3b /work/glibc-obj/libc.a(memmove-avx512-no-vzeroupper.o)
                                         0x5c (size before relaxing)
 .debug_str     0x000000000001362c       0x3c /work/glibc-obj/libc.a(strcasecmp_l-sse2.o)
 .debug_str     0x000000000001362c       0x49 /work/glibc-obj/libc.a(strcasecmp_l-ssse3.o)
 .debug_str     0x000000000001362c       0x4c /work/glibc-obj/libc.a(strcasecmp_l-sse4_2.o)
 .debug_str     0x000000000001362c       0x4c /work/glibc-obj/libc.a(strcasecmp_l-avx.o)
 .debug_str     0x000000000001362c       0x28 /work/glibc-obj/libc.a(strchr-sse2.o)
                                         0x49 (size before relaxing)
 .debug_str     0x0000000000013654       0x49 /work/glibc-obj/libc.a(strchrnul-sse2.o)
 .debug_str     0x0000000000013654       0x2a /work/glibc-obj/libc.a(strchr-avx2.o)
                                         0x4b (size before relaxing)
 .debug_str     0x000000000001367e       0x4b /work/glibc-obj/libc.a(strchrnul-avx2.o)
 .debug_str     0x000000000001367e       0x28 /work/glibc-obj/libc.a(strlen-sse2.o)
                                         0x49 (size before relaxing)
 .debug_str     0x00000000000136a6       0x2a /work/glibc-obj/libc.a(strlen-avx2.o)
                                         0x4b (size before relaxing)
 .debug_str     0x00000000000136d0       0x1b /work/glibc-obj/libc.a(strcpy-sse2.o)
                                         0x3c (size before relaxing)
 .debug_str     0x00000000000136eb       0x3c /work/glibc-obj/libc.a(stpcpy-sse2.o)
 .debug_str     0x00000000000136eb       0x2b /work/glibc-obj/libc.a(strcpy-ssse3.o)
                                         0x4c (size before relaxing)
 .debug_str     0x0000000000013716       0x4c /work/glibc-obj/libc.a(stpcpy-ssse3.o)
 .debug_str     0x0000000000013716       0x34 /work/glibc-obj/libc.a(strcpy-sse2-unaligned.o)
                                         0x55 (size before relaxing)
 .debug_str     0x000000000001374a       0x55 /work/glibc-obj/libc.a(stpcpy-sse2-unaligned.o)
 .debug_str     0x000000000001374a       0x31 /work/glibc-obj/libc.a(strchr-sse2-no-bsf.o)
                                         0x52 (size before relaxing)
 .debug_str     0x000000000001377b       0x2b /work/glibc-obj/libc.a(memcmp-ssse3.o)
                                         0x4c (size before relaxing)
 .debug_str     0x00000000000137a6       0x34 /work/glibc-obj/libc.a(strstr-sse2-unaligned.o)
                                         0x55 (size before relaxing)
 .debug_str     0x00000000000137da       0x1c /work/glibc-obj/libc.a(strcspn-sse2.o)
                                         0x3d (size before relaxing)
 .debug_str     0x00000000000137f6      0x1b2 /work/glibc-obj/libc.a(strcspn-c.o)
                                        0x302 (size before relaxing)
 .debug_str     0x00000000000139a8       0x27 /work/glibc-obj/libc.a(varshift.o)
                                        0x210 (size before relaxing)
 .debug_str     0x00000000000139cf       0x3a /work/glibc-obj/libc.a(memset-avx512-no-vzeroupper.o)
                                         0x5b (size before relaxing)
 .debug_str     0x0000000000013a09       0x39 /work/glibc-obj/libc.a(memmove-sse2-unaligned-erms.o)
                                         0x5a (size before relaxing)
 .debug_str     0x0000000000013a42       0x5a /work/glibc-obj/libc.a(memmove-avx-unaligned-erms.o)
 .debug_str     0x0000000000013a42       0x5a /work/glibc-obj/libc.a(memmove-avx512-unaligned-erms.o)
 .debug_str     0x0000000000013a42       0x38 /work/glibc-obj/libc.a(memset-sse2-unaligned-erms.o)
                                         0x59 (size before relaxing)
 .debug_str     0x0000000000013a7a       0x59 /work/glibc-obj/libc.a(memset-avx2-unaligned-erms.o)
 .debug_str     0x0000000000013a7a       0x59 /work/glibc-obj/libc.a(memset-avx512-unaligned-erms.o)
 .debug_str     0x0000000000013a7a      0x264 /work/glibc-obj/libc.a(cacheinfo.o)
                                       0x360f (size before relaxing)
 .debug_str     0x0000000000013cde       0x42 /work/glibc-obj/libc.a(strcasecmp_l-nonascii.o)
                                        0x9f1 (size before relaxing)
 .debug_str     0x0000000000013d20       0x1e /work/glibc-obj/libc.a(wmempcpy.o)
                                        0x198 (size before relaxing)
 .debug_str     0x0000000000013d3e       0x1a /work/glibc-obj/libc.a(mbsrtowcs.o)
                                        0x9bc (size before relaxing)
 .debug_str     0x0000000000013d58       0xde /work/glibc-obj/libc.a(wcsmbsload.o)
                                       0x39ca (size before relaxing)
 .debug_str     0x0000000000013e36       0x48 /work/glibc-obj/libc.a(mbsrtowcs_l.o)
                                       0x2056 (size before relaxing)
 .debug_str     0x0000000000013e7e       0x6c /work/glibc-obj/libc.a(gettimeofday.o)
                                        0x580 (size before relaxing)
 .debug_str     0x0000000000013eea       0x35 /work/glibc-obj/libc.a(_exit.o)
                                        0x59f (size before relaxing)
 .debug_str     0x0000000000013f1f       0x23 /work/glibc-obj/libc.a(getpid.o)
                                         0x43 (size before relaxing)
 .debug_str     0x0000000000013f42      0x13e /work/glibc-obj/libc.a(sysconf.o)
                                       0x3cc9 (size before relaxing)
 .debug_str     0x0000000000014080       0x43 /work/glibc-obj/libc.a(sched_getp.o)
 .debug_str     0x0000000000014080       0x43 /work/glibc-obj/libc.a(sched_sets.o)
 .debug_str     0x0000000000014080       0x43 /work/glibc-obj/libc.a(sched_gets.o)
 .debug_str     0x0000000000014080       0x43 /work/glibc-obj/libc.a(sched_yield.o)
 .debug_str     0x0000000000014080       0x43 /work/glibc-obj/libc.a(sched_primax.o)
 .debug_str     0x0000000000014080       0x43 /work/glibc-obj/libc.a(sched_primin.o)
 .debug_str     0x0000000000014080       0x20 /work/glibc-obj/libc.a(get_child_max.o)
                                        0x2e7 (size before relaxing)
 .debug_str     0x00000000000140a0        0xa /work/glibc-obj/libc.a(environ.o)
                                        0x1be (size before relaxing)
 .debug_str     0x00000000000140aa       0x5e /work/glibc-obj/libc.a(xstat.o)
                                        0x660 (size before relaxing)
 .debug_str     0x0000000000014108       0x39 /work/glibc-obj/libc.a(fxstat.o)
                                        0x65d (size before relaxing)
 .debug_str     0x0000000000014141       0x79 /work/glibc-obj/libc.a(open64.o)
                                       0x18a8 (size before relaxing)
 .debug_str     0x00000000000141ba       0x2e /work/glibc-obj/libc.a(read.o)
                                       0x181c (size before relaxing)
 .debug_str     0x00000000000141e8       0x23 /work/glibc-obj/libc.a(write.o)
                                       0x181f (size before relaxing)
 .debug_str     0x000000000001420b       0x48 /work/glibc-obj/libc.a(lseek64.o)
                                        0x5e5 (size before relaxing)
 .debug_str     0x0000000000014253       0x88 /work/glibc-obj/libc.a(fcntl.o)
                                       0x18e7 (size before relaxing)
 .debug_str     0x00000000000142db       0x23 /work/glibc-obj/libc.a(close.o)
                                       0x17e6 (size before relaxing)
 .debug_str     0x00000000000142fe      0x16b /work/glibc-obj/libc.a(getcwd.o)
                                       0x1935 (size before relaxing)
 .debug_str     0x0000000000014469       0x5f /work/glibc-obj/libc.a(getrlimit64.o)
                                        0x6c4 (size before relaxing)
 .debug_str     0x00000000000144c8       0x2e /work/glibc-obj/libc.a(sbrk.o)
                                        0x5b4 (size before relaxing)
 .debug_str     0x00000000000144f6       0x29 /work/glibc-obj/libc.a(getpagesize.o)
                                       0x2440 (size before relaxing)
 .debug_str     0x000000000001451f       0x25 /work/glibc-obj/libc.a(getdtsz.o)
                                        0x320 (size before relaxing)
 .debug_str     0x0000000000014544       0x32 /work/glibc-obj/libc.a(mmap64.o)
                                       0x24a9 (size before relaxing)
 .debug_str     0x0000000000014576       0x42 /work/glibc-obj/libc.a(munmap.o)
 .debug_str     0x0000000000014576       0x42 /work/glibc-obj/libc.a(mprotect.o)
 .debug_str     0x0000000000014576       0x42 /work/glibc-obj/libc.a(madvise.o)
 .debug_str     0x0000000000014576       0xf5 /work/glibc-obj/libc.a(tsearch.o)
                                        0x365 (size before relaxing)
 .debug_str     0x000000000001466b      0x104 /work/glibc-obj/libc.a(getsysstats.o)
                                       0x2364 (size before relaxing)
 .debug_str     0x000000000001476f       0x27 /work/glibc-obj/libc.a(getclktck.o)
                                       0x23ba (size before relaxing)
 .debug_str     0x0000000000014796       0x30 /work/glibc-obj/libc.a(init-misc.o)
                                        0x22a (size before relaxing)
 .debug_str     0x00000000000147c6       0x2a /work/glibc-obj/libc.a(clone.o)
                                         0x49 (size before relaxing)
 .debug_str     0x00000000000147f0       0x42 /work/glibc-obj/libc.a(mremap.o)
 .debug_str     0x00000000000147f0       0x42 /work/glibc-obj/libc.a(sysinfo.o)
 .debug_str     0x00000000000147f0       0x10 /work/glibc-obj/libc.a(alloca_cutoff.o)
                                       0x16f4 (size before relaxing)
 .debug_str     0x0000000000014800       0x50 /work/glibc-obj/libc.a(libc-cancellation.o)
 .debug_str     0x0000000000014800       0x2e /work/glibc-obj/libc.a(libc_pthread_init.o)
                                       0x280b (size before relaxing)
 .debug_str     0x000000000001482e       0x18 /work/glibc-obj/libc.a(libc_multiple_threads.o)
                                       0x17d1 (size before relaxing)
 .debug_str     0x0000000000014846       0x4f /work/glibc-obj/libc.a(register-atfork.o)
                                        0xe5f (size before relaxing)
 .debug_str     0x0000000000014895       0x37 /work/glibc-obj/libc.a(chk_fail.o)
                                        0x76e (size before relaxing)
 .debug_str     0x00000000000148cc       0x33 /work/glibc-obj/libc.a(fortify_fail.o)
                                        0x7d7 (size before relaxing)
 .debug_str     0x00000000000148ff       0x5d /work/glibc-obj/libc.a(res_libc.o)
                                       0x1afe (size before relaxing)
 .debug_str     0x000000000001495c        0xf /work/glibc-obj/libc.a(res_randomid.o)
                                        0xa98 (size before relaxing)
 .debug_str     0x000000000001496b       0xe3 /work/glibc-obj/libc.a(res-close.o)
                                        0xd91 (size before relaxing)
 .debug_str     0x0000000000014a4e      0x1c1 /work/glibc-obj/libc.a(resolv_context.o)
                                        0xe5b (size before relaxing)
 .debug_str     0x0000000000014c0f      0x4fb /work/glibc-obj/libc.a(resolv_conf.o)
                                       0x230a (size before relaxing)
 .debug_str     0x000000000001510a       0x43 /work/glibc-obj/libc.a(dl-debug.o)
                                       0x2432 (size before relaxing)
 .debug_str     0x000000000001514d      0x131 /work/glibc-obj/libc.a(dl-tls.o)
                                       0x2754 (size before relaxing)
 .debug_str     0x000000000001527e       0x46 /work/glibc-obj/libc.a(dl-execstack.o)
                                       0x24ef (size before relaxing)
 .debug_str     0x00000000000152c4      0x313 /work/glibc-obj/libc.a(dl-tunables.o)
                                       0x29db (size before relaxing)
 .debug_str     0x00000000000155d7      0x149 /work/glibc-obj/libc.a(dl-support.o)
                                       0x2831 (size before relaxing)
 .debug_str     0x0000000000015720       0xf7 /work/glibc-obj/libc.a(dl-iteratephdr.o)
                                       0x2527 (size before relaxing)
 .debug_str     0x0000000000015817       0x34 /work/glibc-obj/libc.a(enbl-secure.o)
                                        0x250 (size before relaxing)
 .debug_str     0x000000000001584b       0x33 /work/glibc-obj/libc.a(dl-profstub.o)
                                       0x23d2 (size before relaxing)
 .debug_str     0x000000000001587e       0x95 /work/glibc-obj/libc.a(dl-sysdep.o)
                                       0x2566 (size before relaxing)
 .debug_str     0x0000000000015913       0xbf /work/glibc-obj/libc.a(dl-error.o)
                                       0x2bc0 (size before relaxing)
 .debug_str     0x00000000000159d2       0x44 /work/glibc-obj/libc.a(init-first.o)
                                       0x2f18 (size before relaxing)
 .debug_str     0x0000000000015a16       0x2b /work/glibc-obj/libc.a(sysdep.o)
                                         0x49 (size before relaxing)
 .debug_str     0x0000000000015a41       0x69 /work/glibc-obj/libc.a(gconv_open.o)
                                       0x39f3 (size before relaxing)
 .debug_str     0x0000000000015aaa       0x1d /work/glibc-obj/libc.a(gconv.o)
                                       0x1f70 (size before relaxing)
 .debug_str     0x0000000000015ac7       0x1a /work/glibc-obj/libc.a(gconv_close.o)
                                       0x1cfb (size before relaxing)
 .debug_str     0x0000000000015ae1      0x297 /work/glibc-obj/libc.a(gconv_db.o)
                                       0x237e (size before relaxing)
 .debug_str     0x0000000000015d78      0x184 /work/glibc-obj/libc.a(gconv_conf.o)
                                       0x286c (size before relaxing)
 .debug_str     0x0000000000015efc       0x1c /work/glibc-obj/libc.a(gconv_builtin.o)
                                       0x1cfd (size before relaxing)
 .debug_str     0x0000000000015f18      0x4ce /work/glibc-obj/libc.a(gconv_simple.o)
                                       0x24c9 (size before relaxing)
 .debug_str     0x00000000000163e6       0x57 /work/glibc-obj/libc.a(gconv_trans.o)
                                       0x3ab0 (size before relaxing)
 .debug_str     0x000000000001643d      0x1ca /work/glibc-obj/libc.a(gconv_cache.o)
                                       0x24a8 (size before relaxing)
 .debug_str     0x0000000000016607       0x74 /work/glibc-obj/libc.a(gconv_dl.o)
                                       0x1faf (size before relaxing)
 .debug_str     0x000000000001667b      0x366 /work/glibc-obj/libc.a(setlocale.o)
                                       0x1e9e (size before relaxing)
 .debug_str     0x00000000000169e1       0xc8 /work/glibc-obj/libc.a(findlocale.o)
                                       0x39d4 (size before relaxing)
 .debug_str     0x0000000000016aa9      0x1f7 /work/glibc-obj/libc.a(loadlocale.o)
                                       0x2968 (size before relaxing)
 .debug_str     0x0000000000016ca0      0x1c1 /work/glibc-obj/libc.a(loadarchive.o)
                                       0x1d93 (size before relaxing)
 .debug_str     0x0000000000016e61       0x25 /work/glibc-obj/libc.a(lc-ctype.o)
                                       0x24c4 (size before relaxing)
 .debug_str     0x0000000000016e86      0x253 /work/glibc-obj/libc.a(C-ctype.o)
                                       0x26da (size before relaxing)
 .debug_str     0x00000000000170d9        0xb /work/glibc-obj/libc.a(SYS_libc.o)
                                        0x1a5 (size before relaxing)
 .debug_str     0x00000000000170e4        0x9 /work/glibc-obj/libc.a(C_name.o)
                                        0x966 (size before relaxing)
 .debug_str     0x00000000000170ed        0xa /work/glibc-obj/libc.a(xlocale.o)
                                        0xa7b (size before relaxing)
 .debug_str     0x00000000000170f7        0xd /work/glibc-obj/libc.a(localename.o)
                                        0x989 (size before relaxing)
 .debug_str     0x0000000000017104       0x10 /work/glibc-obj/libc.a(global-locale.o)
                                        0xa81 (size before relaxing)
 .debug_str     0x0000000000017114       0x26 /work/glibc-obj/libc.a(setfpucw.o)
                                        0x181 (size before relaxing)
 .debug_str     0x000000000001713a        0xe /work/glibc-obj/libc.a(fpu_control.o)
                                        0x179 (size before relaxing)
 .debug_str     0x0000000000017148       0x1b /work/glibc-obj/libc.a(setjmp.o)
                                         0x3c (size before relaxing)
 .debug_str     0x0000000000017163       0x20 /work/glibc-obj/libc.a(sigjmp.o)
                                        0x276 (size before relaxing)
 .debug_str     0x0000000000017183       0x79 /work/glibc-obj/libc.a(qsort.o)
                                        0x26c (size before relaxing)
 .debug_str     0x00000000000171fc       0x7c /work/glibc-obj/libc.a(setenv.o)
                                       0x1747 (size before relaxing)
 .debug_str     0x0000000000017278       0x10 /work/glibc-obj/libc.a(secure-getenv.o)
                                        0x241 (size before relaxing)
 .debug_str     0x0000000000017288       0x51 /work/glibc-obj/libc.a(strtol.o)
                                        0x9c5 (size before relaxing)
 .debug_str     0x00000000000172d9       0x2d /work/glibc-obj/libc.a(strtol_l.o)
                                       0x265e (size before relaxing)
 .debug_str     0x0000000000017306      0x850 /work/glibc-obj/libc.a(vfprintf.o)
                                       0x499d (size before relaxing)
 .debug_str     0x0000000000017b56      0x435 /work/glibc-obj/libc.a(printf_fp.o)
                                       0x4674 (size before relaxing)
 .debug_str     0x0000000000017f8b       0x6e /work/glibc-obj/libc.a(reg-printf.o)
                                       0x16be (size before relaxing)
 .debug_str     0x0000000000017ff9      0x17c /work/glibc-obj/libc.a(printf_fphex.o)
                                       0x4252 (size before relaxing)
 .debug_str     0x0000000000018175       0x94 /work/glibc-obj/libc.a(reg-modifier.o)
                                       0x1c79 (size before relaxing)
 .debug_str     0x0000000000018209       0x2f /work/glibc-obj/libc.a(reg-type.o)
                                       0x1678 (size before relaxing)
 .debug_str     0x0000000000018238       0x6f /work/glibc-obj/libc.a(vfwprintf.o)
                                       0x49ed (size before relaxing)
 .debug_str     0x00000000000182a7       0x2f /work/glibc-obj/libc.a(funlockfile.o)
                                       0x1a98 (size before relaxing)
 .debug_str     0x00000000000182d6       0x16 /work/glibc-obj/libc.a(printf-parsemb.o)
                                        0xcb0 (size before relaxing)
 .debug_str     0x00000000000182ec       0x11 /work/glibc-obj/libc.a(printf-parsewc.o)
                                        0xcb7 (size before relaxing)
 .debug_str     0x00000000000182fd       0x44 /work/glibc-obj/libc.a(filedoalloc.o)
                                       0x1fd5 (size before relaxing)
 .debug_str     0x0000000000018341        0xa /work/glibc-obj/libc.a(iofputs.o)
                                       0x1f2c (size before relaxing)
 .debug_str     0x000000000001834b       0x24 /work/glibc-obj/libc.a(wfiledoalloc.o)
                                       0x1e92 (size before relaxing)
 .debug_str     0x000000000001836f       0x39 /work/glibc-obj/libc.a(iogetdelim.o)
                                       0x1f51 (size before relaxing)
 .debug_str     0x00000000000183a8       0x33 /work/glibc-obj/libc.a(iogetline.o)
                                       0x1ed1 (size before relaxing)
 .debug_str     0x00000000000183db       0x25 /work/glibc-obj/libc.a(iopadn.o)
                                       0x1ebf (size before relaxing)
 .debug_str     0x0000000000018400        0xa /work/glibc-obj/libc.a(iowpadn.o)
                                       0x1ec1 (size before relaxing)
 .debug_str     0x000000000001840a      0x159 /work/glibc-obj/libc.a(wgenops.o)
                                       0x2146 (size before relaxing)
 .debug_str     0x0000000000018563       0x57 /work/glibc-obj/libc.a(iofwide.o)
                                       0x282d (size before relaxing)
 .debug_str     0x00000000000185ba       0x32 /work/glibc-obj/libc.a(scratch_buffer_grow_preserve.o)
                                        0x5f8 (size before relaxing)
 .debug_str     0x00000000000185ec       0x20 /work/glibc-obj/libc.a(scratch_buffer_set_array_size.o)
                                        0x5f4 (size before relaxing)
 .debug_str     0x000000000001860c       0x21 /work/glibc-obj/libc.a(dynarray_at_failure.o)
                                        0x745 (size before relaxing)
 .debug_str     0x000000000001862d       0x62 /work/glibc-obj/libc.a(dynarray_emplace_enlarge.o)
                                       0x1674 (size before relaxing)
 .debug_str     0x000000000001868f       0x2d /work/glibc-obj/libc.a(alloc_buffer_alloc_array.o)
                                       0x16ba (size before relaxing)
 .debug_str     0x00000000000186bc       0x18 /work/glibc-obj/libc.a(alloc_buffer_allocate.o)
                                        0x2b6 (size before relaxing)
 .debug_str     0x00000000000186d4       0x3a /work/glibc-obj/libc.a(alloc_buffer_copy_string.o)
                                        0x26b (size before relaxing)
 .debug_str     0x000000000001870e       0x1e /work/glibc-obj/libc.a(alloc_buffer_create_failure.o)
                                        0x7b6 (size before relaxing)
 .debug_str     0x000000000001872c        0xa /work/glibc-obj/libc.a(strndup.o)
                                        0x77b (size before relaxing)
 .debug_str     0x0000000000018736       0x21 /work/glibc-obj/libc.a(_strerror.o)
                                        0x8b5 (size before relaxing)
 .debug_str     0x0000000000018757       0x4d /work/glibc-obj/libc.a(strnlen.o)
                                       0x23d6 (size before relaxing)
 .debug_str     0x00000000000187a4       0x4b /work/glibc-obj/libc.a(strrchr.o)
                                       0x23d4 (size before relaxing)
 .debug_str     0x00000000000187ef       0x1b /work/glibc-obj/libc.a(strtok_r.o)
                                        0x18b (size before relaxing)
 .debug_str     0x000000000001880a        0x9 /work/glibc-obj/libc.a(memmem.o)
                                        0x2a0 (size before relaxing)
 .debug_str     0x0000000000018813       0x15 /work/glibc-obj/libc.a(argz-ctsep.o)
                                        0x557 (size before relaxing)
 .debug_str     0x0000000000018828        0xe /work/glibc-obj/libc.a(argz-addsep.o)
                                        0x55a (size before relaxing)
 .debug_str     0x0000000000018836       0x29 /work/glibc-obj/libc.a(strrchr-sse2.o)
                                         0x4a (size before relaxing)
 .debug_str     0x000000000001885f       0x2b /work/glibc-obj/libc.a(strrchr-avx2.o)
                                         0x4c (size before relaxing)
 .debug_str     0x000000000001888a       0x49 /work/glibc-obj/libc.a(strnlen-sse2.o)
 .debug_str     0x000000000001888a       0x4b /work/glibc-obj/libc.a(strnlen-avx2.o)
 .debug_str     0x000000000001888a       0x4a /work/glibc-obj/libc.a(wcslen.o)
                                       0x23db (size before relaxing)
 .debug_str     0x00000000000188d4        0xa /work/glibc-obj/libc.a(wmemcpy.o)
                                        0x192 (size before relaxing)
 .debug_str     0x00000000000188de        0xb /work/glibc-obj/libc.a(wmemmove.o)
                                        0x184 (size before relaxing)
 .debug_str     0x00000000000188e9       0x4d /work/glibc-obj/libc.a(wmemset.o)
                                       0x23de (size before relaxing)
 .debug_str     0x0000000000018936        0x8 /work/glibc-obj/libc.a(btowc.o)
                                       0x2384 (size before relaxing)
 .debug_str     0x000000000001893e        0xa /work/glibc-obj/libc.a(wcrtomb.o)
                                       0x3b20 (size before relaxing)
 .debug_str     0x0000000000018948        0xc /work/glibc-obj/libc.a(wcsrtombs.o)
                                       0x204c (size before relaxing)
 .debug_str     0x0000000000018954       0x4d /work/glibc-obj/libc.a(wcsnlen.o)
                                       0x243b (size before relaxing)
 .debug_str     0x00000000000189a1        0xc /work/glibc-obj/libc.a(wcschrnul.o)
                                        0x125 (size before relaxing)
 .debug_str     0x00000000000189ad       0x49 /work/glibc-obj/libc.a(wcsnlen-sse4_1.o)
 .debug_str     0x00000000000189ad       0x3e /work/glibc-obj/libc.a(wcsnlen-c.o)
                                        0x152 (size before relaxing)
 .debug_str     0x00000000000189eb       0x28 /work/glibc-obj/libc.a(wcslen-sse2.o)
                                         0x49 (size before relaxing)
 .debug_str     0x0000000000018a13       0x4b /work/glibc-obj/libc.a(wcslen-avx2.o)
 .debug_str     0x0000000000018a13       0x4b /work/glibc-obj/libc.a(wcsnlen-avx2.o)
 .debug_str     0x0000000000018a13       0x26 /work/glibc-obj/libc.a(time.o)
                                        0x506 (size before relaxing)
 .debug_str     0x0000000000018a39       0xe1 /work/glibc-obj/libc.a(opendir.o)
                                       0x1d54 (size before relaxing)
 .debug_str     0x0000000000018b1a       0x1c /work/glibc-obj/libc.a(closedir.o)
                                       0x161e (size before relaxing)
 .debug_str     0x0000000000018b36       0x44 /work/glibc-obj/libc.a(readdir.o)
                                       0x169d (size before relaxing)
 .debug_str     0x0000000000018b7a       0x25 /work/glibc-obj/libc.a(rewinddir.o)
                                       0x15e0 (size before relaxing)
 .debug_str     0x0000000000018b9f       0xac /work/glibc-obj/libc.a(getdents.o)
                                       0x1729 (size before relaxing)
 .debug_str     0x0000000000018c4b       0x1d /work/glibc-obj/libc.a(fdopendir.o)
                                       0x1703 (size before relaxing)
 .debug_str     0x0000000000018c68       0x43 /work/glibc-obj/libc.a(uname.o)
 .debug_str     0x0000000000018c68       0x43 /work/glibc-obj/libc.a(getuid.o)
 .debug_str     0x0000000000018c68       0x43 /work/glibc-obj/libc.a(geteuid.o)
 .debug_str     0x0000000000018c68       0x43 /work/glibc-obj/libc.a(getgid.o)
 .debug_str     0x0000000000018c68       0x43 /work/glibc-obj/libc.a(getegid.o)
 .debug_str     0x0000000000018c68       0x39 /work/glibc-obj/libc.a(lxstat.o)
                                        0x662 (size before relaxing)
 .debug_str     0x0000000000018ca1       0x3d /work/glibc-obj/libc.a(fxstatat.o)
                                        0xc0d (size before relaxing)
 .debug_str     0x0000000000018cde       0x36 /work/glibc-obj/libc.a(openat64.o)
                                       0x1894 (size before relaxing)
 .debug_str     0x0000000000018d14       0x7f /work/glibc-obj/libc.a(isatty.o)
                                        0x21e (size before relaxing)
 .debug_str     0x0000000000018d93       0x60 /work/glibc-obj/libc.a(tcgetattr.o)
                                        0x641 (size before relaxing)
 .debug_str     0x0000000000018df3       0x2f /work/glibc-obj/libc.a(brk.o)
                                        0x5b1 (size before relaxing)
 .debug_str     0x0000000000018e22       0x1c /work/glibc-obj/libc.a(wctrans.o)
                                       0x24a6 (size before relaxing)
 .debug_str     0x0000000000018e3e       0x68 /work/glibc-obj/libc.a(towctrans.o)
                                        0x1ee (size before relaxing)
 .debug_str     0x0000000000018ea6       0x3b /work/glibc-obj/libc.a(readonly-area.o)
                                       0x1f30 (size before relaxing)
 .debug_str     0x0000000000018ee1      0x5f1 /work/glibc-obj/libc.a(res_init.o)
                                       0x2afc (size before relaxing)
 .debug_str     0x00000000000194d2      0x410 /work/glibc-obj/libc.a(res_hconf.o)
                                       0x2aad (size before relaxing)
 .debug_str     0x00000000000198e2      0x586 /work/glibc-obj/libc.a(dl-load.o)
                                       0x2f41 (size before relaxing)
 .debug_str     0x0000000000019e68      0x3ae /work/glibc-obj/libc.a(dl-lookup.o)
                                       0x2b86 (size before relaxing)
 .debug_str     0x000000000001a216       0x30 /work/glibc-obj/libc.a(dl-object.o)
                                       0x253e (size before relaxing)
 .debug_str     0x000000000001a246      0x29d /work/glibc-obj/libc.a(dl-reloc.o)
                                       0x29ba (size before relaxing)
 .debug_str     0x000000000001a4e3       0x51 /work/glibc-obj/libc.a(dl-hwcaps.o)
                                       0x2894 (size before relaxing)
 .debug_str     0x000000000001a534       0x7a /work/glibc-obj/libc.a(dl-misc.o)
                                       0x26ea (size before relaxing)
 .debug_str     0x000000000001a5ae      0x24c /work/glibc-obj/libc.a(dl-profile.o)
                                       0x2ea4 (size before relaxing)
 .debug_str     0x000000000001a7fa       0x2f /work/glibc-obj/libc.a(dl-origin.o)
                                       0x248f (size before relaxing)
 .debug_str     0x000000000001a829        0xb /work/glibc-obj/libc.a(dl-scope.o)
                                       0x25af (size before relaxing)
 .debug_str     0x000000000001a834       0x22 /work/glibc-obj/libc.a(dl-trampoline.o)
                                         0x40 (size before relaxing)
 .debug_str     0x000000000001a856       0x9e /work/glibc-obj/libc.a(dl-exception.o)
                                       0x2610 (size before relaxing)
 .debug_str     0x000000000001a8f4       0xd0 /work/glibc-obj/libc.a(dl-cache.o)
                                       0x2896 (size before relaxing)
 .debug_str     0x000000000001a9c4       0x1f /work/glibc-obj/libc.a(dl-tlsdesc.o)
                                         0x3d (size before relaxing)
 .debug_str     0x000000000001a9e3      0x114 /work/glibc-obj/libc.a(dl-libc.o)
                                       0x266a (size before relaxing)
 .debug_str     0x000000000001aaf7        0xe /work/glibc-obj/libc.a(lc-monetary.o)
                                        0x96b (size before relaxing)
 .debug_str     0x000000000001ab05        0xd /work/glibc-obj/libc.a(lc-numeric.o)
                                        0x96a (size before relaxing)
 .debug_str     0x000000000001ab12        0xd /work/glibc-obj/libc.a(C-messages.o)
                                        0x97c (size before relaxing)
 .debug_str     0x000000000001ab1f       0x2b /work/glibc-obj/libc.a(C-monetary.o)
                                        0x99a (size before relaxing)
 .debug_str     0x000000000001ab4a        0xc /work/glibc-obj/libc.a(C-numeric.o)
                                        0x97a (size before relaxing)
 .debug_str     0x000000000001ab56        0x9 /work/glibc-obj/libc.a(C-time.o)
                                        0x974 (size before relaxing)
 .debug_str     0x000000000001ab5f        0xa /work/glibc-obj/libc.a(C-paper.o)
                                        0x976 (size before relaxing)
 .debug_str     0x000000000001ab69        0x9 /work/glibc-obj/libc.a(C-name.o)
                                        0x974 (size before relaxing)
 .debug_str     0x000000000001ab72        0xc /work/glibc-obj/libc.a(C-address.o)
                                        0x97a (size before relaxing)
 .debug_str     0x000000000001ab7e        0xe /work/glibc-obj/libc.a(C-telephone.o)
                                        0x97e (size before relaxing)
 .debug_str     0x000000000001ab8c       0x10 /work/glibc-obj/libc.a(C-measurement.o)
                                        0x982 (size before relaxing)
 .debug_str     0x000000000001ab9c       0x13 /work/glibc-obj/libc.a(C-identification.o)
                                        0x988 (size before relaxing)
 .debug_str     0x000000000001abaf       0x20 /work/glibc-obj/libc.a(C-collate.o)
                                        0x98e (size before relaxing)
 .debug_str     0x000000000001abcf       0x2c /work/glibc-obj/libc.a(cmp.o)
                                        0x294 (size before relaxing)
 .debug_str     0x000000000001abfb       0x72 /work/glibc-obj/libc.a(divrem.o)
                                        0x300 (size before relaxing)
 .debug_str     0x000000000001ac6d       0x1b /work/glibc-obj/libc.a(lshift.o)
                                         0x3c (size before relaxing)
 .debug_str     0x000000000001ac88       0x1b /work/glibc-obj/libc.a(rshift.o)
                                         0x3c (size before relaxing)
 .debug_str     0x000000000001aca3       0x75 /work/glibc-obj/libc.a(mul.o)
                                        0x304 (size before relaxing)
 .debug_str     0x000000000001ad18       0x1a /work/glibc-obj/libc.a(mul_1.o)
                                         0x3b (size before relaxing)
 .debug_str     0x000000000001ad32       0x60 /work/glibc-obj/libc.a(mul_n.o)
                                        0x365 (size before relaxing)
 .debug_str     0x000000000001ad92       0x1a /work/glibc-obj/libc.a(sub_n.o)
                                         0x3b (size before relaxing)
 .debug_str     0x000000000001adac       0x1d /work/glibc-obj/libc.a(submul_1.o)
                                         0x3e (size before relaxing)
 .debug_str     0x000000000001adc9       0x29 /work/glibc-obj/libc.a(dbl2mpn.o)
                                        0x360 (size before relaxing)
 .debug_str     0x000000000001adf2       0x1d /work/glibc-obj/libc.a(ldbl2mpn.o)
                                        0x369 (size before relaxing)
 .debug_str     0x000000000001ae0f       0x2b /work/glibc-obj/libc.a(float1282mpn.o)
                                        0x3bd (size before relaxing)
 .debug_str     0x000000000001ae3a        0xc /work/glibc-obj/libc.a(fpioconst.o)
                                        0x1cb (size before relaxing)
 .debug_str     0x000000000001ae46       0x1b /work/glibc-obj/libc.a(_itoa.o)
                                        0x2d6 (size before relaxing)
 .debug_str     0x000000000001ae61        0xe /work/glibc-obj/libc.a(itoa-digits.o)
                                        0x11f (size before relaxing)
 .debug_str     0x000000000001ae6f        0xf /work/glibc-obj/libc.a(itoa-udigits.o)
                                        0x120 (size before relaxing)
 .debug_str     0x000000000001ae7e        0xf /work/glibc-obj/libc.a(itowa-digits.o)
                                        0x14a (size before relaxing)
 .debug_str     0x000000000001ae8d        0xe /work/glibc-obj/libc.a(snprintf.o)
                                       0x1ef2 (size before relaxing)
 .debug_str     0x000000000001ae9b        0xe /work/glibc-obj/libc.a(getline.o)
                                       0x1e85 (size before relaxing)
 .debug_str     0x000000000001ae9b      0x169 /work/glibc-obj/libc.a(errlist.o)
                                        0x6aa (size before relaxing)
 .debug_str     0x000000000001b004       0x38 /work/glibc-obj/libc.a(vsnprintf.o)
                                       0x1fcd (size before relaxing)
 .debug_str     0x000000000001b03c       0x97 /work/glibc-obj/libc.a(sdlerror.o)
                                       0x2b67 (size before relaxing)
 .debug_str     0x000000000001b0d3       0x1c /work/glibc-obj/libc.a(sdladdr.o)
                                       0x23b1 (size before relaxing)
 .debug_str     0x000000000001b0ef       0x34 /work/glibc-obj/libc.a(sdladdr1.o)
                                       0x23d8 (size before relaxing)
 .debug_str     0x000000000001b123       0xf8 /work/glibc-obj/libc.a(sdlinfo.o)
                                       0x258c (size before relaxing)
 .debug_str     0x000000000001b21b       0x2f /work/glibc-obj/libc.a(sdlmopen.o)
                                       0x2580 (size before relaxing)
 .debug_str     0x000000000001b24a       0x1a /work/glibc-obj/libc.a(alloc_buffer_copy_bytes.o)
                                        0x2d3 (size before relaxing)
 .debug_str     0x000000000001b264       0x1a /work/glibc-obj/libc.a(strerror.o)
                                        0xb76 (size before relaxing)
 .debug_str     0x000000000001b264       0x4b /work/glibc-obj/libc.a(strpbrk.o)
                                       0x2431 (size before relaxing)
 .debug_str     0x000000000001b2af       0x48 /work/glibc-obj/libc.a(strspn.o)
                                       0x242e (size before relaxing)
 .debug_str     0x000000000001b2f7       0x56 /work/glibc-obj/libc.a(strcasecmp.o)
                                       0x243c (size before relaxing)
 .debug_str     0x000000000001b34d       0x56 /work/glibc-obj/libc.a(strncase.o)
                                       0x243c (size before relaxing)
 .debug_str     0x000000000001b3a3       0x11 /work/glibc-obj/libc.a(strsep.o)
                                        0x185 (size before relaxing)
 .debug_str     0x000000000001b3b4       0x3c /work/glibc-obj/libc.a(strncase_l-sse2.o)
 .debug_str     0x000000000001b3b4       0x49 /work/glibc-obj/libc.a(strncase_l-ssse3.o)
 .debug_str     0x000000000001b3b4       0x4c /work/glibc-obj/libc.a(strncase_l-sse4_2.o)
 .debug_str     0x000000000001b3b4       0x4c /work/glibc-obj/libc.a(strncase_l-avx.o)
 .debug_str     0x000000000001b3b4       0x3d /work/glibc-obj/libc.a(strpbrk-sse2.o)
 .debug_str     0x000000000001b3b4       0x1b /work/glibc-obj/libc.a(strspn-sse2.o)
                                         0x3c (size before relaxing)
 .debug_str     0x000000000001b3cf       0x47 /work/glibc-obj/libc.a(strpbrk-c.o)
                                        0x2fb (size before relaxing)
 .debug_str     0x000000000001b416       0x44 /work/glibc-obj/libc.a(strspn-c.o)
                                        0x2e5 (size before relaxing)
 .debug_str     0x000000000001b45a       0x41 /work/glibc-obj/libc.a(strncase_l-nonascii.o)
                                        0x9f0 (size before relaxing)
 .debug_str     0x000000000001b49b       0x42 /work/glibc-obj/libc.a(ioctl.o)
 .debug_str     0x000000000001b49b       0x28 /work/glibc-obj/libc.a(gethostname.o)
                                        0x5ea (size before relaxing)
 .debug_str     0x000000000001b4c3       0x13 /work/glibc-obj/libc.a(socket.o)
                                         0x44 (size before relaxing)
 .debug_str     0x000000000001b4d6      0x2a7 /work/glibc-obj/libc.a(profil.o)
                                        0xabc (size before relaxing)
 .debug_str     0x000000000001b77d       0x27 /work/glibc-obj/libc.a(prof-freq.o)
                                       0x23d8 (size before relaxing)
 .debug_str     0x000000000001b7a4       0x1e /work/glibc-obj/libc.a(inet_mkadr.o)
                                        0x393 (size before relaxing)
 .debug_str     0x000000000001b7c2       0x3e /work/glibc-obj/libc.a(inet6_scopeid_pton.o)
                                        0xa63 (size before relaxing)
 .debug_str     0x000000000001b800       0x6b /work/glibc-obj/libc.a(ifreq.o)
                                        0x9de (size before relaxing)
 .debug_str     0x000000000001b86b       0x24 /work/glibc-obj/libc.a(inet_addr.o)
                                        0xacb (size before relaxing)
 .debug_str     0x000000000001b88f       0x81 /work/glibc-obj/libc.a(inet_pton.o)
                                       0x113c (size before relaxing)
 .debug_str     0x000000000001b910       0xd8 /work/glibc-obj/libc.a(dl-runtime.o)
                                       0x2da4 (size before relaxing)
 .debug_str     0x000000000001b9e8      0x15f /work/glibc-obj/libc.a(dl-open.o)
                                       0x305b (size before relaxing)
 .debug_str     0x000000000001bb47       0xf4 /work/glibc-obj/libc.a(dl-close.o)
                                       0x2e55 (size before relaxing)
 .debug_str     0x000000000001bc3b       0x45 /work/glibc-obj/libc.a(dl-sort-maps.o)
                                       0x2424 (size before relaxing)
 .debug_str     0x000000000001bc80       0x9d /work/glibc-obj/libc.a(tlsdesc.o)
                                       0x25d9 (size before relaxing)
 .debug_str     0x000000000001bd1d       0x52 /work/glibc-obj/libc.a(dl-addr.o)
                                       0x2481 (size before relaxing)
 .debug_str     0x000000000001bd6f        0xe /work/glibc-obj/libc.a(dl-addr-obj.o)
                                       0x1c66 (size before relaxing)
 .debug_str     0x000000000001bd7d       0x3b /work/glibc-obj/libc.a(add_n.o)
 .debug_str     0x000000000001bd7d       0x3e /work/glibc-obj/libc.a(addmul_1.o)
 .debug_str     0x000000000001bd7d       0x1f /work/glibc-obj/libc.a(sdlopen.o)
                                       0x2540 (size before relaxing)
 .debug_str     0x000000000001bd9c       0x22 /work/glibc-obj/libc.a(sdlclose.o)
                                       0x23c8 (size before relaxing)
 .debug_str     0x000000000001bdbe       0x24 /work/glibc-obj/libc.a(sdlsym.o)
                                       0x2406 (size before relaxing)
 .debug_str     0x000000000001bde2       0x34 /work/glibc-obj/libc.a(sdlvsym.o)
                                       0x241f (size before relaxing)
 .debug_str     0x000000000001be16       0x42 /work/glibc-obj/libc.a(setitimer.o)
 .debug_str     0x000000000001be16       0x57 /work/glibc-obj/libc.a(opensock.o)
                                        0xc11 (size before relaxing)
 .debug_str     0x000000000001be6d      0x77d /work/glibc-obj/libc.a(if_index.o)
                                       0x2406 (size before relaxing)
 .debug_str     0x000000000001c5ea      0x49d /work/glibc-obj/libc.a(ifaddrs.o)
                                       0x1303 (size before relaxing)
 .debug_str     0x000000000001ca87       0x82 /work/glibc-obj/libc.a(netlink_assert_response.o)
                                        0xbbb (size before relaxing)
 .debug_str     0x000000000001cb09       0xc6 /work/glibc-obj/libc.a(dl-deps.o)
                                       0x279e (size before relaxing)
 .debug_str     0x000000000001cbcf       0x3c /work/glibc-obj/libc.a(dl-init.o)
                                       0x2400 (size before relaxing)
 .debug_str     0x000000000001cc0b      0x137 /work/glibc-obj/libc.a(dl-version.o)
                                       0x26ff (size before relaxing)
 .debug_str     0x000000000001cd42       0x38 /work/glibc-obj/libc.a(dl-sym.o)
                                       0x2dde (size before relaxing)
 .debug_str     0x000000000001cd7a       0x4b /work/glibc-obj/libc.a(strncpy.o)
                                       0x2431 (size before relaxing)
 .debug_str     0x000000000001cdc5       0x37 /work/glibc-obj/libc.a(strncpy-c.o)
                                        0x1d4 (size before relaxing)
 .debug_str     0x000000000001cdfc       0x4c /work/glibc-obj/libc.a(strncpy-ssse3.o)
 .debug_str     0x000000000001cdfc       0x55 /work/glibc-obj/libc.a(strncpy-sse2-unaligned.o)
 .debug_str     0x000000000001cdfc       0x24 /work/glibc-obj/libc.a(access.o)
                                       0x179a (size before relaxing)
 .debug_str     0x000000000001ce20       0x44 /work/glibc-obj/libc.a(bind.o)
 .debug_str     0x000000000001ce20       0x44 /work/glibc-obj/libc.a(getsockname.o)
 .debug_str     0x000000000001ce20       0x34 /work/glibc-obj/libc.a(recvmsg.o)
                                       0x1815 (size before relaxing)
 .debug_str     0x000000000001ce54       0x4f /work/glibc-obj/libc.a(sendto.o)
                                       0x17da (size before relaxing)
 .debug_str     0x000000000001cea3       0x19 /work/glibc-obj/csu/crtn.o
                                         0x37 (size before relaxing)

.debug_loc      0x0000000000000000    0xcb068
 *(.debug_loc)
 .debug_loc     0x0000000000000000     0x599b /work/glibc-obj/nptl/libpthread.a(pthread_create.o)
 .debug_loc     0x000000000000599b       0x72 /work/glibc-obj/nptl/libpthread.a(pthread_join.o)
 .debug_loc     0x0000000000005a0d      0x6cf /work/glibc-obj/nptl/libpthread.a(pthread_join_common.o)
 .debug_loc     0x00000000000060dc     0x1552 /work/glibc-obj/nptl/libpthread.a(pthread_mutex_lock.o)
 .debug_loc     0x000000000000762e      0xd29 /work/glibc-obj/nptl/libpthread.a(pthread_mutex_trylock.o)
 .debug_loc     0x0000000000008357      0xc8f /work/glibc-obj/nptl/libpthread.a(pthread_mutex_unlock.o)
 .debug_loc     0x0000000000008fe6      0x14e /work/glibc-obj/nptl/libpthread.a(pthread_key_create.o)
 .debug_loc     0x0000000000009134      0x117 /work/glibc-obj/nptl/libpthread.a(pthread_key_delete.o)
 .debug_loc     0x000000000000924b      0x1c1 /work/glibc-obj/nptl/libpthread.a(pthread_getspecific.o)
 .debug_loc     0x000000000000940c      0x220 /work/glibc-obj/nptl/libpthread.a(pthread_setspecific.o)
 .debug_loc     0x000000000000962c      0x2f8 /work/glibc-obj/nptl/libpthread.a(pthread_cancel.o)
 .debug_loc     0x0000000000009924      0x733 /work/glibc-obj/nptl/libpthread.a(pthread_once.o)
 .debug_loc     0x000000000000a057      0x10a /work/glibc-obj/nptl/libpthread.a(cleanup_compat.o)
 .debug_loc     0x000000000000a161      0x1a6 /work/glibc-obj/nptl/libpthread.a(pause.o)
 .debug_loc     0x000000000000a307      0x933 /work/glibc-obj/nptl/libpthread.a(tpp.o)
 .debug_loc     0x000000000000ac3a      0x4fc /work/glibc-obj/nptl/libpthread.a(elision-lock.o)
 .debug_loc     0x000000000000b136       0x36 /work/glibc-obj/nptl/libpthread.a(elision-unlock.o)
 .debug_loc     0x000000000000b16c      0x271 /work/glibc-obj/nptl/libpthread.a(elision-trylock.o)
 .debug_loc     0x000000000000b3dd      0xb3c /work/glibc-obj/nptl/libpthread.a(nptl-init.o)
 .debug_loc     0x000000000000bf19      0x750 /work/glibc-obj/nptl/libpthread.a(unwind.o)
 .debug_loc     0x000000000000c669      0x2d7 /work/glibc-obj/nptl/libpthread.a(sigaction.o)
 .debug_loc     0x000000000000c940      0xc3c /work/glibc-obj/libc.a(libc-start.o)
 .debug_loc     0x000000000000d57c      0x138 /work/glibc-obj/libc.a(check_fds.o)
 .debug_loc     0x000000000000d6b4      0x41c /work/glibc-obj/libc.a(libc-tls.o)
 .debug_loc     0x000000000000dad0      0x213 /work/glibc-obj/libc.a(elf-init.o)
 .debug_loc     0x000000000000dce3      0x38e /work/glibc-obj/libc.a(assert.o)
 .debug_loc     0x000000000000e071       0xbe /work/glibc-obj/libc.a(dcgettext.o)
 .debug_loc     0x000000000000e12f     0x2e92 /work/glibc-obj/libc.a(dcigettext.o)
 .debug_loc     0x0000000000010fc1      0x420 /work/glibc-obj/libc.a(finddomain.o)
 .debug_loc     0x00000000000113e1     0x1c96 /work/glibc-obj/libc.a(loadmsgcat.o)
 .debug_loc     0x0000000000013077      0x988 /work/glibc-obj/libc.a(localealias.o)
 .debug_loc     0x00000000000139ff     0x117d /work/glibc-obj/libc.a(l10nflist.o)
 .debug_loc     0x0000000000014b7c      0x632 /work/glibc-obj/libc.a(explodename.o)
 .debug_loc     0x00000000000151ae     0x1d54 /work/glibc-obj/libc.a(plural.o)
 .debug_loc     0x0000000000016f02      0x1ed /work/glibc-obj/libc.a(plural-exp.o)
 .debug_loc     0x00000000000170ef       0xd8 /work/glibc-obj/libc.a(hash-string.o)
 .debug_loc     0x00000000000171c7       0x95 /work/glibc-obj/libc.a(longjmp.o)
 .debug_loc     0x000000000001725c       0x98 /work/glibc-obj/libc.a(jmp-unwind.o)
 .debug_loc     0x00000000000172f4      0x3a4 /work/glibc-obj/libc.a(raise.o)
 .debug_loc     0x0000000000017698       0xcd /work/glibc-obj/libc.a(sigprocmask.o)
 .debug_loc     0x0000000000017765      0x16a /work/glibc-obj/libc.a(abort.o)
 .debug_loc     0x00000000000178cf     0x13ae /work/glibc-obj/libc.a(msort.o)
 .debug_loc     0x0000000000018c7d      0x15b /work/glibc-obj/libc.a(getenv.o)
 .debug_loc     0x0000000000018dd8      0x34e /work/glibc-obj/libc.a(exit.o)
 .debug_loc     0x0000000000019126      0x579 /work/glibc-obj/libc.a(cxa_atexit.o)
 .debug_loc     0x000000000001969f      0x18f /work/glibc-obj/libc.a(strtoul.o)
 .debug_loc     0x000000000001982e     0x1121 /work/glibc-obj/libc.a(strtoul_l.o)
 .debug_loc     0x000000000001a94f      0x466 /work/glibc-obj/libc.a(grouping.o)
 .debug_loc     0x000000000001adb5       0x72 /work/glibc-obj/libc.a(fprintf.o)
 .debug_loc     0x000000000001ae27       0x72 /work/glibc-obj/libc.a(asprintf.o)
 .debug_loc     0x000000000001ae99      0x5ed /work/glibc-obj/libc.a(fxprintf.o)
 .debug_loc     0x000000000001b486      0x342 /work/glibc-obj/libc.a(iofclose.o)
 .debug_loc     0x000000000001b7c8      0x2ea /work/glibc-obj/libc.a(iofflush.o)
 .debug_loc     0x000000000001bab2      0x337 /work/glibc-obj/libc.a(iofopen.o)
 .debug_loc     0x000000000001bde9      0x5cd /work/glibc-obj/libc.a(iofwrite.o)
 .debug_loc     0x000000000001c3b6     0x2fbf /work/glibc-obj/libc.a(wfileops.o)
 .debug_loc     0x000000000001f375      0x234 /work/glibc-obj/libc.a(vasprintf.o)
 .debug_loc     0x000000000001f5a9      0x966 /work/glibc-obj/libc.a(libc_fatal.o)
 .debug_loc     0x000000000001ff0f      0x274 /work/glibc-obj/libc.a(iofgets_u.o)
 .debug_loc     0x0000000000020183     0x5a08 /work/glibc-obj/libc.a(fileops.o)
 .debug_loc     0x0000000000025b8b     0x39e5 /work/glibc-obj/libc.a(genops.o)
 .debug_loc     0x0000000000029570     0x106c /work/glibc-obj/libc.a(strops.o)
 .debug_loc     0x000000000002a5dc     0xd3e3 /work/glibc-obj/libc.a(malloc.o)
 .debug_loc     0x00000000000379bf       0x5c /work/glibc-obj/libc.a(morecore.o)
 .debug_loc     0x0000000000037a1b       0x23 /work/glibc-obj/libc.a(thread-freeres.o)
 .debug_loc     0x0000000000037a3e      0x107 /work/glibc-obj/libc.a(strdup.o)
 .debug_loc     0x0000000000037b45     0x2578 /work/glibc-obj/libc.a(strstr.o)
 .debug_loc     0x000000000003a0bd      0x8a5 /work/glibc-obj/libc.a(strcspn-c.o)
 .debug_loc     0x000000000003a962     0x1d4d /work/glibc-obj/libc.a(cacheinfo.o)
 .debug_loc     0x000000000003c6af      0x2aa /work/glibc-obj/libc.a(strcasecmp_l-nonascii.o)
 .debug_loc     0x000000000003c959       0xab /work/glibc-obj/libc.a(wmempcpy.o)
 .debug_loc     0x000000000003ca04       0xe4 /work/glibc-obj/libc.a(mbsrtowcs.o)
 .debug_loc     0x000000000003cae8      0x777 /work/glibc-obj/libc.a(wcsmbsload.o)
 .debug_loc     0x000000000003d25f      0x68f /work/glibc-obj/libc.a(mbsrtowcs_l.o)
 .debug_loc     0x000000000003d8ee       0x5b /work/glibc-obj/libc.a(gettimeofday.o)
 .debug_loc     0x000000000003d949      0x148 /work/glibc-obj/libc.a(_exit.o)
 .debug_loc     0x000000000003da91      0x5cf /work/glibc-obj/libc.a(sysconf.o)
 .debug_loc     0x000000000003e060      0x1de /work/glibc-obj/libc.a(xstat.o)
 .debug_loc     0x000000000003e23e      0x1de /work/glibc-obj/libc.a(fxstat.o)
 .debug_loc     0x000000000003e41c      0x844 /work/glibc-obj/libc.a(open64.o)
 .debug_loc     0x000000000003ec60      0x64e /work/glibc-obj/libc.a(read.o)
 .debug_loc     0x000000000003f2ae      0x64e /work/glibc-obj/libc.a(write.o)
 .debug_loc     0x000000000003f8fc       0xcd /work/glibc-obj/libc.a(lseek64.o)
 .debug_loc     0x000000000003f9c9      0x64c /work/glibc-obj/libc.a(fcntl.o)
 .debug_loc     0x0000000000040015      0x29a /work/glibc-obj/libc.a(close.o)
 .debug_loc     0x00000000000402af     0x149d /work/glibc-obj/libc.a(getcwd.o)
 .debug_loc     0x000000000004174c      0x133 /work/glibc-obj/libc.a(getrlimit64.o)
 .debug_loc     0x000000000004187f       0xd4 /work/glibc-obj/libc.a(sbrk.o)
 .debug_loc     0x0000000000041953      0x5a3 /work/glibc-obj/libc.a(mmap64.o)
 .debug_loc     0x0000000000041ef6     0x1b31 /work/glibc-obj/libc.a(tsearch.o)
 .debug_loc     0x0000000000043a27      0xb61 /work/glibc-obj/libc.a(getsysstats.o)
 .debug_loc     0x0000000000044588      0x12f /work/glibc-obj/libc.a(init-misc.o)
 .debug_loc     0x00000000000446b7       0x46 /work/glibc-obj/libc.a(alloca_cutoff.o)
 .debug_loc     0x00000000000446fd       0xd9 /work/glibc-obj/libc.a(libc_pthread_init.o)
 .debug_loc     0x00000000000447d6      0x3e5 /work/glibc-obj/libc.a(register-atfork.o)
 .debug_loc     0x0000000000044bbb       0xb8 /work/glibc-obj/libc.a(fortify_fail.o)
 .debug_loc     0x0000000000044c73      0x1db /work/glibc-obj/libc.a(res-close.o)
 .debug_loc     0x0000000000044e4e      0x566 /work/glibc-obj/libc.a(resolv_context.o)
 .debug_loc     0x00000000000453b4     0x21d7 /work/glibc-obj/libc.a(resolv_conf.o)
 .debug_loc     0x000000000004758b       0x62 /work/glibc-obj/libc.a(dl-debug.o)
 .debug_loc     0x00000000000475ed      0xe27 /work/glibc-obj/libc.a(dl-tls.o)
 .debug_loc     0x0000000000048414      0x10b /work/glibc-obj/libc.a(dl-execstack.o)
 .debug_loc     0x000000000004851f     0x1547 /work/glibc-obj/libc.a(dl-tunables.o)
 .debug_loc     0x0000000000049a66      0x788 /work/glibc-obj/libc.a(dl-support.o)
 .debug_loc     0x000000000004a1ee      0x17d /work/glibc-obj/libc.a(dl-iteratephdr.o)
 .debug_loc     0x000000000004a36b       0xab /work/glibc-obj/libc.a(dl-profstub.o)
 .debug_loc     0x000000000004a416      0xd70 /work/glibc-obj/libc.a(dl-sysdep.o)
 .debug_loc     0x000000000004b186      0x71e /work/glibc-obj/libc.a(dl-error.o)
 .debug_loc     0x000000000004b8a4      0x143 /work/glibc-obj/libc.a(init-first.o)
 .debug_loc     0x000000000004b9e7      0xa32 /work/glibc-obj/libc.a(gconv_open.o)
 .debug_loc     0x000000000004c419      0x5b4 /work/glibc-obj/libc.a(gconv.o)
 .debug_loc     0x000000000004c9cd      0x151 /work/glibc-obj/libc.a(gconv_close.o)
 .debug_loc     0x000000000004cb1e     0x2861 /work/glibc-obj/libc.a(gconv_db.o)
 .debug_loc     0x000000000004f37f     0x186f /work/glibc-obj/libc.a(gconv_conf.o)
 .debug_loc     0x0000000000050bee       0xcf /work/glibc-obj/libc.a(gconv_builtin.o)
 .debug_loc     0x0000000000050cbd    0x136fe /work/glibc-obj/libc.a(gconv_simple.o)
 .debug_loc     0x00000000000643bb      0xd81 /work/glibc-obj/libc.a(gconv_trans.o)
 .debug_loc     0x000000000006513c      0xf6b /work/glibc-obj/libc.a(gconv_cache.o)
 .debug_loc     0x00000000000660a7      0x5d0 /work/glibc-obj/libc.a(gconv_dl.o)
 .debug_loc     0x0000000000066677      0xe9f /work/glibc-obj/libc.a(setlocale.o)
 .debug_loc     0x0000000000067516      0xdae /work/glibc-obj/libc.a(findlocale.o)
 .debug_loc     0x00000000000682c4      0x91d /work/glibc-obj/libc.a(loadlocale.o)
 .debug_loc     0x0000000000068be1      0xb32 /work/glibc-obj/libc.a(loadarchive.o)
 .debug_loc     0x0000000000069713       0x26 /work/glibc-obj/libc.a(lc-ctype.o)
 .debug_loc     0x0000000000069739       0x39 /work/glibc-obj/libc.a(setfpucw.o)
 .debug_loc     0x0000000000069772       0x85 /work/glibc-obj/libc.a(sigjmp.o)
 .debug_loc     0x00000000000697f7      0xe21 /work/glibc-obj/libc.a(qsort.o)
 .debug_loc     0x000000000006a618      0x7c7 /work/glibc-obj/libc.a(setenv.o)
 .debug_loc     0x000000000006addf       0x4c /work/glibc-obj/libc.a(secure-getenv.o)
 .debug_loc     0x000000000006ae2b      0x18f /work/glibc-obj/libc.a(strtol.o)
 .debug_loc     0x000000000006afba     0x10d7 /work/glibc-obj/libc.a(strtol_l.o)
 .debug_loc     0x000000000006c091     0xb1e1 /work/glibc-obj/libc.a(vfprintf.o)
 .debug_loc     0x0000000000077272     0x73a1 /work/glibc-obj/libc.a(printf_fp.o)
 .debug_loc     0x000000000007e613      0x262 /work/glibc-obj/libc.a(reg-printf.o)
 .debug_loc     0x000000000007e875     0x461d /work/glibc-obj/libc.a(printf_fphex.o)
 .debug_loc     0x0000000000082e92      0x57c /work/glibc-obj/libc.a(reg-modifier.o)
 .debug_loc     0x000000000008340e       0xac /work/glibc-obj/libc.a(reg-type.o)
 .debug_loc     0x00000000000834ba     0xbacc /work/glibc-obj/libc.a(vfwprintf.o)
 .debug_loc     0x000000000008ef86       0x39 /work/glibc-obj/libc.a(funlockfile.o)
 .debug_loc     0x000000000008efbf      0x9bc /work/glibc-obj/libc.a(printf-parsemb.o)
 .debug_loc     0x000000000008f97b      0x8ac /work/glibc-obj/libc.a(printf-parsewc.o)
 .debug_loc     0x0000000000090227      0x2be /work/glibc-obj/libc.a(filedoalloc.o)
 .debug_loc     0x00000000000904e5      0x4e8 /work/glibc-obj/libc.a(iofputs.o)
 .debug_loc     0x00000000000909cd       0xcb /work/glibc-obj/libc.a(wfiledoalloc.o)
 .debug_loc     0x0000000000090a98      0x689 /work/glibc-obj/libc.a(iogetdelim.o)
 .debug_loc     0x0000000000091121      0x740 /work/glibc-obj/libc.a(iogetline.o)
 .debug_loc     0x0000000000091861      0x3be /work/glibc-obj/libc.a(iopadn.o)
 .debug_loc     0x0000000000091c1f      0x39d /work/glibc-obj/libc.a(iowpadn.o)
 .debug_loc     0x0000000000091fbc     0x23d1 /work/glibc-obj/libc.a(wgenops.o)
 .debug_loc     0x000000000009438d      0xbd0 /work/glibc-obj/libc.a(iofwide.o)
 .debug_loc     0x0000000000094f5d      0x153 /work/glibc-obj/libc.a(scratch_buffer_grow_preserve.o)
 .debug_loc     0x00000000000950b0      0x323 /work/glibc-obj/libc.a(scratch_buffer_set_array_size.o)
 .debug_loc     0x00000000000953d3       0x98 /work/glibc-obj/libc.a(dynarray_at_failure.o)
 .debug_loc     0x000000000009546b      0x3d6 /work/glibc-obj/libc.a(dynarray_emplace_enlarge.o)
 .debug_loc     0x0000000000095841      0x182 /work/glibc-obj/libc.a(alloc_buffer_alloc_array.o)
 .debug_loc     0x00000000000959c3      0x13e /work/glibc-obj/libc.a(alloc_buffer_allocate.o)
 .debug_loc     0x0000000000095b01       0xb7 /work/glibc-obj/libc.a(alloc_buffer_copy_string.o)
 .debug_loc     0x0000000000095bb8       0x85 /work/glibc-obj/libc.a(alloc_buffer_create_failure.o)
 .debug_loc     0x0000000000095c3d      0x153 /work/glibc-obj/libc.a(strndup.o)
 .debug_loc     0x0000000000095d90      0x3a1 /work/glibc-obj/libc.a(_strerror.o)
 .debug_loc     0x0000000000096131      0x1cb /work/glibc-obj/libc.a(strtok_r.o)
 .debug_loc     0x00000000000962fc     0x2192 /work/glibc-obj/libc.a(memmem.o)
 .debug_loc     0x000000000009848e      0x363 /work/glibc-obj/libc.a(argz-ctsep.o)
 .debug_loc     0x00000000000987f1      0x312 /work/glibc-obj/libc.a(argz-addsep.o)
 .debug_loc     0x0000000000098b03       0xab /work/glibc-obj/libc.a(wmemcpy.o)
 .debug_loc     0x0000000000098bae       0xab /work/glibc-obj/libc.a(wmemmove.o)
 .debug_loc     0x0000000000098c59      0x231 /work/glibc-obj/libc.a(btowc.o)
 .debug_loc     0x0000000000098e8a      0x294 /work/glibc-obj/libc.a(wcrtomb.o)
 .debug_loc     0x000000000009911e      0x5be /work/glibc-obj/libc.a(wcsrtombs.o)
 .debug_loc     0x00000000000996dc       0x36 /work/glibc-obj/libc.a(wcschrnul.o)
 .debug_loc     0x0000000000099712      0x1c5 /work/glibc-obj/libc.a(wcsnlen-c.o)
 .debug_loc     0x00000000000998d7      0x561 /work/glibc-obj/libc.a(opendir.o)
 .debug_loc     0x0000000000099e38       0x82 /work/glibc-obj/libc.a(closedir.o)
 .debug_loc     0x0000000000099eba      0x1ba /work/glibc-obj/libc.a(readdir.o)
 .debug_loc     0x000000000009a074       0x4c /work/glibc-obj/libc.a(rewinddir.o)
 .debug_loc     0x000000000009a0c0      0x33f /work/glibc-obj/libc.a(getdents.o)
 .debug_loc     0x000000000009a3ff       0xbe /work/glibc-obj/libc.a(fdopendir.o)
 .debug_loc     0x000000000009a4bd      0x1de /work/glibc-obj/libc.a(lxstat.o)
 .debug_loc     0x000000000009a69b      0x29c /work/glibc-obj/libc.a(fxstatat.o)
 .debug_loc     0x000000000009a937      0x7ef /work/glibc-obj/libc.a(openat64.o)
 .debug_loc     0x000000000009b126       0x39 /work/glibc-obj/libc.a(isatty.o)
 .debug_loc     0x000000000009b15f      0x13c /work/glibc-obj/libc.a(tcgetattr.o)
 .debug_loc     0x000000000009b29b      0x194 /work/glibc-obj/libc.a(brk.o)
 .debug_loc     0x000000000009b42f      0x112 /work/glibc-obj/libc.a(wctrans.o)
 .debug_loc     0x000000000009b541      0x4d5 /work/glibc-obj/libc.a(towctrans.o)
 .debug_loc     0x000000000009ba16      0x314 /work/glibc-obj/libc.a(readonly-area.o)
 .debug_loc     0x000000000009bd2a     0x23b5 /work/glibc-obj/libc.a(res_init.o)
 .debug_loc     0x000000000009e0df     0x10fc /work/glibc-obj/libc.a(res_hconf.o)
 .debug_loc     0x000000000009f1db     0x73b8 /work/glibc-obj/libc.a(dl-load.o)
 .debug_loc     0x00000000000a6593     0x3b46 /work/glibc-obj/libc.a(dl-lookup.o)
 .debug_loc     0x00000000000aa0d9      0x7ae /work/glibc-obj/libc.a(dl-object.o)
 .debug_loc     0x00000000000aa887     0x4799 /work/glibc-obj/libc.a(dl-reloc.o)
 .debug_loc     0x00000000000af020      0xeb5 /work/glibc-obj/libc.a(dl-hwcaps.o)
 .debug_loc     0x00000000000afed5     0x1361 /work/glibc-obj/libc.a(dl-misc.o)
 .debug_loc     0x00000000000b1236      0xfc0 /work/glibc-obj/libc.a(dl-profile.o)
 .debug_loc     0x00000000000b21f6      0x2f1 /work/glibc-obj/libc.a(dl-origin.o)
 .debug_loc     0x00000000000b24e7      0x12a /work/glibc-obj/libc.a(dl-scope.o)
 .debug_loc     0x00000000000b2611      0x92c /work/glibc-obj/libc.a(dl-exception.o)
 .debug_loc     0x00000000000b2f3d      0xc65 /work/glibc-obj/libc.a(dl-cache.o)
 .debug_loc     0x00000000000b3ba2      0xb9c /work/glibc-obj/libc.a(dl-libc.o)
 .debug_loc     0x00000000000b473e      0x10b /work/glibc-obj/libc.a(cmp.o)
 .debug_loc     0x00000000000b4849      0xc4a /work/glibc-obj/libc.a(divrem.o)
 .debug_loc     0x00000000000b5493      0xe17 /work/glibc-obj/libc.a(mul.o)
 .debug_loc     0x00000000000b62aa     0x1e74 /work/glibc-obj/libc.a(mul_n.o)
 .debug_loc     0x00000000000b811e       0xcb /work/glibc-obj/libc.a(dbl2mpn.o)
 .debug_loc     0x00000000000b81e9       0xcb /work/glibc-obj/libc.a(ldbl2mpn.o)
 .debug_loc     0x00000000000b82b4       0xce /work/glibc-obj/libc.a(float1282mpn.o)
 .debug_loc     0x00000000000b8382      0x3c2 /work/glibc-obj/libc.a(_itoa.o)
 .debug_loc     0x00000000000b8744       0xab /work/glibc-obj/libc.a(snprintf.o)
 .debug_loc     0x00000000000b87ef       0xbe /work/glibc-obj/libc.a(getline.o)
 .debug_loc     0x00000000000b88ad      0x26d /work/glibc-obj/libc.a(vsnprintf.o)
 .debug_loc     0x00000000000b8b1a      0x305 /work/glibc-obj/libc.a(sdlerror.o)
 .debug_loc     0x00000000000b8e1f       0x72 /work/glibc-obj/libc.a(sdladdr.o)
 .debug_loc     0x00000000000b8e91      0x159 /work/glibc-obj/libc.a(sdladdr1.o)
 .debug_loc     0x00000000000b8fea      0x4d5 /work/glibc-obj/libc.a(sdlinfo.o)
 .debug_loc     0x00000000000b94bf      0x22f /work/glibc-obj/libc.a(sdlmopen.o)
 .debug_loc     0x00000000000b96ee      0x1bd /work/glibc-obj/libc.a(alloc_buffer_copy_bytes.o)
 .debug_loc     0x00000000000b98ab      0x11d /work/glibc-obj/libc.a(strerror.o)
 .debug_loc     0x00000000000b99c8      0x168 /work/glibc-obj/libc.a(strsep.o)
 .debug_loc     0x00000000000b9b30      0x6a3 /work/glibc-obj/libc.a(strpbrk-c.o)
 .debug_loc     0x00000000000ba1d3      0x612 /work/glibc-obj/libc.a(strspn-c.o)
 .debug_loc     0x00000000000ba7e5      0x329 /work/glibc-obj/libc.a(strncase_l-nonascii.o)
 .debug_loc     0x00000000000bab0e      0x11d /work/glibc-obj/libc.a(gethostname.o)
 .debug_loc     0x00000000000bac2b      0x309 /work/glibc-obj/libc.a(profil.o)
 .debug_loc     0x00000000000baf34      0x123 /work/glibc-obj/libc.a(inet_mkadr.o)
 .debug_loc     0x00000000000bb057      0x230 /work/glibc-obj/libc.a(inet6_scopeid_pton.o)
 .debug_loc     0x00000000000bb287      0x330 /work/glibc-obj/libc.a(ifreq.o)
 .debug_loc     0x00000000000bb5b7      0x337 /work/glibc-obj/libc.a(inet_addr.o)
 .debug_loc     0x00000000000bb8ee      0xcee /work/glibc-obj/libc.a(inet_pton.o)
 .debug_loc     0x00000000000bc5dc     0x110f /work/glibc-obj/libc.a(dl-runtime.o)
 .debug_loc     0x00000000000bd6eb     0x16eb /work/glibc-obj/libc.a(dl-open.o)
 .debug_loc     0x00000000000bedd6     0x1ee5 /work/glibc-obj/libc.a(dl-close.o)
 .debug_loc     0x00000000000c0cbb      0x432 /work/glibc-obj/libc.a(dl-sort-maps.o)
 .debug_loc     0x00000000000c10ed      0x626 /work/glibc-obj/libc.a(tlsdesc.o)
 .debug_loc     0x00000000000c1713      0x644 /work/glibc-obj/libc.a(dl-addr.o)
 .debug_loc     0x00000000000c1d57       0x65 /work/glibc-obj/libc.a(dl-addr-obj.o)
 .debug_loc     0x00000000000c1dbc      0x1f6 /work/glibc-obj/libc.a(sdlopen.o)
 .debug_loc     0x00000000000c1fb2       0x85 /work/glibc-obj/libc.a(sdlclose.o)
 .debug_loc     0x00000000000c2037      0x18d /work/glibc-obj/libc.a(sdlsym.o)
 .debug_loc     0x00000000000c21c4      0x1c6 /work/glibc-obj/libc.a(sdlvsym.o)
 .debug_loc     0x00000000000c238a      0x156 /work/glibc-obj/libc.a(opensock.o)
 .debug_loc     0x00000000000c24e0      0x913 /work/glibc-obj/libc.a(if_index.o)
 .debug_loc     0x00000000000c2df3     0x2530 /work/glibc-obj/libc.a(ifaddrs.o)
 .debug_loc     0x00000000000c5323      0x26c /work/glibc-obj/libc.a(netlink_assert_response.o)
 .debug_loc     0x00000000000c558f     0x26b6 /work/glibc-obj/libc.a(dl-deps.o)
 .debug_loc     0x00000000000c7c45      0x757 /work/glibc-obj/libc.a(dl-init.o)
 .debug_loc     0x00000000000c839c     0x1312 /work/glibc-obj/libc.a(dl-version.o)
 .debug_loc     0x00000000000c96ae      0xa16 /work/glibc-obj/libc.a(dl-sym.o)
 .debug_loc     0x00000000000ca0c4      0x153 /work/glibc-obj/libc.a(strncpy-c.o)
 .debug_loc     0x00000000000ca217       0x5b /work/glibc-obj/libc.a(access.o)
 .debug_loc     0x00000000000ca272      0x581 /work/glibc-obj/libc.a(recvmsg.o)
 .debug_loc     0x00000000000ca7f3      0x875 /work/glibc-obj/libc.a(sendto.o)

.debug_macinfo
 *(.debug_macinfo)

.debug_weaknames
 *(.debug_weaknames)

.debug_funcnames
 *(.debug_funcnames)

.debug_typenames
 *(.debug_typenames)

.debug_varnames
 *(.debug_varnames)

.debug_pubtypes
 *(.debug_pubtypes)

.debug_ranges   0x0000000000000000    0x21520
 *(.debug_ranges)
 .debug_ranges  0x0000000000000000       0x40 /work/glibc-obj/csu/crti.o
 .debug_ranges  0x0000000000000040     0x18c0 /work/glibc-obj/nptl/libpthread.a(pthread_create.o)
 .debug_ranges  0x0000000000001900      0x1b0 /work/glibc-obj/nptl/libpthread.a(pthread_join_common.o)
 .debug_ranges  0x0000000000001ab0      0x630 /work/glibc-obj/nptl/libpthread.a(pthread_mutex_lock.o)
 .debug_ranges  0x00000000000020e0      0x400 /work/glibc-obj/nptl/libpthread.a(pthread_mutex_trylock.o)
 .debug_ranges  0x00000000000024e0      0x270 /work/glibc-obj/nptl/libpthread.a(pthread_mutex_unlock.o)
 .debug_ranges  0x0000000000002750       0xd0 /work/glibc-obj/nptl/libpthread.a(pthread_key_create.o)
 .debug_ranges  0x0000000000002820       0x80 /work/glibc-obj/nptl/libpthread.a(pthread_key_delete.o)
 .debug_ranges  0x00000000000028a0       0x90 /work/glibc-obj/nptl/libpthread.a(pthread_getspecific.o)
 .debug_ranges  0x0000000000002930       0x30 /work/glibc-obj/nptl/libpthread.a(pthread_setspecific.o)
 .debug_ranges  0x0000000000002960       0xf0 /work/glibc-obj/nptl/libpthread.a(pthread_cancel.o)
 .debug_ranges  0x0000000000002a50      0x250 /work/glibc-obj/nptl/libpthread.a(pthread_once.o)
 .debug_ranges  0x0000000000002ca0      0x120 /work/glibc-obj/nptl/libpthread.a(pause.o)
 .debug_ranges  0x0000000000002dc0      0x210 /work/glibc-obj/nptl/libpthread.a(tpp.o)
 .debug_ranges  0x0000000000002fd0      0x220 /work/glibc-obj/nptl/libpthread.a(elision-lock.o)
 .debug_ranges  0x00000000000031f0      0x120 /work/glibc-obj/nptl/libpthread.a(elision-trylock.o)
 .debug_ranges  0x0000000000003310      0x390 /work/glibc-obj/nptl/libpthread.a(nptl-init.o)
 .debug_ranges  0x00000000000036a0       0xd0 /work/glibc-obj/nptl/libpthread.a(unwind.o)
 .debug_ranges  0x0000000000003770       0xe0 /work/glibc-obj/nptl/libpthread.a(sigaction.o)
 .debug_ranges  0x0000000000003850      0x390 /work/glibc-obj/libc.a(libc-start.o)
 .debug_ranges  0x0000000000003be0       0xc0 /work/glibc-obj/libc.a(libc-tls.o)
 .debug_ranges  0x0000000000003ca0       0x50 /work/glibc-obj/libc.a(elf-init.o)
 .debug_ranges  0x0000000000003cf0      0x100 /work/glibc-obj/libc.a(assert.o)
 .debug_ranges  0x0000000000003df0      0x7f0 /work/glibc-obj/libc.a(dcigettext.o)
 .debug_ranges  0x00000000000045e0       0x60 /work/glibc-obj/libc.a(finddomain.o)
 .debug_ranges  0x0000000000004640      0x750 /work/glibc-obj/libc.a(loadmsgcat.o)
 .debug_ranges  0x0000000000004d90      0x2a0 /work/glibc-obj/libc.a(localealias.o)
 .debug_ranges  0x0000000000005030      0x1a0 /work/glibc-obj/libc.a(l10nflist.o)
 .debug_ranges  0x00000000000051d0       0x30 /work/glibc-obj/libc.a(explodename.o)
 .debug_ranges  0x0000000000005200      0x350 /work/glibc-obj/libc.a(plural.o)
 .debug_ranges  0x0000000000005550       0x60 /work/glibc-obj/libc.a(plural-exp.o)
 .debug_ranges  0x00000000000055b0       0xe0 /work/glibc-obj/libc.a(raise.o)
 .debug_ranges  0x0000000000005690       0x30 /work/glibc-obj/libc.a(sigprocmask.o)
 .debug_ranges  0x00000000000056c0       0xb0 /work/glibc-obj/libc.a(abort.o)
 .debug_ranges  0x0000000000005770      0x150 /work/glibc-obj/libc.a(msort.o)
 .debug_ranges  0x00000000000058c0      0x100 /work/glibc-obj/libc.a(exit.o)
 .debug_ranges  0x00000000000059c0       0x50 /work/glibc-obj/libc.a(cxa_atexit.o)
 .debug_ranges  0x0000000000005a10       0x30 /work/glibc-obj/libc.a(strtoul_l.o)
 .debug_ranges  0x0000000000005a40       0x60 /work/glibc-obj/libc.a(grouping.o)
 .debug_ranges  0x0000000000005aa0       0x90 /work/glibc-obj/libc.a(fxprintf.o)
 .debug_ranges  0x0000000000005b30      0x180 /work/glibc-obj/libc.a(iofclose.o)
 .debug_ranges  0x0000000000005cb0      0x120 /work/glibc-obj/libc.a(iofflush.o)
 .debug_ranges  0x0000000000005dd0      0x1a0 /work/glibc-obj/libc.a(iofwrite.o)
 .debug_ranges  0x0000000000005f70      0x6d0 /work/glibc-obj/libc.a(wfileops.o)
 .debug_ranges  0x0000000000006640      0x130 /work/glibc-obj/libc.a(libc_fatal.o)
 .debug_ranges  0x0000000000006770      0xc20 /work/glibc-obj/libc.a(fileops.o)
 .debug_ranges  0x0000000000007390      0xcd0 /work/glibc-obj/libc.a(genops.o)
 .debug_ranges  0x0000000000008060      0x1d0 /work/glibc-obj/libc.a(strops.o)
 .debug_ranges  0x0000000000008230     0x22f0 /work/glibc-obj/libc.a(malloc.o)
 .debug_ranges  0x000000000000a520       0x50 /work/glibc-obj/libc.a(thread-freeres.o)
 .debug_ranges  0x000000000000a570      0x2d0 /work/glibc-obj/libc.a(strstr.o)
 .debug_ranges  0x000000000000a840       0x30 /work/glibc-obj/libc.a(memcmp.o)
 .debug_ranges  0x000000000000a870       0x30 /work/glibc-obj/libc.a(memmove.o)
 .debug_ranges  0x000000000000a8a0       0x30 /work/glibc-obj/libc.a(memset.o)
 .debug_ranges  0x000000000000a8d0       0x30 /work/glibc-obj/libc.a(mempcpy.o)
 .debug_ranges  0x000000000000a900       0x30 /work/glibc-obj/libc.a(memcpy.o)
 .debug_ranges  0x000000000000a930      0x380 /work/glibc-obj/libc.a(strcspn-c.o)
 .debug_ranges  0x000000000000acb0      0x3f0 /work/glibc-obj/libc.a(cacheinfo.o)
 .debug_ranges  0x000000000000b0a0       0x70 /work/glibc-obj/libc.a(strcasecmp_l-nonascii.o)
 .debug_ranges  0x000000000000b110      0x100 /work/glibc-obj/libc.a(wcsmbsload.o)
 .debug_ranges  0x000000000000b210       0x90 /work/glibc-obj/libc.a(mbsrtowcs_l.o)
 .debug_ranges  0x000000000000b2a0       0x30 /work/glibc-obj/libc.a(gettimeofday.o)
 .debug_ranges  0x000000000000b2d0       0xe0 /work/glibc-obj/libc.a(_exit.o)
 .debug_ranges  0x000000000000b3b0      0x1d0 /work/glibc-obj/libc.a(sysconf.o)
 .debug_ranges  0x000000000000b580       0x30 /work/glibc-obj/libc.a(xstat.o)
 .debug_ranges  0x000000000000b5b0       0x30 /work/glibc-obj/libc.a(fxstat.o)
 .debug_ranges  0x000000000000b5e0      0x150 /work/glibc-obj/libc.a(open64.o)
 .debug_ranges  0x000000000000b730      0x160 /work/glibc-obj/libc.a(read.o)
 .debug_ranges  0x000000000000b890      0x160 /work/glibc-obj/libc.a(write.o)
 .debug_ranges  0x000000000000b9f0       0x30 /work/glibc-obj/libc.a(lseek64.o)
 .debug_ranges  0x000000000000ba20      0x140 /work/glibc-obj/libc.a(fcntl.o)
 .debug_ranges  0x000000000000bb60      0x170 /work/glibc-obj/libc.a(close.o)
 .debug_ranges  0x000000000000bcd0      0x110 /work/glibc-obj/libc.a(getcwd.o)
 .debug_ranges  0x000000000000bde0       0x70 /work/glibc-obj/libc.a(getrlimit64.o)
 .debug_ranges  0x000000000000be50       0x30 /work/glibc-obj/libc.a(sbrk.o)
 .debug_ranges  0x000000000000be80       0x30 /work/glibc-obj/libc.a(getpagesize.o)
 .debug_ranges  0x000000000000beb0       0x30 /work/glibc-obj/libc.a(mmap64.o)
 .debug_ranges  0x000000000000bee0       0xc0 /work/glibc-obj/libc.a(tsearch.o)
 .debug_ranges  0x000000000000bfa0      0x1b0 /work/glibc-obj/libc.a(getsysstats.o)
 .debug_ranges  0x000000000000c150      0x120 /work/glibc-obj/libc.a(register-atfork.o)
 .debug_ranges  0x000000000000c270       0x60 /work/glibc-obj/libc.a(res-close.o)
 .debug_ranges  0x000000000000c2d0       0xb0 /work/glibc-obj/libc.a(resolv_context.o)
 .debug_ranges  0x000000000000c380      0xd70 /work/glibc-obj/libc.a(resolv_conf.o)
 .debug_ranges  0x000000000000d0f0      0x160 /work/glibc-obj/libc.a(dl-tls.o)
 .debug_ranges  0x000000000000d250      0x3b0 /work/glibc-obj/libc.a(dl-tunables.o)
 .debug_ranges  0x000000000000d600      0x2d0 /work/glibc-obj/libc.a(dl-support.o)
 .debug_ranges  0x000000000000d8d0       0x30 /work/glibc-obj/libc.a(dl-iteratephdr.o)
 .debug_ranges  0x000000000000d900       0xe0 /work/glibc-obj/libc.a(dl-sysdep.o)
 .debug_ranges  0x000000000000d9e0       0x30 /work/glibc-obj/libc.a(init-first.o)
 .debug_ranges  0x000000000000da10       0xf0 /work/glibc-obj/libc.a(gconv_open.o)
 .debug_ranges  0x000000000000db00       0x30 /work/glibc-obj/libc.a(gconv.o)
 .debug_ranges  0x000000000000db30      0x580 /work/glibc-obj/libc.a(gconv_db.o)
 .debug_ranges  0x000000000000e0b0      0x4b0 /work/glibc-obj/libc.a(gconv_conf.o)
 .debug_ranges  0x000000000000e560     0x22d0 /work/glibc-obj/libc.a(gconv_simple.o)
 .debug_ranges  0x0000000000010830      0x180 /work/glibc-obj/libc.a(gconv_trans.o)
 .debug_ranges  0x00000000000109b0      0x170 /work/glibc-obj/libc.a(gconv_cache.o)
 .debug_ranges  0x0000000000010b20       0xa0 /work/glibc-obj/libc.a(gconv_dl.o)
 .debug_ranges  0x0000000000010bc0      0x160 /work/glibc-obj/libc.a(setlocale.o)
 .debug_ranges  0x0000000000010d20      0x1b0 /work/glibc-obj/libc.a(findlocale.o)
 .debug_ranges  0x0000000000010ed0      0x130 /work/glibc-obj/libc.a(loadlocale.o)
 .debug_ranges  0x0000000000011000      0x100 /work/glibc-obj/libc.a(loadarchive.o)
 .debug_ranges  0x0000000000011100      0x120 /work/glibc-obj/libc.a(qsort.o)
 .debug_ranges  0x0000000000011220       0xf0 /work/glibc-obj/libc.a(setenv.o)
 .debug_ranges  0x0000000000011310       0x30 /work/glibc-obj/libc.a(strtol_l.o)
 .debug_ranges  0x0000000000011340     0x21f0 /work/glibc-obj/libc.a(vfprintf.o)
 .debug_ranges  0x0000000000013530      0xdf0 /work/glibc-obj/libc.a(printf_fp.o)
 .debug_ranges  0x0000000000014320       0x30 /work/glibc-obj/libc.a(reg-printf.o)
 .debug_ranges  0x0000000000014350      0xd10 /work/glibc-obj/libc.a(printf_fphex.o)
 .debug_ranges  0x0000000000015060       0xb0 /work/glibc-obj/libc.a(reg-modifier.o)
 .debug_ranges  0x0000000000015110       0x40 /work/glibc-obj/libc.a(reg-type.o)
 .debug_ranges  0x0000000000015150     0x2220 /work/glibc-obj/libc.a(vfwprintf.o)
 .debug_ranges  0x0000000000017370       0xa0 /work/glibc-obj/libc.a(printf-parsemb.o)
 .debug_ranges  0x0000000000017410      0x190 /work/glibc-obj/libc.a(printf-parsewc.o)
 .debug_ranges  0x00000000000175a0       0x60 /work/glibc-obj/libc.a(filedoalloc.o)
 .debug_ranges  0x0000000000017600      0x190 /work/glibc-obj/libc.a(iofputs.o)
 .debug_ranges  0x0000000000017790      0x150 /work/glibc-obj/libc.a(iogetdelim.o)
 .debug_ranges  0x00000000000178e0       0xc0 /work/glibc-obj/libc.a(iogetline.o)
 .debug_ranges  0x00000000000179a0       0x60 /work/glibc-obj/libc.a(iopadn.o)
 .debug_ranges  0x0000000000017a00       0x60 /work/glibc-obj/libc.a(iowpadn.o)
 .debug_ranges  0x0000000000017a60      0x310 /work/glibc-obj/libc.a(wgenops.o)
 .debug_ranges  0x0000000000017d70       0x50 /work/glibc-obj/libc.a(iofwide.o)
 .debug_ranges  0x0000000000017dc0       0x30 /work/glibc-obj/libc.a(scratch_buffer_grow_preserve.o)
 .debug_ranges  0x0000000000017df0       0x30 /work/glibc-obj/libc.a(scratch_buffer_set_array_size.o)
 .debug_ranges  0x0000000000017e20       0x40 /work/glibc-obj/libc.a(dynarray_emplace_enlarge.o)
 .debug_ranges  0x0000000000017e60       0x60 /work/glibc-obj/libc.a(alloc_buffer_alloc_array.o)
 .debug_ranges  0x0000000000017ec0       0x30 /work/glibc-obj/libc.a(alloc_buffer_allocate.o)
 .debug_ranges  0x0000000000017ef0       0x40 /work/glibc-obj/libc.a(_strerror.o)
 .debug_ranges  0x0000000000017f30      0x2c0 /work/glibc-obj/libc.a(memmem.o)
 .debug_ranges  0x00000000000181f0       0x40 /work/glibc-obj/libc.a(argz-ctsep.o)
 .debug_ranges  0x0000000000018230       0x40 /work/glibc-obj/libc.a(argz-addsep.o)
 .debug_ranges  0x0000000000018270       0x30 /work/glibc-obj/libc.a(wmemset.o)
 .debug_ranges  0x00000000000182a0       0x70 /work/glibc-obj/libc.a(btowc.o)
 .debug_ranges  0x0000000000018310       0x40 /work/glibc-obj/libc.a(wcrtomb.o)
 .debug_ranges  0x0000000000018350       0xb0 /work/glibc-obj/libc.a(wcsrtombs.o)
 .debug_ranges  0x0000000000018400       0x90 /work/glibc-obj/libc.a(opendir.o)
 .debug_ranges  0x0000000000018490       0xc0 /work/glibc-obj/libc.a(readdir.o)
 .debug_ranges  0x0000000000018550       0x40 /work/glibc-obj/libc.a(rewinddir.o)
 .debug_ranges  0x0000000000018590       0xd0 /work/glibc-obj/libc.a(getdents.o)
 .debug_ranges  0x0000000000018660       0x30 /work/glibc-obj/libc.a(lxstat.o)
 .debug_ranges  0x0000000000018690       0x30 /work/glibc-obj/libc.a(fxstatat.o)
 .debug_ranges  0x00000000000186c0      0x150 /work/glibc-obj/libc.a(openat64.o)
 .debug_ranges  0x0000000000018810       0x70 /work/glibc-obj/libc.a(tcgetattr.o)
 .debug_ranges  0x0000000000018880       0x30 /work/glibc-obj/libc.a(brk.o)
 .debug_ranges  0x00000000000188b0       0x90 /work/glibc-obj/libc.a(towctrans.o)
 .debug_ranges  0x0000000000018940       0x70 /work/glibc-obj/libc.a(readonly-area.o)
 .debug_ranges  0x00000000000189b0     0x15c0 /work/glibc-obj/libc.a(res_init.o)
 .debug_ranges  0x0000000000019f70      0x550 /work/glibc-obj/libc.a(res_hconf.o)
 .debug_ranges  0x000000000001a4c0      0xe40 /work/glibc-obj/libc.a(dl-load.o)
 .debug_ranges  0x000000000001b300      0x8e0 /work/glibc-obj/libc.a(dl-lookup.o)
 .debug_ranges  0x000000000001bbe0       0xb0 /work/glibc-obj/libc.a(dl-object.o)
 .debug_ranges  0x000000000001bc90      0xe90 /work/glibc-obj/libc.a(dl-reloc.o)
 .debug_ranges  0x000000000001cb20      0x280 /work/glibc-obj/libc.a(dl-hwcaps.o)
 .debug_ranges  0x000000000001cda0      0x250 /work/glibc-obj/libc.a(dl-misc.o)
 .debug_ranges  0x000000000001cff0      0x2a0 /work/glibc-obj/libc.a(dl-profile.o)
 .debug_ranges  0x000000000001d290       0x40 /work/glibc-obj/libc.a(dl-origin.o)
 .debug_ranges  0x000000000001d2d0       0x30 /work/glibc-obj/libc.a(dl-scope.o)
 .debug_ranges  0x000000000001d300      0x1d0 /work/glibc-obj/libc.a(dl-exception.o)
 .debug_ranges  0x000000000001d4d0      0x2d0 /work/glibc-obj/libc.a(dl-cache.o)
 .debug_ranges  0x000000000001d7a0       0xe0 /work/glibc-obj/libc.a(dl-libc.o)
 .debug_ranges  0x000000000001d880      0x170 /work/glibc-obj/libc.a(divrem.o)
 .debug_ranges  0x000000000001d9f0      0x140 /work/glibc-obj/libc.a(mul.o)
 .debug_ranges  0x000000000001db30      0x230 /work/glibc-obj/libc.a(mul_n.o)
 .debug_ranges  0x000000000001dd60       0x40 /work/glibc-obj/libc.a(ldbl2mpn.o)
 .debug_ranges  0x000000000001dda0       0x40 /work/glibc-obj/libc.a(float1282mpn.o)
 .debug_ranges  0x000000000001dde0       0xd0 /work/glibc-obj/libc.a(sdlerror.o)
 .debug_ranges  0x000000000001deb0       0x30 /work/glibc-obj/libc.a(sdlinfo.o)
 .debug_ranges  0x000000000001dee0       0xa0 /work/glibc-obj/libc.a(alloc_buffer_copy_bytes.o)
 .debug_ranges  0x000000000001df80      0x350 /work/glibc-obj/libc.a(strpbrk-c.o)
 .debug_ranges  0x000000000001e2d0      0x310 /work/glibc-obj/libc.a(strspn-c.o)
 .debug_ranges  0x000000000001e5e0       0x70 /work/glibc-obj/libc.a(strncase_l-nonascii.o)
 .debug_ranges  0x000000000001e650       0x30 /work/glibc-obj/libc.a(profil.o)
 .debug_ranges  0x000000000001e680       0x40 /work/glibc-obj/libc.a(inet_mkadr.o)
 .debug_ranges  0x000000000001e6c0       0x30 /work/glibc-obj/libc.a(inet6_scopeid_pton.o)
 .debug_ranges  0x000000000001e6f0       0x80 /work/glibc-obj/libc.a(inet_addr.o)
 .debug_ranges  0x000000000001e770      0x100 /work/glibc-obj/libc.a(inet_pton.o)
 .debug_ranges  0x000000000001e870      0x230 /work/glibc-obj/libc.a(dl-runtime.o)
 .debug_ranges  0x000000000001eaa0      0x360 /work/glibc-obj/libc.a(dl-open.o)
 .debug_ranges  0x000000000001ee00      0x710 /work/glibc-obj/libc.a(dl-close.o)
 .debug_ranges  0x000000000001f510       0xa0 /work/glibc-obj/libc.a(dl-sort-maps.o)
 .debug_ranges  0x000000000001f5b0      0x130 /work/glibc-obj/libc.a(tlsdesc.o)
 .debug_ranges  0x000000000001f6e0       0xe0 /work/glibc-obj/libc.a(dl-addr.o)
 .debug_ranges  0x000000000001f7c0       0x40 /work/glibc-obj/libc.a(opensock.o)
 .debug_ranges  0x000000000001f800      0x260 /work/glibc-obj/libc.a(if_index.o)
 .debug_ranges  0x000000000001fa60      0x8c0 /work/glibc-obj/libc.a(ifaddrs.o)
 .debug_ranges  0x0000000000020320       0x90 /work/glibc-obj/libc.a(netlink_assert_response.o)
 .debug_ranges  0x00000000000203b0      0xa60 /work/glibc-obj/libc.a(dl-deps.o)
 .debug_ranges  0x0000000000020e10       0x60 /work/glibc-obj/libc.a(dl-init.o)
 .debug_ranges  0x0000000000020e70      0x240 /work/glibc-obj/libc.a(dl-version.o)
 .debug_ranges  0x00000000000210b0      0x160 /work/glibc-obj/libc.a(dl-sym.o)
 .debug_ranges  0x0000000000021210       0x30 /work/glibc-obj/libc.a(access.o)
 .debug_ranges  0x0000000000021240      0x130 /work/glibc-obj/libc.a(recvmsg.o)
 .debug_ranges  0x0000000000021370      0x170 /work/glibc-obj/libc.a(sendto.o)
 .debug_ranges  0x00000000000214e0       0x40 /work/glibc-obj/csu/crtn.o

.debug_macro    0x0000000000000000     0x1c0e
 *(.debug_macro)
 .debug_macro   0x0000000000000000      0x382 threads.o
 .debug_macro   0x0000000000000382      0x7f0 threads.o
 .debug_macro   0x0000000000000b72       0x22 threads.o
 .debug_macro   0x0000000000000b94       0x10 threads.o
 .debug_macro   0x0000000000000ba4      0x19e threads.o
 .debug_macro   0x0000000000000d42      0x168 threads.o
 .debug_macro   0x0000000000000eaa       0x16 threads.o
 .debug_macro   0x0000000000000ec0       0x4a threads.o
 .debug_macro   0x0000000000000f0a       0x58 threads.o
 .debug_macro   0x0000000000000f62       0x34 threads.o
 .debug_macro   0x0000000000000f96       0x10 threads.o
 .debug_macro   0x0000000000000fa6       0x97 threads.o
 .debug_macro   0x000000000000103d       0x5e threads.o
 .debug_macro   0x000000000000109b       0xee threads.o
 .debug_macro   0x0000000000001189       0x16 threads.o
 .debug_macro   0x000000000000119f       0x20 threads.o
 .debug_macro   0x00000000000011bf       0x28 threads.o
 .debug_macro   0x00000000000011e7       0x58 threads.o
 .debug_macro   0x000000000000123f       0x10 threads.o
 .debug_macro   0x000000000000124f      0x1cc threads.o
 .debug_macro   0x000000000000141b       0x46 threads.o
 .debug_macro   0x0000000000001461       0x2e threads.o
 .debug_macro   0x000000000000148f       0x27 threads.o
 .debug_macro   0x00000000000014b6       0x3a threads.o
 .debug_macro   0x00000000000014f0       0x16 threads.o
 .debug_macro   0x0000000000001506       0x97 threads.o
 .debug_macro   0x000000000000159d       0x3a threads.o
 .debug_macro   0x00000000000015d7       0x4c threads.o
 .debug_macro   0x0000000000001623       0x2e threads.o
 .debug_macro   0x0000000000001651       0x2e threads.o
 .debug_macro   0x000000000000167f       0x80 threads.o
 .debug_macro   0x00000000000016ff       0x28 threads.o
 .debug_macro   0x0000000000001727       0x4c threads.o
 .debug_macro   0x0000000000001773       0x12 threads.o
 .debug_macro   0x0000000000001785       0x12 threads.o
 .debug_macro   0x0000000000001797       0x1c threads.o
 .debug_macro   0x00000000000017b3       0x28 threads.o
 .debug_macro   0x00000000000017db       0x10 threads.o
 .debug_macro   0x00000000000017eb       0x4c threads.o
 .debug_macro   0x0000000000001837       0x22 threads.o
 .debug_macro   0x0000000000001859       0x10 threads.o
 .debug_macro   0x0000000000001869       0x4c threads.o
 .debug_macro   0x00000000000018b5       0x1c threads.o
 .debug_macro   0x00000000000018d1       0x2e threads.o
 .debug_macro   0x00000000000018ff       0x5e threads.o
 .debug_macro   0x000000000000195d       0x27 threads.o
 .debug_macro   0x0000000000001984       0x76 threads.o
 .debug_macro   0x00000000000019fa       0x17 threads.o
 .debug_macro   0x0000000000001a11       0x10 threads.o
 .debug_macro   0x0000000000001a21       0x10 threads.o
 .debug_macro   0x0000000000001a31       0x2a threads.o
 .debug_macro   0x0000000000001a5b       0x16 threads.o
 .debug_macro   0x0000000000001a71       0x1c threads.o
 .debug_macro   0x0000000000001a8d       0x5e threads.o
 .debug_macro   0x0000000000001aeb       0x10 threads.o
 .debug_macro   0x0000000000001afb       0x16 threads.o
 .debug_macro   0x0000000000001b11       0x58 threads.o
 .debug_macro   0x0000000000001b69       0x11 threads.o
 .debug_macro   0x0000000000001b7a       0x94 threads.o

.debug_addr
 *(.debug_addr)

.gnu.attributes
 *(.gnu.attributes)

/DISCARD/
 *(.note.GNU-stack)
 *(.gnu_debuglink)
 *(.gnu.lto_*)
 *(.gnu_object_only)
OUTPUT(threads-static elf64-x86-64)
